LX51 LINKER/LOCATER V4.66.93.0                                                          06/27/2023  19:17:35  PAGE 1


LX51 LINKER/LOCATER V4.66.93.0, INVOKED BY:
D:\KEIL_V5\C51\BIN\LX51.EXE ..\OBJ\STARTUP_CMS80F731x.obj, ..\OBJ\adc.obj, ..\OBJ\flash.obj, ..\OBJ\gpio.obj, ..\OBJ\sys
>> tem.obj, ..\OBJ\timer.obj, ..\OBJ\wdt.obj, ..\OBJ\led.obj, ..\OBJ\buzzer.obj, ..\OBJ\crc.obj, ..\OBJ\extint.obj, ..\O
>> BJ\i2c.obj, ..\OBJ\lse.obj, ..\OBJ\pwm.obj, ..\OBJ\spi.obj, ..\OBJ\uart.obj, ..\OBJ\wut.obj, ..\OBJ\CheckTouchKey_Set
>> .obj, ..\OBJ\REL_Protocol.obj, ..\TOUCHLib\CheckTouchKey_80F73xx_EMC_V1.01.LIB, ..\OBJ\systime.obj, ..\OBJ\main.obj, 
>> ..\OBJ\debug.obj, ..\OBJ\Eeprom.obj, ..\OBJ\GetADC.obj, ..\OBJ\heater.obj, ..\OBJ\led_drv.obj, ..\OBJ\NTC.obj, ..\OBJ
>> \scan_key.obj, ..\OBJ\Common.obj, ..\OBJ\emergency.obj, ..\OBJ\Idle.obj, ..\OBJ\init.obj, ..\OBJ\Work.obj, ..\OBJ\sta
>> tion.obj, ..\OBJ\subprog.obj, ..\OBJ\buzzer_drv.obj TO ..\OBJ\VK-7201A PRINT (..\OBJ\VK-7201A.map) DISABLEWARNING (48
>> ) REMOVEUNUSED


CPU MODE:     8051 MODE
MEMORY MODEL: SMALL


INPUT MODULES INCLUDED:
  ..\OBJ\STARTUP_CMS80F731x.obj (?C_STARTUP)
         COMMENT TYPE 1: A51 / ASM51 Assembler
  ..\OBJ\adc.obj (ADC)
         COMMENT TYPE 0: C51 V9.59.0.0
  ..\OBJ\flash.obj (FLASH)
         COMMENT TYPE 0: C51 V9.59.0.0
  ..\OBJ\gpio.obj (GPIO)
         COMMENT TYPE 0: C51 V9.59.0.0
  ..\OBJ\system.obj (SYSTEM)
         COMMENT TYPE 0: C51 V9.59.0.0
  ..\OBJ\timer.obj (TIMER)
         COMMENT TYPE 0: C51 V9.59.0.0
  ..\OBJ\wdt.obj (WDT)
         COMMENT TYPE 0: C51 V9.59.0.0
  ..\OBJ\led.obj (LED)
         COMMENT TYPE 0: C51 V9.59.0.0
  ..\OBJ\buzzer.obj (BUZZER)
         COMMENT TYPE 0: C51 V9.59.0.0
  ..\OBJ\crc.obj (CRC)
         COMMENT TYPE 0: C51 V9.59.0.0
  ..\OBJ\extint.obj (EXTINT)
         COMMENT TYPE 0: C51 V9.59.0.0
  ..\OBJ\i2c.obj (I2C)
         COMMENT TYPE 0: C51 V9.59.0.0
  ..\OBJ\lse.obj (LSE)
         COMMENT TYPE 0: C51 V9.59.0.0
  ..\OBJ\pwm.obj (PWM)
         COMMENT TYPE 0: C51 V9.59.0.0
  ..\OBJ\spi.obj (SPI)
         COMMENT TYPE 0: C51 V9.59.0.0
  ..\OBJ\uart.obj (UART)
         COMMENT TYPE 0: C51 V9.59.0.0
  ..\OBJ\wut.obj (WUT)
         COMMENT TYPE 0: C51 V9.59.0.0
  ..\OBJ\CheckTouchKey_Set.obj (CHECKTOUCHKEY_SET)
         COMMENT TYPE 0: C51 V9.59.0.0
  ..\OBJ\REL_Protocol.obj (REL_PROTOCOL)
         COMMENT TYPE 0: C51 V9.59.0.0
  ..\OBJ\systime.obj (SYSTIME)
         COMMENT TYPE 0: C51 V9.59.0.0
  ..\OBJ\main.obj (MAIN)
         COMMENT TYPE 0: C51 V9.59.0.0
  ..\OBJ\debug.obj (DEBUG)
         COMMENT TYPE 0: C51 V9.59.0.0
  ..\OBJ\Eeprom.obj (EEPROM)
         COMMENT TYPE 0: C51 V9.59.0.0
  ..\OBJ\GetADC.obj (GETADC)
         COMMENT TYPE 0: C51 V9.59.0.0
  ..\OBJ\heater.obj (HEATER)
         COMMENT TYPE 0: C51 V9.59.0.0
LX51 LINKER/LOCATER V4.66.93.0                                                        06/27/2023  19:17:35  PAGE 2


  ..\OBJ\led_drv.obj (LED_DRV)
         COMMENT TYPE 0: C51 V9.59.0.0
  ..\OBJ\NTC.obj (NTC)
         COMMENT TYPE 0: C51 V9.59.0.0
  ..\OBJ\scan_key.obj (SCAN_KEY)
         COMMENT TYPE 0: C51 V9.59.0.0
  ..\OBJ\Common.obj (COMMON)
         COMMENT TYPE 0: C51 V9.59.0.0
  ..\OBJ\emergency.obj (EMERGENCY)
         COMMENT TYPE 0: C51 V9.59.0.0
  ..\OBJ\Idle.obj (IDLE)
         COMMENT TYPE 0: C51 V9.59.0.0
  ..\OBJ\init.obj (INIT)
         COMMENT TYPE 0: C51 V9.59.0.0
  ..\OBJ\Work.obj (WORK)
         COMMENT TYPE 0: C51 V9.59.0.0
  ..\OBJ\station.obj (STATION)
         COMMENT TYPE 0: C51 V9.59.0.0
  ..\OBJ\subprog.obj (SUBPROG)
         COMMENT TYPE 0: C51 V9.59.0.0
  ..\OBJ\buzzer_drv.obj (BUZZER_DRV)
         COMMENT TYPE 0: C51 V9.59.0.0
  ..\TOUCHLib\CheckTouchKey_80F73xx_EMC_V1.01.LIB (CHECKTOUCHKEY_80F73XX_EMC_V1_01)
         COMMENT TYPE 0: C51 V9.60.0.0
  D:\KEIL_V5\C51\LIB\C51S.LIB (?C_INIT)
         COMMENT TYPE 1: A51 / ASM51 Assembler
  D:\KEIL_V5\C51\LIB\C51S.LIB (?C?CLDPTR)
         COMMENT TYPE 1: A51 / ASM51 Assembler
  D:\KEIL_V5\C51\LIB\C51S.LIB (?C?CLDOPTR)
         COMMENT TYPE 1: A51 / ASM51 Assembler
  D:\KEIL_V5\C51\LIB\C51S.LIB (?C?CILDOPTR)
         COMMENT TYPE 1: A51 / ASM51 Assembler
  D:\KEIL_V5\C51\LIB\C51S.LIB (?C?CSTPTR)
         COMMENT TYPE 1: A51 / ASM51 Assembler
  D:\KEIL_V5\C51\LIB\C51S.LIB (?C?CSTOPTR)
         COMMENT TYPE 1: A51 / ASM51 Assembler
  D:\KEIL_V5\C51\LIB\C51S.LIB (?C?UIDIV)
         COMMENT TYPE 1: A51 / ASM51 Assembler
  D:\KEIL_V5\C51\LIB\C51S.LIB (?C?SIDIV)
         COMMENT TYPE 1: A51 / ASM51 Assembler
  D:\KEIL_V5\C51\LIB\C51S.LIB (?C?IILDX)
         COMMENT TYPE 1: A51 / ASM51 Assembler
  D:\KEIL_V5\C51\LIB\C51S.LIB (?C?ILDOPTR)
         COMMENT TYPE 1: A51 / ASM51 Assembler
  D:\KEIL_V5\C51\LIB\C51S.LIB (?C?LMUL)
         COMMENT TYPE 1: A51 / ASM51 Assembler
  D:\KEIL_V5\C51\LIB\C51S.LIB (?C?ULDIV)
         COMMENT TYPE 1: A51 / ASM51 Assembler
  D:\KEIL_V5\C51\LIB\C51S.LIB (?C?LNOT)
         COMMENT TYPE 1: A51 / ASM51 Assembler
  D:\KEIL_V5\C51\LIB\C51S.LIB (?C?ULCMP)
         COMMENT TYPE 1: A51 / ASM51 Assembler
  D:\KEIL_V5\C51\LIB\C51S.LIB (?C?LSHL)
         COMMENT TYPE 1: A51 / ASM51 Assembler
  D:\KEIL_V5\C51\LIB\C51S.LIB (?C?LLDCODE)
         COMMENT TYPE 1: A51 / ASM51 Assembler
  D:\KEIL_V5\C51\LIB\C51S.LIB (?C?LLDCODE0)
         COMMENT TYPE 1: A51 / ASM51 Assembler
  D:\KEIL_V5\C51\LIB\C51S.LIB (?C?LSTXDATA)
         COMMENT TYPE 1: A51 / ASM51 Assembler
  D:\KEIL_V5\C51\LIB\C51S.LIB (?C?LSTKXDATA)
         COMMENT TYPE 1: A51 / ASM51 Assembler
  D:\KEIL_V5\C51\LIB\C51S.LIB (?C?OFFXADD)
         COMMENT TYPE 1: A51 / ASM51 Assembler
  D:\KEIL_V5\C51\LIB\C51S.LIB (?C?LIMUL)
LX51 LINKER/LOCATER V4.66.93.0                                                        06/27/2023  19:17:35  PAGE 3


         COMMENT TYPE 1: A51 / ASM51 Assembler


ACTIVE MEMORY CLASSES OF MODULE:  ..\OBJ\VK-7201A (?C_STARTUP)

BASE        START       END         USED      MEMORY CLASS
==========================================================
C:000000H   C:000000H   C:00FFFFH   002EA6H   CODE
I:000000H   I:000000H   I:0000FFH   00000AH   IDATA
I:000000H   I:000000H   I:00007FH   00004AH   DATA
C:000000H   C:000000H   C:00FFFFH   000241H   CONST
X:000000H   X:000000H   X:00FFFFH   000146H   XDATA
I:000020H.0 I:000020H.0 I:00002FH.7 000002H.7 BIT


MEMORY MAP OF MODULE:  ..\OBJ\VK-7201A (?C_STARTUP)


START     STOP      LENGTH    ALIGN  RELOC    MEMORY CLASS   SEGMENT NAME
=========================================================================

* * * * * * * * * * *   D A T A   M E M O R Y   * * * * * * * * * * * * *
000000H   000007H   000008H   ---    AT..     DATA           "REG BANK 0"
000008H   00001BH   000014H   BYTE   UNIT     DATA           _DATA_GROUP_
00001CH   00001FH   000004H   BYTE   UNIT     DATA           ?DT?DEBUG
000020H.0 000020H.6 000000H.7 BIT    UNIT     BIT            ?BI?SYSTIME
000020H.7 000021H.5 000000H.7 BIT    UNIT     BIT            ?BI?CHECKTOUCHKEY_80F73XX_EMC_V1_01
000021H.6 000022H.0 000000H.3 BIT    UNIT     BIT            ?BI?HEATER
000022H.1 000022H.2 000000H.2 BIT    UNIT     BIT            ?BI?SCAN_KEY
000022H.3 000022H.3 000000H.1 BIT    UNIT     BIT            ?BI?DEBUG
000022H.4 000022H.4 000000H.1 BIT    UNIT     BIT            ?BI?LED_DRV
000022H.5 000022H.5 000000H.1 BIT    UNIT     BIT            ?BI?WORK
000022H.6 000022H.6 000000H.1 BIT    UNIT     BIT            ?BI?BUZZER_DRV
000022H.7 000022H   000000H.1 ---    ---      **GAP**
000023H   00002FH   00000DH   BYTE   UNIT     DATA           ?DT?SCAN_KEY
000030H   000039H   00000AH   BYTE   UNIT     DATA           ?DT?SYSTIME
00003AH   00003DH   000004H   BYTE   UNIT     DATA           ?DT?WORK
00003EH   000040H   000003H   BYTE   UNIT     DATA           ?DT?EMERGENCY
000041H   000043H   000003H   BYTE   UNIT     DATA           ?DT?STATION
000044H   000045H   000002H   BYTE   UNIT     DATA           ?DT?REL_PROTOCOL
000046H   000047H   000002H   BYTE   UNIT     DATA           ?DT?HEATER
000048H   000049H   000002H   BYTE   UNIT     DATA           ?DT?LED_DRV
00004AH   00004BH   000002H   BYTE   UNIT     DATA           ?DT?IDLE
00004CH   00004CH   000001H   BYTE   UNIT     DATA           ?DT?BUZZER_DRV
00004DH   000055H   000009H   BYTE   UNIT     IDATA          ?ID?DEBUG
000056H   000056H   000001H   BYTE   UNIT     IDATA          ?STACK

* * * * * * * * * * *   C O D E   M E M O R Y   * * * * * * * * * * * * *
000000H   000002H   000003H   ---    OFFS..   CODE           ?CO??C_STARTUP?0
000003H   00000AH   000008H   BYTE   UNIT     CODE           ?PR?ADC_DISABLELDO?ADC
00000BH   00000DH   000003H   BYTE   OFFS..   CODE           ?SYSTIME?0000B
00000EH   000081H   000074H   BYTE   UNIT     CODE           ?PR?WORKING_RUN_TASK?WORK
000082H   000082H   000001H   BYTE   UNIT     CODE           ?PR?UPDATE_LED_SHOW?LED_DRV
000083H   000085H   000003H   BYTE   OFFS..   CODE           ?DEBUG?00083
000086H   0000D8H   000053H   BYTE   UNIT     CODE           ?PR?_STATIONRUN?STATION
0000D9H   0000D9H   000001H   BYTE   UNIT     CODE           ?PR?IDLE_DE?IDLE
0000DAH   0000DAH   000001H   BYTE   UNIT     CODE           ?PR?INIT_DE?INIT
0000DBH   0000DDH   000003H   BYTE   OFFS..   CODE           ?CHECKTOUCHKEY_80F73XX_EMC_V1_01?000DB
0000DEH   0004CFH   0003F2H   BYTE   UNIT     CODE           ?PR?__CMS_CHECKONCERESULT?CHECKTOUCHKEY_80F73XX_EMC_V1_01
0004D0H   000839H   00036AH   BYTE   UNIT     CODE           ?C?LIB_CODE
00083AH   000B1CH   0002E3H   BYTE   UNIT     CODE           ?PR?___CMS_CURADJUSTDL?CHECKTOUCHKEY_80F73XX_EMC_V1_01
000B1DH   000CFFH   0001E3H   BYTE   UNIT     CODE           ?PR?LEDSHOW_RUN_TASK?LED_DRV
000D00H   000ECCH   0001CDH   BYTE   UNIT     CODE           ?PR?__CMS_CHECKKEYOLDVALUE?CHECKTOUCHKEY_80F73XX_EMC_V1_01
000ECDH   00105FH   000193H   BYTE   UNIT     CODE           ?PR?__CMS_CURADJUST?CHECKTOUCHKEY_80F73XX_EMC_V1_01
001060H   0011EBH   00018CH   BYTE   UNIT     CODE           ?PR?__CMS_NOISE_CHECK?CHECKTOUCHKEY_80F73XX_EMC_V1_01
LX51 LINKER/LOCATER V4.66.93.0                                                        06/27/2023  19:17:35  PAGE 4


0011ECH   00136EH   000183H   BYTE   UNIT     CODE           ?PR?WORKING_PUMPHEAT_RUN_TASK?WORK
00136FH   0014D4H   000166H   BYTE   UNIT     CODE           ?PR?BUZZER_RUN_TASK?BUZZER_DRV
0014D5H   00162CH   000158H   BYTE   UNIT     CODE           ?PR?NTC_RUN_TASK?NTC
00162DH   00175CH   000130H   BYTE   UNIT     CODE           ?PR?WORKING_SHOWSTATUSDOING?WORK
00175DH   001869H   00010DH   BYTE   UNIT     CODE           ?PR?__CMS_KEYSTART?CHECKTOUCHKEY_80F73XX_EMC_V1_01
00186AH   001971H   000108H   BYTE   UNIT     CODE           ?PR?__CMS_KEY_UNNOL_CHECK?CHECKTOUCHKEY_80F73XX_EMC_V1_01
001972H   001A6FH   0000FEH   BYTE   UNIT     CODE           ?PR?_SETLEDSTATUS?LED_DRV
001A70H   001B5EH   0000EFH   BYTE   UNIT     CODE           ?PR?SCANKEY_RUN_TASK?SCAN_KEY
001B5FH   001C14H   0000B6H   BYTE   UNIT     CODE           ?PR?TIMER4_IRQHANDLER?DEBUG
001C15H   001CBFH   0000ABH   BYTE   UNIT     CODE           ?PR?__CMS_KEYDATIIR?CHECKTOUCHKEY_80F73XX_EMC_V1_01
001CC0H   001D68H   0000A9H   BYTE   UNIT     CODE           ?PR?__CMS_CHECKTOUCHKEY?CHECKTOUCHKEY_80F73XX_EMC_V1_01
001D69H   001E06H   00009EH   BYTE   UNIT     CODE           ?PR?_SETBUZZERRUNTIME?BUZZER_DRV
001E07H   001EA3H   00009DH   BYTE   UNIT     CODE           ?PR?TIMER0_IRQHANDLER?SYSTIME
001EA4H   001F3FH   00009CH   BYTE   UNIT     CODE           ?PR?___CMS_KEYCLEARONE?CHECKTOUCHKEY_80F73XX_EMC_V1_01
001F40H   001FD9H   00009AH   BYTE   UNIT     CODE           ?C_C51STARTUP
001FDAH   00206EH   000095H   BYTE   UNIT     CODE           ?PR?__CMS_GETTOUCHKEYVALUE?CHECKTOUCHKEY_80F73XX_EMC_V1_01
00206FH   0020F6H   000088H   BYTE   UNIT     CODE           ?PR?_READ_ADC?GETADC
0020F7H   002176H   000080H   BYTE   UNIT     CODE           ?PR?_PWM_CONFIGCHANNELPERIOD?PWM
002177H   0021F6H   000080H   BYTE   UNIT     CODE           ?PR?_PWM_CONFIGCHANNELDUTY?PWM
0021F7H   002273H   00007DH   BYTE   UNIT     CODE           ?C_INITSEG
002274H   0022F0H   00007DH   BYTE   UNIT     CODE           ?PR?HEATER_RUN_TASK?HEATER
0022F1H   00236CH   00007CH   BYTE   UNIT     CODE           ?PR?LED_INIT?LED_DRV
00236DH   0023E2H   000076H   BYTE   UNIT     CODE           ?PR?__CMS_KEYMODESET?CHECKTOUCHKEY_80F73XX_EMC_V1_01
0023E3H   002455H   000073H   BYTE   UNIT     CODE           ?PR?_GET_NTC_AVERTEMP?NTC
002456H   0024BAH   000065H   BYTE   UNIT     CODE           ?PR?EMERGENCY_RUN_TASK?EMERGENCY
0024BBH   002516H   00005CH   BYTE   UNIT     CODE           ?PR?_PWM_CONFIGCHANNELCLK?PWM
002517H   002571H   00005BH   BYTE   UNIT     CODE           ?PR?_WORKING_MSGFUNC_KEY_POWER?WORK
002572H   0025C2H   000051H   BYTE   UNIT     CODE           ?PR?MAIN?MAIN
0025C3H   002613H   000051H   BYTE   UNIT     CODE           ?PR?WORKING_HEATTEMP_ADJUST?WORK
002614H   00265DH   00004AH   BYTE   UNIT     CODE           ?PR?_TURNLEDONOFF?LED_DRV
00265EH   0026A6H   000049H   BYTE   UNIT     CODE           ?PR?SYSTIME_CONFIG?SYSTIME
0026A7H   0026EEH   000048H   BYTE   UNIT     CODE           ?PR?WORKING_CON?WORK
0026EFH   002736H   000048H   BYTE   UNIT     CODE           ?PR?__CMS_CHECKVALIDTIME?CHECKTOUCHKEY_80F73XX_EMC_V1_01
002737H   00277BH   000045H   BYTE   UNIT     CODE           ?PR?TMR4_CONFIG?DEBUG
00277CH   0027BDH   000042H   BYTE   UNIT     CODE           ?PR?_GETWORKINGTEMPTIMEPARA?WORK
0027BEH   0027FBH   00003EH   BYTE   UNIT     CODE           ?PR?_TMR_CONFIGRUNMODE?TIMER
0027FCH   002838H   00003DH   BYTE   UNIT     CODE           ?PR?___CMS_KEYHAVEDOWN?CHECKTOUCHKEY_80F73XX_EMC_V1_01
002839H   002874H   00003CH   BYTE   UNIT     CODE           ?PR?_TMR_CONFIGTIMERCLK?TIMER
002875H   0028B0H   00003CH   BYTE   UNIT     CODE           ?PR?_SUB_GETCHECKSUM_U16?SUBPROG
0028B1H   0028EBH   00003BH   BYTE   UNIT     CODE           ?PR?CCTOUCH_IRQHANDLER?CHECKTOUCHKEY_80F73XX_EMC_V1_01
0028ECH   002925H   00003AH   BYTE   UNIT     CODE           ?PR?___CMS_KEYOPEN?CHECKTOUCHKEY_80F73XX_EMC_V1_01
002926H   00295BH   000036H   BYTE   UNIT     CODE           ?PR?EMERGENCY_TEMPHICON?EMERGENCY
00295CH   002991H   000036H   BYTE   UNIT     CODE           ?PR?INIT_RUN_TASK?INIT
002992H   0029C4H   000033H   BYTE   UNIT     CODE           ?PR?DEBUG_RUN_TASK?DEBUG
0029C5H   0029F5H   000031H   BYTE   UNIT     CODE           ?PR?_WORKING_MSGFUNC_KEY_MENU?WORK
0029F6H   002A24H   00002FH   BYTE   UNIT     CODE           ?PR?_IDLE_MSGFUNC_KEY_POWER?IDLE
002A25H   002A50H   00002CH   BYTE   UNIT     CODE           ?PR?_PWM_DISABLEDEADZONE?PWM
002A51H   002A7CH   00002CH   BYTE   UNIT     CODE           ?PR?IDLE_RUN_TASK?IDLE
002A7DH   002AA8H   00002CH   BYTE   UNIT     CODE           ?PR?INIT_CON?INIT
002AA9H   002AD0H   000028H   BYTE   UNIT     CODE           ?PR?EMERGENCY_DE?EMERGENCY
002AD1H   002AF8H   000028H   BYTE   UNIT     CODE           ?PR?_SUB_MEMSET?SUBPROG
002AF9H   002B1FH   000027H   BYTE   UNIT     CODE           ?PR?_STATIONRUN_EMERGENCY?EMERGENCY
002B20H   002B46H   000027H   BYTE   UNIT     CODE           ?PR?_STATIONRUN_IDLE?IDLE
002B47H   002B6DH   000027H   BYTE   UNIT     CODE           ?PR?_STATIONRUN_WORKING?WORK
002B6EH   002B93H   000026H   BYTE   UNIT     CODE           ?PR?IDLE_CON?IDLE
002B94H   002BB9H   000026H   BYTE   UNIT     CODE           ?PR?___CMS_KEYISIN?CHECKTOUCHKEY_80F73XX_EMC_V1_01
002BBAH   002BDEH   000025H   BYTE   UNIT     CODE           ?PR?ADC_GETADCRESULT?ADC
002BDFH   002C01H   000023H   BYTE   UNIT     CODE           ?PR?_TMR_CONFIGTIMERPERIOD?TIMER
002C02H   002C24H   000023H   BYTE   UNIT     CODE           ?PR?_STATIONRUN_COMMON?COMMON
002C25H   002C44H   000020H   BYTE   UNIT     CODE           ?PR?BUZZER_INIT?BUZZER_DRV
002C45H   002C64H   000020H   BYTE   UNIT     CODE           ?PR?__CMS_KEYSTOPCLEAR?CHECKTOUCHKEY_80F73XX_EMC_V1_01
002C65H   002C82H   00001EH   BYTE   UNIT     CODE           ?PR?HEATER_INIT?HEATER
002C83H   002C9FH   00001DH   BYTE   UNIT     CODE           ?PR?_TMR_ENABLEOVERFLOWINT?TIMER
002CA0H   002CBCH   00001DH   BYTE   UNIT     CODE           ?PR?_TMR_START?TIMER
002CBDH   002CD9H   00001DH   BYTE   UNIT     CODE           ?PR?WORKING_DE?WORK
LX51 LINKER/LOCATER V4.66.93.0                                                        06/27/2023  19:17:35  PAGE 5


002CDAH   002CF4H   00001BH   BYTE   UNIT     CODE           ?PR?SYS_DISABLESOFTWARERESET?SYSTEM
002CF5H   002D0FH   00001BH   BYTE   UNIT     CODE           ?PR?WDT_ENABLEWDTRESET?WDT
002D10H   002D2AH   00001BH   BYTE   UNIT     CODE           ?PR?WDT_CLEARWDT?WDT
002D2BH   002D43H   000019H   BYTE   UNIT     CODE           ?PR?_GET_KEY_ISRELEASE?SCAN_KEY
002D44H   002D5BH   000018H   BYTE   UNIT     CODE           ?PR?GETADC_INIT?GETADC
002D5CH   002D72H   000017H   BYTE   UNIT     CODE           ?PR?GPIOUART_INIT?DEBUG
002D73H   002D87H   000015H   BYTE   UNIT     CODE           ?PR?_EMERGENCY_MSGFUNC_KEY_POWER?EMERGENCY
002D88H   002D9AH   000013H   BYTE   UNIT     CODE           ?PR?EMERGENCY_NTCCON?EMERGENCY
002D9BH   002DABH   000011H   BYTE   UNIT     CODE           ?PR?_GPIOUART_SEND?DEBUG
002DACH   002DBCH   000011H   BYTE   UNIT     CODE           ?PR?NTC_INIT?NTC
002DBDH   002DCDH   000011H   BYTE   UNIT     CODE           ?PR?COMMON_INIT?COMMON
002DCEH   002DDDH   000010H   BYTE   UNIT     CODE           ?PR?_ADC_CONFIGRUNMODE?ADC
002DDEH   002DEDH   000010H   BYTE   UNIT     CODE           ?PR?BUZZER_CONFIG?BUZZER_DRV
002DEEH   002DFCH   00000FH   BYTE   UNIT     CODE           ?PR?KEY_INIT?SCAN_KEY
002DFDH   002E0AH   00000EH   BYTE   UNIT     CODE           ?PR?_GET_KEY_ISPRESSED?SCAN_KEY
002E0BH   002E17H   00000DH   BYTE   UNIT     CODE           ?PR?DEBUG_INIT?DEBUG
002E18H   002E23H   00000CH   BYTE   UNIT     CODE           ?PR?_PWM_DISABLEREVERSEOUTPUT?PWM
002E24H   002E2EH   00000BH   BYTE   UNIT     CODE           ?PR?_WDT_CONFIGOVERFLOWTIME?WDT
002E2FH   002E39H   00000BH   BYTE   UNIT     CODE           ?PR?WDT_CONFIG?INIT
002E3AH   002E42H   000009H   BYTE   UNIT     CODE           ?PR?_BUZ_CONFIGBUZZER?BUZZER
002E43H   002E4BH   000009H   BYTE   UNIT     CODE           ?PR?EMERGENCY_CON?EMERGENCY
002E4CH   002E54H   000009H   BYTE   UNIT     CODE           ?PR?_SETWORKMODE?STATION
002E55H   002E5BH   000007H   BYTE   UNIT     CODE           ?PR?_PWM_ENABLEAUTOLOADMODE?PWM
002E5CH   002E62H   000007H   BYTE   UNIT     CODE           ?PR?_PWM_START?PWM
002E63H   002E69H   000007H   BYTE   UNIT     CODE           ?PR?_PWM_ENABLEOUTPUT?PWM
002E6AH   002E70H   000007H   BYTE   UNIT     CODE           ?PR?_COMMON_MSGFUNC_KEY_POWER?COMMON
002E71H   002E77H   000007H   BYTE   UNIT     CODE           ?PR?_COMMON_MSGFUNC_KEY_MENU?COMMON
002E78H   002E7EH   000007H   BYTE   UNIT     CODE           ?PR?_STATIONRUN_INIT?INIT
002E7FH   002E85H   000007H   BYTE   UNIT     CODE           ?PR?RESUMEWORKMODE?STATION
002E86H   002E8CH   000007H   BYTE   UNIT     CODE           ?PR?_NULLROUTINE?STATION
002E8DH   002E92H   000006H   BYTE   UNIT     CODE           ?PR?_PWM_CONFIGRUNMODE?PWM
002E93H   002E96H   000004H   BYTE   UNIT     CODE           ?PR?ADC_START?ADC
002E97H   002E9AH   000004H   BYTE   UNIT     CODE           ?PR?WDT_DISABLEOVERFLOWINT?WDT
002E9BH   002E9EH   000004H   BYTE   UNIT     CODE           ?PR?BUZ_ENABLEBUZZER?BUZZER
002E9FH   002EA2H   000004H   BYTE   UNIT     CODE           ?PR?BUZ_DISABLEBUZZER?BUZZER
002EA3H   002EA5H   000003H   BYTE   UNIT     CODE           ?PR?_ADC_ENABLECHANNEL?ADC
002EA6H   003035H   000190H   BYTE   UNIT     CONST          ?CO?NTC
003036H   0030ADH   000078H   BYTE   UNIT     CONST          ?CO?WORK
0030AEH   0030C7H   00001AH   BYTE   UNIT     CONST          ?CO?CHECKTOUCHKEY_SET
0030C8H   0030E0H   000019H   BYTE   UNIT     CONST          ?CO?BUZZER_DRV
0030E1H   0030E6H   000006H   BYTE   UNIT     CONST          ?CO?CHECKTOUCHKEY_80F73XX_EMC_V1_01

* * * * * * * * * * *  X D A T A   M E M O R Y  * * * * * * * * * * * * *
000000H   0000CBH   0000CCH   BYTE   UNIT     XDATA          ?XD?NTC
0000CCH   0000F9H   00002EH   BYTE   UNIT     XDATA          ?XD?CHECKTOUCHKEY_SET
0000FAH   00011DH   000024H   BYTE   UNIT     XDATA          ?XD?LED_DRV
00011EH   000138H   00001BH   BYTE   UNIT     XDATA          ?XD?CHECKTOUCHKEY_80F73XX_EMC_V1_01
000139H   00013FH   000007H   BYTE   UNIT     XDATA          ?XD?WORK
000140H   000144H   000005H   BYTE   UNIT     XDATA          ?XD?BUZZER_DRV
000145H   000145H   000001H   BYTE   UNIT     XDATA          ?XD?INIT

* * * * * * * * *   R E M O V E D     S E G M E N T S   * * * * * * * *
   *DEL*:           000004H   BYTE   UNIT     CODE           ?PR?ADC_STOP?ADC
   *DEL*:           000004H   BYTE   UNIT     CODE           ?PR?ADC_ENABLEHARDWARETRIG?ADC
   *DEL*:           000004H   BYTE   UNIT     CODE           ?PR?ADC_DISABLEHARDWARETRIG?ADC
   *DEL*:           000011H   BYTE   UNIT     CODE           ?PR?_ADC_CONFIGHARDWARETRIG?ADC
   *DEL*:           00000BH   BYTE   UNIT     CODE           ?PR?_ADC_CONFIGAN63?ADC
   *DEL*:           00000BH   BYTE   UNIT     CODE           ?PR?_ADC_SETTRIGDELAYTIME?ADC
   *DEL*:           000013H   BYTE   UNIT     CODE           ?PR?_ADC_CONFIGCOMPAREVALUE?ADC
   *DEL*:           00000AH   BYTE   UNIT     CODE           ?PR?ADC_GETCMPRESULT?ADC
   *DEL*:           000004H   BYTE   UNIT     CODE           ?PR?ADC_ENABLEINT?ADC
   *DEL*:           000004H   BYTE   UNIT     CODE           ?PR?ADC_DISABLEINT?ADC
   *DEL*:           00000AH   BYTE   UNIT     CODE           ?PR?ADC_GETINTFLAG?ADC
   *DEL*:           000004H   BYTE   UNIT     CODE           ?PR?ADC_CLEARINTFLAG?ADC
   *DEL*:           000008H   BYTE   UNIT     CODE           ?PR?ADC_ENABLELDO?ADC
LX51 LINKER/LOCATER V4.66.93.0                                                        06/27/2023  19:17:35  PAGE 6


   *DEL*:           00000BH   BYTE   UNIT     CODE           ?PR?_ADC_CONFIGADCVREF?ADC
   *DEL*:           000019H   BYTE   UNIT     CODE           ?PR?FLASH_UNLOCK?FLASH
   *DEL*:           00001BH   BYTE   UNIT     CODE           ?PR?FLASH_LOCK?FLASH
   *DEL*:           000027H   BYTE   UNIT     CODE           ?PR?_FLASH_WRITE?FLASH
   *DEL*:           000028H   BYTE   UNIT     CODE           ?PR?_FLASH_READ?FLASH
   *DEL*:           000025H   BYTE   UNIT     CODE           ?PR?_FLASH_ERASE?FLASH
   *DEL*:           000060H   BYTE   UNIT     CODE           ?PR?_FLASH_CRC?FLASH
   *DEL*:           000004H   BYTE   UNIT     DATA           ?DT?_FLASH_CRC?FLASH
   *DEL*:           00001FH   BYTE   UNIT     CODE           ?PR?_GPIO_ENABLEINT?GPIO
   *DEL*:           000023H   BYTE   UNIT     CODE           ?PR?_GPIO_DISABLEINT?GPIO
   *DEL*:           000059H   BYTE   UNIT     CODE           ?PR?_GPIO_GETINTFLAG?GPIO
   *DEL*:           00004DH   BYTE   UNIT     CODE           ?PR?_GPIO_CLEARINTFLAG?GPIO
   *DEL*:           000073H   BYTE   UNIT     CODE           ?PR?_SYS_CONFIGSYSTEMCLK?SYSTEM
   *DEL*:           00001BH   BYTE   UNIT     CODE           ?PR?SYS_ENABLESOFTWARERESET?SYSTEM
   *DEL*:           00000AH   BYTE   UNIT     CODE           ?PR?SYS_GETWDTRESETFLAG?SYSTEM
   *DEL*:           00001BH   BYTE   UNIT     CODE           ?PR?SYS_CLEARWDTRESETFLAG?SYSTEM
   *DEL*:           00000AH   BYTE   UNIT     CODE           ?PR?SYS_GETPOWERONRESETFLAG?SYSTEM
   *DEL*:           000004H   BYTE   UNIT     CODE           ?PR?SYS_CLEARPOWERONRESETFLAG?SYSTEM
   *DEL*:           000004H   BYTE   UNIT     CODE           ?PR?SYS_ENABLEWAKEUP?SYSTEM
   *DEL*:           000004H   BYTE   UNIT     CODE           ?PR?SYS_DISABLEWAKEUP?SYSTEM
   *DEL*:           00000CH   BYTE   UNIT     CODE           ?PR?SYS_ENTERSTOP?SYSTEM
   *DEL*:           00000CH   BYTE   UNIT     CODE           ?PR?SYS_ENTERIDLE?SYSTEM
   *DEL*:           000008H   BYTE   UNIT     CODE           ?PR?SYS_ENABLESCM?SYSTEM
   *DEL*:           000008H   BYTE   UNIT     CODE           ?PR?SYS_DISABLESCM?SYSTEM
   *DEL*:           000008H   BYTE   UNIT     CODE           ?PR?SYS_ENABLESCMINT?SYSTEM
   *DEL*:           000008H   BYTE   UNIT     CODE           ?PR?SYS_DISABLESCMINT?SYSTEM
   *DEL*:           00000CH   BYTE   UNIT     CODE           ?PR?SYS_GETSCMINTFLAG?SYSTEM
   *DEL*:           00000CH   BYTE   UNIT     CODE           ?PR?SYS_GETSCMSTATE?SYSTEM
   *DEL*:           000008H   BYTE   UNIT     CODE           ?PR?SYS_CLEARSCMINTFLAG?SYSTEM
   *DEL*:           000008H   BYTE   UNIT     CODE           ?PR?SYS_ENABLELVD?SYSTEM
   *DEL*:           000008H   BYTE   UNIT     CODE           ?PR?SYS_DISABLELVD?SYSTEM
   *DEL*:           00000BH   BYTE   UNIT     CODE           ?PR?_SYS_CONFIGLVD?SYSTEM
   *DEL*:           000008H   BYTE   UNIT     CODE           ?PR?SYS_ENABLELVDINT?SYSTEM
   *DEL*:           000008H   BYTE   UNIT     CODE           ?PR?SYS_DISABLELVDINT?SYSTEM
   *DEL*:           00000CH   BYTE   UNIT     CODE           ?PR?SYS_GETLVDINTFLAG?SYSTEM
   *DEL*:           000008H   BYTE   UNIT     CODE           ?PR?SYS_CLEARLVDINTFLAG?SYSTEM
   *DEL*:           000013H   BYTE   UNIT     CODE           ?PR?_TMR_ENABLEGATE?TIMER
   *DEL*:           000013H   BYTE   UNIT     CODE           ?PR?_TMR_DISABLEGATE?TIMER
   *DEL*:           000044H   BYTE   UNIT     CODE           ?PR?_TMR_GETCOUNTVALUE?TIMER
   *DEL*:           00001DH   BYTE   UNIT     CODE           ?PR?_TMR_DISABLEOVERFLOWINT?TIMER
   *DEL*:           000033H   BYTE   UNIT     CODE           ?PR?_TMR_GETOVERFLOWINTFLAG?TIMER
   *DEL*:           00001DH   BYTE   UNIT     CODE           ?PR?_TMR_CLEAROVERFLOWINTFLAG?TIMER
   *DEL*:           00001DH   BYTE   UNIT     CODE           ?PR?_TMR_STOP?TIMER
   *DEL*:           000008H   BYTE   UNIT     CODE           ?PR?_TMR2_CONFIGRUNMODE?TIMER
   *DEL*:           000007H   BYTE   UNIT     CODE           ?PR?_TMR2_CONFIGTIMERCLK?TIMER
   *DEL*:           00001FH   BYTE   UNIT     CODE           ?PR?_TMR2_CONFIGTIMERPERIOD?TIMER
   *DEL*:           000004H   BYTE   UNIT     CODE           ?PR?TMR2_ENABLEGATE?TIMER
   *DEL*:           000007H   BYTE   UNIT     CODE           ?PR?TMR2_DISABLEGATE?TIMER
   *DEL*:           000041H   BYTE   UNIT     CODE           ?PR?_TMR2_ENABLECOMPARE?TIMER
   *DEL*:           000025H   BYTE   UNIT     CODE           ?PR?_TMR2_DISABLECOMPARE?TIMER
   *DEL*:           000025H   BYTE   UNIT     CODE           ?PR?_TMR2_CONFIGCOMPAREVALUE?TIMER
   *DEL*:           000007H   BYTE   UNIT     CODE           ?PR?_TMR2_CONFIGCOMPAREINTMODE?TIMER
   *DEL*:           00006BH   BYTE   UNIT     CODE           ?PR?_TMR2_ENABLECAPTURE?TIMER
   *DEL*:           000025H   BYTE   UNIT     CODE           ?PR?_TMR2_DISABLECAPTURE?TIMER
   *DEL*:           00003CH   BYTE   UNIT     CODE           ?PR?_TMR2_GETCAPTUREVALUE?TIMER
   *DEL*:           000004H   BYTE   UNIT     CODE           ?PR?TMR2_ENABLEOVERFLOWINT?TIMER
   *DEL*:           000004H   BYTE   UNIT     CODE           ?PR?TMR2_DISABLEOVERFLOWINT?TIMER
   *DEL*:           00000AH   BYTE   UNIT     CODE           ?PR?TMR2_GETOVERFLOWINTFLAG?TIMER
   *DEL*:           000004H   BYTE   UNIT     CODE           ?PR?TMR2_CLEAROVERFLOWINTFLAG?TIMER
   *DEL*:           000004H   BYTE   UNIT     CODE           ?PR?TMR2_ENABLET2EXINT?TIMER
   *DEL*:           000004H   BYTE   UNIT     CODE           ?PR?TMR2_DISABLET2EXINT?TIMER
   *DEL*:           00000AH   BYTE   UNIT     CODE           ?PR?TMR2_GETT2EXINTFLAG?TIMER
   *DEL*:           000004H   BYTE   UNIT     CODE           ?PR?TMR2_CLEART2EXINTFLAG?TIMER
   *DEL*:           00000EH   BYTE   UNIT     CODE           ?PR?_TMR2_ENABLECOMPAREINT?TIMER
   *DEL*:           00000FH   BYTE   UNIT     CODE           ?PR?_TMR2_DISABLECOMPAREINT?TIMER
LX51 LINKER/LOCATER V4.66.93.0                                                        06/27/2023  19:17:35  PAGE 7


   *DEL*:           00001CH   BYTE   UNIT     CODE           ?PR?_TMR2_GETCOMPAREINTFLAG?TIMER
   *DEL*:           00000FH   BYTE   UNIT     CODE           ?PR?_TMR2_CLEARCOMPAREINTFLAG?TIMER
   *DEL*:           00000EH   BYTE   UNIT     CODE           ?PR?_TMR2_ENABLECAPTUREINT?TIMER
   *DEL*:           00000FH   BYTE   UNIT     CODE           ?PR?_TMR2_DISABLECAPTUREINT?TIMER
   *DEL*:           00001CH   BYTE   UNIT     CODE           ?PR?_TMR2_GETCAPTUREINTFLAG?TIMER
   *DEL*:           00000FH   BYTE   UNIT     CODE           ?PR?_TMR2_CLEARCAPTUREINTFLAG?TIMER
   *DEL*:           000003H   BYTE   UNIT     CODE           ?PR?TMR2_ALLINTENABLE?TIMER
   *DEL*:           000003H   BYTE   UNIT     CODE           ?PR?TMR2_ALLINTDISABLE?TIMER
   *DEL*:           00000AH   BYTE   UNIT     CODE           ?PR?TMR2_START?TIMER
   *DEL*:           000004H   BYTE   UNIT     CODE           ?PR?TMR2_STOP?TIMER
   *DEL*:           00001BH   BYTE   UNIT     CODE           ?PR?WDT_DISABLEWDTRESET?WDT
   *DEL*:           000004H   BYTE   UNIT     CODE           ?PR?WDT_ENABLEOVERFLOWINT?WDT
   *DEL*:           00000AH   BYTE   UNIT     CODE           ?PR?WDT_GETOVERFLOWINTFLAG?WDT
   *DEL*:           00001BH   BYTE   UNIT     CODE           ?PR?WDT_CLEAROVERFLOWINTFLAG?WDT
   *DEL*:           000007H   BYTE   UNIT     CODE           ?PR?LED_ENABLEMATRIXMODE?LED
   *DEL*:           00001AH   BYTE   UNIT     CODE           ?PR?_LED_CONFIGMATRIXMODE?LED
   *DEL*:           000009H   BYTE   UNIT     CODE           ?PR?_LED_CONFIGMATRIXCLKDIV?LED
   *DEL*:           000006H   BYTE   UNIT     CODE           ?PR?_LED_CONFIGMATRIXCOMTIME?LED
   *DEL*:           000008H   BYTE   UNIT     CODE           ?PR?LED_STARTMATRIX?LED
   *DEL*:           000008H   BYTE   UNIT     CODE           ?PR?LED_STOPMATRIX?LED
   *DEL*:           000007H   BYTE   UNIT     CODE           ?PR?LED_ENABLELATTICEMODE?LED
   *DEL*:           00001BH   BYTE   UNIT     CODE           ?PR?_LED_CONFIGLATTICEMODE?LED
   *DEL*:           000009H   BYTE   UNIT     CODE           ?PR?_LED_CONFIGLATTICECLKDIV?LED
   *DEL*:           00000BH   BYTE   UNIT     CODE           ?PR?_LED_CONFIGLATTICEPERIOD1?LED
   *DEL*:           00000BH   BYTE   UNIT     CODE           ?PR?_LED_CONFIGLATTICEPERIOD2?LED
   *DEL*:           000008H   BYTE   UNIT     CODE           ?PR?LED_STARTLATTICE?LED
   *DEL*:           000008H   BYTE   UNIT     CODE           ?PR?LED_STOPLATTICE?LED
   *DEL*:           00000CH   BYTE   UNIT     CODE           ?PR?LED_RESTARTLATTICE?LED
   *DEL*:           000008H   BYTE   UNIT     CODE           ?PR?LED_ENABLEINT?LED
   *DEL*:           000008H   BYTE   UNIT     CODE           ?PR?LED_DISABLEINT?LED
   *DEL*:           00000CH   BYTE   UNIT     CODE           ?PR?LED_GETINTFLAG?LED
   *DEL*:           000008H   BYTE   UNIT     CODE           ?PR?LED_CLEARINTFLAG?LED
   *DEL*:           000006H   BYTE   UNIT     CODE           ?PR?_CRC_INPUTDATA?CRC
   *DEL*:           00000DH   BYTE   UNIT     CODE           ?PR?CRC_OUTPUT?CRC
   *DEL*:           000031H   BYTE   UNIT     CODE           ?PR?_EXTINT_CONFIGINT?EXTINT
   *DEL*:           000011H   BYTE   UNIT     CODE           ?PR?_EXTINT_ENABLEINT?EXTINT
   *DEL*:           000011H   BYTE   UNIT     CODE           ?PR?_EXTINT_DISABLEINT?EXTINT
   *DEL*:           000025H   BYTE   UNIT     CODE           ?PR?_EXTINT_GETINTFLAG?EXTINT
   *DEL*:           000011H   BYTE   UNIT     CODE           ?PR?_EXTINT_CLEARINTFLAG?EXTINT
   *DEL*:           000003H   BYTE   UNIT     CODE           ?PR?_I2C_CONFIGCLK?I2C
   *DEL*:           000006H   BYTE   UNIT     CODE           ?PR?I2C_ENABLEMASTERMODE?I2C
   *DEL*:           000001H   BYTE   UNIT     CODE           ?PR?I2C_DISABLEMASTERMODE?I2C
   *DEL*:           00000AH   BYTE   UNIT     CODE           ?PR?I2C_GETMASTERSENDADDRFLAG?I2C
   *DEL*:           00000AH   BYTE   UNIT     CODE           ?PR?I2C_GETBUSARBITRATIONFLAG?I2C
   *DEL*:           00000AH   BYTE   UNIT     CODE           ?PR?I2C_GETMASTERERRORFLAG?I2C
   *DEL*:           00000AH   BYTE   UNIT     CODE           ?PR?I2C_GETMASTERBUSYFLAG?I2C
   *DEL*:           00000AH   BYTE   UNIT     CODE           ?PR?I2C_GETI2CBUSBUSYFLAG?I2C
   *DEL*:           00000AH   BYTE   UNIT     CODE           ?PR?I2C_GETMASTERIDLEFLAG?I2C
   *DEL*:           000004H   BYTE   UNIT     CODE           ?PR?I2C_ENABLEINT?I2C
   *DEL*:           000004H   BYTE   UNIT     CODE           ?PR?I2C_DISABLEINT?I2C
   *DEL*:           00000AH   BYTE   UNIT     CODE           ?PR?I2C_GETMASTERINTFLAG?I2C
   *DEL*:           000004H   BYTE   UNIT     CODE           ?PR?I2C_CLEARMASTERINTFLAG?I2C
   *DEL*:           000008H   BYTE   UNIT     CODE           ?PR?LSE_ENABLELSE?LSE
   *DEL*:           000008H   BYTE   UNIT     CODE           ?PR?LSE_DISABLELSE?LSE
   *DEL*:           000008H   BYTE   UNIT     CODE           ?PR?LSE_START?LSE
   *DEL*:           000008H   BYTE   UNIT     CODE           ?PR?LSE_STOP?LSE
   *DEL*:           00000DH   BYTE   UNIT     CODE           ?PR?_LSE_CONFIGLSE?LSE
   *DEL*:           000008H   BYTE   UNIT     CODE           ?PR?LSE_ENABLELSEWAKEUP?LSE
   *DEL*:           000008H   BYTE   UNIT     CODE           ?PR?LSE_DISABLELSEWAKEUP?LSE
   *DEL*:           000008H   BYTE   UNIT     CODE           ?PR?LSE_ENABLELSEINT?LSE
   *DEL*:           000008H   BYTE   UNIT     CODE           ?PR?LSE_DISABLELSEINT?LSE
   *DEL*:           00000CH   BYTE   UNIT     CODE           ?PR?LSE_GETLSEINTFLAG?LSE
   *DEL*:           000008H   BYTE   UNIT     CODE           ?PR?LSE_CLEARLSEINTFLAG?LSE
   *DEL*:           00000CH   BYTE   UNIT     CODE           ?PR?LSE_GETLSESTATE?LSE
   *DEL*:           00000CH   BYTE   UNIT     CODE           ?PR?_PWM_ENABLEONESHOTMODE?PWM
LX51 LINKER/LOCATER V4.66.93.0                                                        06/27/2023  19:17:35  PAGE 8


   *DEL*:           000011H   BYTE   UNIT     CODE           ?PR?PWM_ENABLESYNCOUNT?PWM
   *DEL*:           00000CH   BYTE   UNIT     CODE           ?PR?_PWM_STOP?PWM
   *DEL*:           00000CH   BYTE   UNIT     CODE           ?PR?_PWM_DISABLEOUTPUT?PWM
   *DEL*:           000039H   BYTE   UNIT     CODE           ?PR?_PWM_ENABLEDEADZONE?PWM
   *DEL*:           000007H   BYTE   UNIT     CODE           ?PR?_PWM_ENABLEDOWNCMPINT?PWM
   *DEL*:           00000CH   BYTE   UNIT     CODE           ?PR?_PWM_DISABLEDOWNCMPINT?PWM
   *DEL*:           00001FH   BYTE   UNIT     CODE           ?PR?_PWM_GETDOWNCMPINTFLAG?PWM
   *DEL*:           000011H   BYTE   UNIT     CODE           ?PR?_PWM_CLEARDOWNCMPINTFLAG?PWM
   *DEL*:           000007H   BYTE   UNIT     CODE           ?PR?_PWM_ENABLEZEROINT?PWM
   *DEL*:           00000CH   BYTE   UNIT     CODE           ?PR?_PWM_DISABLEZEROINT?PWM
   *DEL*:           000011H   BYTE   UNIT     CODE           ?PR?_PWM_CLEARZEROINTFLAG?PWM
   *DEL*:           00001FH   BYTE   UNIT     CODE           ?PR?_PWM_GETZEROINTFLAG?PWM
   *DEL*:           000007H   BYTE   UNIT     CODE           ?PR?_PWM_ENABLEREVERSEOUTPUT?PWM
   *DEL*:           000004H   BYTE   UNIT     CODE           ?PR?PWM_ALLINTENABLE?PWM
   *DEL*:           000004H   BYTE   UNIT     CODE           ?PR?PWM_ALLINTDISABLE?PWM
   *DEL*:           000004H   BYTE   UNIT     CODE           ?PR?SPI_START?SPI
   *DEL*:           000004H   BYTE   UNIT     CODE           ?PR?SPI_STOP?SPI
   *DEL*:           000007H   BYTE   UNIT     CODE           ?PR?_SPI_CONFIGCLK?SPI
   *DEL*:           00000EH   BYTE   UNIT     CODE           ?PR?_SPI_CONFIGRUNMODE?SPI
   *DEL*:           000004H   BYTE   UNIT     CODE           ?PR?SPI_ENABLEMASTERMODE?SPI
   *DEL*:           000004H   BYTE   UNIT     CODE           ?PR?SPI_DISABLEMASTERMODE?SPI
   *DEL*:           000004H   BYTE   UNIT     CODE           ?PR?SPI_ENABLESLAVEMODE?SPI
   *DEL*:           000004H   BYTE   UNIT     CODE           ?PR?SPI_DISABLESLAVEMODE?SPI
   *DEL*:           00000AH   BYTE   UNIT     CODE           ?PR?SPI_GETTRANSFERINTFLAG?SPI
   *DEL*:           000005H   BYTE   UNIT     CODE           ?PR?SPI_CLEARTRANSFERINTFLAG?SPI
   *DEL*:           00000AH   BYTE   UNIT     CODE           ?PR?SPI_GETWRITEERRORINTFLAG?SPI
   *DEL*:           000005H   BYTE   UNIT     CODE           ?PR?SPI_CLEARWRITEERRORINTFLAG?SPI
   *DEL*:           000004H   BYTE   UNIT     CODE           ?PR?SPI_ENABLEINTFLAG?SPI
   *DEL*:           000004H   BYTE   UNIT     CODE           ?PR?SPI_DISABLEINTFLAG?SPI
   *DEL*:           00002EH   BYTE   UNIT     CODE           ?PR?_UART_CONFIGRUNMODE?UART
   *DEL*:           000013H   BYTE   UNIT     CODE           ?PR?_UART_ENABLEDOUBLEFREQUENCY?UART
   *DEL*:           000013H   BYTE   UNIT     CODE           ?PR?_UART_DISABLEDOUBLEFREQUENCY?UART
   *DEL*:           00000CH   BYTE   UNIT     CODE           ?PR?_UART_CONFIGBAUDRATE?UART
   *DEL*:           000005H   BYTE   UNIT     DATA           ?DT?_UART_CONFIGBAUDRATE?UART
   *DEL*:           000013H   BYTE   UNIT     CODE           ?PR?_UART_ENABLERECEIVE?UART
   *DEL*:           000013H   BYTE   UNIT     CODE           ?PR?_UART_DISABLERECEIVE?UART
   *DEL*:           000011H   BYTE   UNIT     CODE           ?PR?_UART_ENABLEINT?UART
   *DEL*:           000011H   BYTE   UNIT     CODE           ?PR?_UART_DISABLEINT?UART
   *DEL*:           000027H   BYTE   UNIT     CODE           ?PR?_UART_GETRECEIVEINTFLAG?UART
   *DEL*:           000021H   BYTE   UNIT     CODE           ?PR?_UART_CLEARRECEIVEINTFLAG?UART
   *DEL*:           000027H   BYTE   UNIT     CODE           ?PR?_UART_GETSENDINTFLAG?UART
   *DEL*:           000021H   BYTE   UNIT     CODE           ?PR?_UART_CLEARSENDINTFLAG?UART
   *DEL*:           000015H   BYTE   UNIT     CODE           ?PR?_UART_GETBUFF?UART
   *DEL*:           000011H   BYTE   UNIT     CODE           ?PR?_UART_SENDBUFF?UART
   *DEL*:           000022H   BYTE   UNIT     CODE           ?PR?_UART_SENDNINTHBIT?UART
   *DEL*:           000027H   BYTE   UNIT     CODE           ?PR?_UART_GETNINTHBIT?UART
   *DEL*:           000008H   BYTE   UNIT     CODE           ?PR?UART_ENABLEBRT?UART
   *DEL*:           00000BH   BYTE   UNIT     CODE           ?PR?_UART_CONFIGBRTCLK?UART
   *DEL*:           000009H   BYTE   UNIT     CODE           ?PR?_UART_CONFIGBRTPERIOD?UART
   *DEL*:           000008H   BYTE   UNIT     CODE           ?PR?UART_DISABLEBRT?UART
   *DEL*:           000004H   BYTE   UNIT     CODE           ?PR?WUT_ENABLEWUTWAKEUP?WUT
   *DEL*:           000004H   BYTE   UNIT     CODE           ?PR?WUT_DISABLEWUTWAKEUP?WUT
   *DEL*:           00000EH   BYTE   UNIT     CODE           ?PR?_WUT_CONFIGCLK?WUT
   *DEL*:           000011H   BYTE   UNIT     CODE           ?PR?_WUT_CONFIGTIME?WUT
   *DEL*:           00000AH   BYTE   UNIT     CODE           ?PR?WUT_GETOVERFLOWFLAG?WUT
   *DEL*:           000004H   BYTE   UNIT     CODE           ?PR?WUT_CLEAROVERFLOWFLAG?WUT
   *DEL*:           00009BH   BYTE   UNIT     CODE           ?PR?REL_SENDERLOOP0?REL_PROTOCOL
   *DEL*:           00000EH   BYTE   UNIT     DATA           ?DT?REL_SENDERLOOP0?REL_PROTOCOL
   *DEL*:           000005H   BYTE   UNIT     CODE           ?PR?GPIOUART_RECV?DEBUG
   *DEL*:           000005H   BYTE   UNIT     CODE           ?PR?_SETDEBUGTIMERCNT?DEBUG
   *DEL*:           000002H   BYTE   UNIT     DATA           ?DT?_SETDEBUGTIMERCNT?DEBUG
   *DEL*:           000001H   BYTE   UNIT     CODE           ?PR?MEMORY_INIT?EEPROM
   *DEL*:           000047H   BYTE   UNIT     CODE           ?PR?_MEMORY_WRITE?EEPROM
   *DEL*:           000007H   BYTE   UNIT     DATA           ?DT?_MEMORY_WRITE?EEPROM
   *DEL*:           00003EH   BYTE   UNIT     CODE           ?PR?_MEMORY_READ?EEPROM
LX51 LINKER/LOCATER V4.66.93.0                                                        06/27/2023  19:17:35  PAGE 9


   *DEL*:           000007H   BYTE   UNIT     DATA           ?DT?_MEMORY_READ?EEPROM
   *DEL*:           000001H   BYTE   UNIT     CODE           ?PR?COMMON_RUN_TASK?COMMON
   *DEL*:           000034H   BYTE   UNIT     CODE           ?PR?_SUB_MEMCPY?SUBPROG
   *DEL*:           000008H   BYTE   UNIT     DATA           ?DT?_SUB_MEMCPY?SUBPROG
   *DEL*:           000033H   BYTE   UNIT     CODE           ?PR?_SUB_GETCHECKSUM?SUBPROG
   *DEL*:           000006H   BYTE   UNIT     DATA           ?DT?_SUB_GETCHECKSUM?SUBPROG
   *DEL*:           00005FH   BYTE   UNIT     CODE           ?PR?_SUB_GETAVERAGEV?SUBPROG
   *DEL*:           000009H   BYTE   UNIT     DATA           ?DT?_SUB_GETAVERAGEV?SUBPROG
   *DEL*:           000009H   BYTE   UNIT     CODE           ?PR?_SWAPBIGLITTLE?SUBPROG
   *DEL*:           000042H   BYTE   UNIT     CODE           ?PR?_SUB_ATOI?SUBPROG
   *DEL*:           000003H   BYTE   UNIT     DATA           ?DT?_SUB_ATOI?SUBPROG
   *DEL*:           000121H   BYTE   UNIT     CODE           ?PR?_SUB_ITOS?SUBPROG
   *DEL*:           00000DH   BYTE   UNIT     DATA           ?DT?_SUB_ITOS?SUBPROG
   *DEL*:           00001CH   BYTE   UNIT     CODE           ?PR?_SUB_STRLEN?SUBPROG
   *DEL*:           000003H   BYTE   UNIT     DATA           ?DT?_SUB_STRLEN?SUBPROG
   *DEL*:           000049H   BYTE   UNIT     CODE           ?PR?_SUB_STRCPY?SUBPROG
   *DEL*:           000006H   BYTE   UNIT     DATA           ?DT?_SUB_STRCPY?SUBPROG
   *DEL*:           000040H   BYTE   UNIT     CODE           ?PR?_SUB_NSTRCPY?SUBPROG
   *DEL*:           000007H   BYTE   UNIT     DATA           ?DT?_SUB_NSTRCPY?SUBPROG
   *DEL*:           00004DH   BYTE   UNIT     CODE           ?PR?_SUB_STRCAT?SUBPROG
   *DEL*:           000006H   BYTE   UNIT     DATA           ?DT?_SUB_STRCAT?SUBPROG
   *DEL*:           000085H   BYTE   UNIT     CODE           ?PR?_SUB_STRCMP?SUBPROG
   *DEL*:           000006H   BYTE   UNIT     DATA           ?DT?_SUB_STRCMP?SUBPROG
   *DEL*:           000019H   BYTE   UNIT     CODE           ?PR?_SUB_STRCHR?SUBPROG
   *DEL*:           000087H   BYTE   UNIT     CODE           ?PR?_SUB_STRSTR?SUBPROG
   *DEL*:           00000CH   BYTE   UNIT     DATA           ?DT?_SUB_STRSTR?SUBPROG
   *DEL*:           000007H   BYTE   UNIT     CODE           ?PR?_CM_DELAY?CHECKTOUCHKEY_80F73XX_EMC_V1_01



OVERLAY MAP OF MODULE:   ..\OBJ\VK-7201A (?C_STARTUP)


FUNCTION/MODULE                                BIT_GROUP   DATA_GROUP 
--> CALLED FUNCTION/MODULE                    START  STOP  START  STOP
======================================================================
?C_C51STARTUP                                 ----- -----  ----- -----
  +--> MAIN/MAIN
  +--> ?C_INITSEG

MAIN/MAIN                                     ----- -----  ----- -----
  +--> INIT_CON/INIT
  +--> WDT_ENABLEWDTRESET/WDT
  +--> SCANKEY_RUN_TASK/SCAN_KEY
  +--> BUZZER_RUN_TASK/BUZZER_DRV
  +--> WORKING_PUMPHEAT_RUN_TASK/WORK
  +--> NTC_RUN_TASK/NTC
  +--> LEDSHOW_RUN_TASK/LED_DRV
  +--> HEATER_RUN_TASK/HEATER
  +--> WORKING_RUN_TASK/WORK
  +--> DEBUG_RUN_TASK/DEBUG
  +--> WDT_CLEARWDT/WDT
  +--> INIT_RUN_TASK/INIT
  +--> IDLE_RUN_TASK/IDLE
  +--> EMERGENCY_RUN_TASK/EMERGENCY

INIT_CON/INIT                                 ----- -----  ----- -----
  +--> SYS_DISABLESOFTWARERESET/SYSTEM
  +--> SYSTIME_CONFIG/SYSTIME
  +--> DEBUG_INIT/DEBUG
  +--> LED_INIT/LED_DRV
  +--> KEY_INIT/SCAN_KEY
  +--> NTC_INIT/NTC
  +--> HEATER_INIT/HEATER
  +--> BUZZER_INIT/BUZZER_DRV
LX51 LINKER/LOCATER V4.66.93.0                                                        06/27/2023  19:17:35  PAGE 10


  +--> COMMON_INIT/COMMON
  +--> WDT_CONFIG/INIT
  +--> _SETBUZZERRUNTIME/BUZZER_DRV
  +--> _SETWORKMODE/STATION

SYS_DISABLESOFTWARERESET/SYSTEM               ----- -----  ----- -----

SYSTIME_CONFIG/SYSTIME                        ----- -----  ----- -----
  +--> _TMR_CONFIGRUNMODE/TIMER
  +--> _TMR_CONFIGTIMERCLK/TIMER
  +--> _TMR_CONFIGTIMERPERIOD/TIMER
  +--> _TMR_ENABLEOVERFLOWINT/TIMER
  +--> _TMR_START/TIMER

_TMR_CONFIGRUNMODE/TIMER                      ----- -----  ----- -----

_TMR_CONFIGTIMERCLK/TIMER                     ----- -----  ----- -----

_TMR_CONFIGTIMERPERIOD/TIMER                  ----- -----  ----- -----

_TMR_ENABLEOVERFLOWINT/TIMER                  ----- -----  ----- -----

_TMR_START/TIMER                              ----- -----  ----- -----

DEBUG_INIT/DEBUG                              ----- -----  ----- -----
  +--> GPIOUART_INIT/DEBUG

GPIOUART_INIT/DEBUG                           ----- -----  ----- -----
  +--> TMR4_CONFIG/DEBUG

TMR4_CONFIG/DEBUG                             ----- -----  ----- -----
  +--> _TMR_CONFIGRUNMODE/TIMER
  +--> _TMR_CONFIGTIMERCLK/TIMER
  +--> _TMR_CONFIGTIMERPERIOD/TIMER
  +--> _TMR_ENABLEOVERFLOWINT/TIMER
  +--> _TMR_START/TIMER

LED_INIT/LED_DRV                              ----- -----  0008H 0008H
  +--> _PWM_CONFIGRUNMODE/PWM
  +--> _PWM_CONFIGCHANNELCLK/PWM
  +--> _PWM_CONFIGCHANNELPERIOD/PWM
  +--> _PWM_CONFIGCHANNELDUTY/PWM
  +--> _PWM_ENABLEAUTOLOADMODE/PWM
  +--> _PWM_DISABLEREVERSEOUTPUT/PWM
  +--> _PWM_ENABLEOUTPUT/PWM
  +--> _PWM_DISABLEDEADZONE/PWM
  +--> _PWM_START/PWM
  +--> _SETLEDSTATUS/LED_DRV

_PWM_CONFIGRUNMODE/PWM                        ----- -----  ----- -----

_PWM_CONFIGCHANNELCLK/PWM                     ----- -----  ----- -----

_PWM_CONFIGCHANNELPERIOD/PWM                  ----- -----  ----- -----

_PWM_CONFIGCHANNELDUTY/PWM                    ----- -----  ----- -----

_PWM_ENABLEAUTOLOADMODE/PWM                   ----- -----  ----- -----

_PWM_DISABLEREVERSEOUTPUT/PWM                 ----- -----  ----- -----

_PWM_ENABLEOUTPUT/PWM                         ----- -----  ----- -----

_PWM_DISABLEDEADZONE/PWM                      ----- -----  ----- -----

LX51 LINKER/LOCATER V4.66.93.0                                                        06/27/2023  19:17:35  PAGE 11


_PWM_START/PWM                                ----- -----  ----- -----

_SETLEDSTATUS/LED_DRV                         ----- -----  ----- -----

KEY_INIT/SCAN_KEY                             ----- -----  ----- -----

NTC_INIT/NTC                                  ----- -----  ----- -----
  +--> GETADC_INIT/GETADC

GETADC_INIT/GETADC                            ----- -----  ----- -----
  +--> _ADC_CONFIGRUNMODE/ADC
  +--> ADC_DISABLELDO/ADC
  +--> _ADC_ENABLECHANNEL/ADC
  +--> ADC_START/ADC

_ADC_CONFIGRUNMODE/ADC                        ----- -----  ----- -----

ADC_DISABLELDO/ADC                            ----- -----  ----- -----

_ADC_ENABLECHANNEL/ADC                        ----- -----  ----- -----

ADC_START/ADC                                 ----- -----  ----- -----

HEATER_INIT/HEATER                            ----- -----  ----- -----

BUZZER_INIT/BUZZER_DRV                        ----- -----  ----- -----
  +--> BUZZER_CONFIG/BUZZER_DRV
  +--> BUZ_DISABLEBUZZER/BUZZER

BUZZER_CONFIG/BUZZER_DRV                      ----- -----  ----- -----
  +--> _BUZ_CONFIGBUZZER/BUZZER
  +--> BUZ_DISABLEBUZZER/BUZZER

_BUZ_CONFIGBUZZER/BUZZER                      ----- -----  ----- -----

BUZ_DISABLEBUZZER/BUZZER                      ----- -----  ----- -----

COMMON_INIT/COMMON                            ----- -----  ----- -----
  +--> _SUB_MEMSET/SUBPROG

_SUB_MEMSET/SUBPROG                           ----- -----  0010H 0015H

WDT_CONFIG/INIT                               ----- -----  ----- -----
  +--> _WDT_CONFIGOVERFLOWTIME/WDT
  +--> WDT_DISABLEOVERFLOWINT/WDT
  +--> WDT_ENABLEWDTRESET/WDT

_WDT_CONFIGOVERFLOWTIME/WDT                   ----- -----  ----- -----

WDT_DISABLEOVERFLOWINT/WDT                    ----- -----  ----- -----

WDT_ENABLEWDTRESET/WDT                        ----- -----  ----- -----

_SETBUZZERRUNTIME/BUZZER_DRV                  ----- -----  000FH 0010H
  +--> _BUZ_CONFIGBUZZER/BUZZER
  +--> BUZ_ENABLEBUZZER/BUZZER
  +--> BUZ_DISABLEBUZZER/BUZZER

BUZ_ENABLEBUZZER/BUZZER                       ----- -----  ----- -----

_SETWORKMODE/STATION                          ----- -----  ----- -----

SCANKEY_RUN_TASK/SCAN_KEY                     ----- -----  ----- -----
  +--> __CMS_CHECKTOUCHKEY/CHECKTOUCHKEY_80F73XX_EMC_V1_01
  +--> _STATIONRUN/STATION
LX51 LINKER/LOCATER V4.66.93.0                                                        06/27/2023  19:17:35  PAGE 12



__CMS_CHECKTOUCHKEY/CHECKTOUCHKEY_80F73X+     ----- -----  0008H 0008H
... X_EMC_V1_01
  +--> __CMS_KEYMODESET/CHECKTOUCHKEY_80F73XX_EMC_V1_01
  +--> __CMS_KEYSTART/CHECKTOUCHKEY_80F73XX_EMC_V1_01
  +--> __CMS_KEYDATIIR/CHECKTOUCHKEY_80F73XX_EMC_V1_01
  +--> __CMS_CHECKKEYOLDVALUE/CHECKTOUCHKEY_80F73XX_EMC_V1_01
  +--> __CMS_NOISE_CHECK/CHECKTOUCHKEY_80F73XX_EMC_V1_01
  +--> __CMS_CHECKONCERESULT/CHECKTOUCHKEY_80F73XX_EMC_V1_01
  +--> __CMS_KEYSTOPCLEAR/CHECKTOUCHKEY_80F73XX_EMC_V1_01
  +--> __CMS_KEY_UNNOL_CHECK/CHECKTOUCHKEY_80F73XX_EMC_V1_01
  +--> __CMS_CURADJUST/CHECKTOUCHKEY_80F73XX_EMC_V1_01
  +--> __CMS_CHECKVALIDTIME/CHECKTOUCHKEY_80F73XX_EMC_V1_01

__CMS_KEYMODESET/CHECKTOUCHKEY_80F73XX_E+     ----- -----  ----- -----
... MC_V1_01

__CMS_KEYSTART/CHECKTOUCHKEY_80F73XX_EMC+     ----- -----  ----- -----
... _V1_01

__CMS_KEYDATIIR/CHECKTOUCHKEY_80F73XX_EM+     ----- -----  0009H 000CH
... C_V1_01

__CMS_CHECKKEYOLDVALUE/CHECKTOUCHKEY_80F+     ----- -----  0009H 0017H
... 73XX_EMC_V1_01
  +--> ___CMS_KEYISIN/CHECKTOUCHKEY_80F73XX_EMC_V1_01

___CMS_KEYISIN/CHECKTOUCHKEY_80F73XX_EMC+     ----- -----  ----- -----
... _V1_01

__CMS_NOISE_CHECK/CHECKTOUCHKEY_80F73XX_+     ----- -----  0009H 000FH
... EMC_V1_01

__CMS_CHECKONCERESULT/CHECKTOUCHKEY_80F7+     ----- -----  0009H 001AH
... 3XX_EMC_V1_01
  +--> ___CMS_KEYISIN/CHECKTOUCHKEY_80F73XX_EMC_V1_01
  +--> ___CMS_KEYHAVEDOWN/CHECKTOUCHKEY_80F73XX_EMC_V1_01
  +--> ___CMS_KEYOPEN/CHECKTOUCHKEY_80F73XX_EMC_V1_01

___CMS_KEYHAVEDOWN/CHECKTOUCHKEY_80F73XX+     ----- -----  001BH 001BH
... _EMC_V1_01

___CMS_KEYOPEN/CHECKTOUCHKEY_80F73XX_EMC+     ----- -----  001BH 001BH
... _V1_01

__CMS_KEYSTOPCLEAR/CHECKTOUCHKEY_80F73XX+     ----- -----  ----- -----
... _EMC_V1_01
  +--> ___CMS_KEYCLEARONE/CHECKTOUCHKEY_80F73XX_EMC_V1_01

___CMS_KEYCLEARONE/CHECKTOUCHKEY_80F73XX+     ----- -----  ----- -----
... _EMC_V1_01

__CMS_KEY_UNNOL_CHECK/CHECKTOUCHKEY_80F7+     ----- -----  ----- -----
... 3XX_EMC_V1_01

__CMS_CURADJUST/CHECKTOUCHKEY_80F73XX_EM+     ----- -----  0009H 0009H
... C_V1_01
  +--> ___CMS_CURADJUSTDL/CHECKTOUCHKEY_80F73XX_EMC_V1_01

___CMS_CURADJUSTDL/CHECKTOUCHKEY_80F73XX+     ----- -----  000AH 0015H
... _EMC_V1_01

__CMS_CHECKVALIDTIME/CHECKTOUCHKEY_80F73+     ----- -----  ----- -----
... XX_EMC_V1_01

LX51 LINKER/LOCATER V4.66.93.0                                                        06/27/2023  19:17:35  PAGE 13


_STATIONRUN/STATION                           ----- -----  0008H 000AH
  +--> _STATIONRUN_INIT/INIT
  +--> _STATIONRUN_IDLE/IDLE
  +--> _STATIONRUN_WORKING/WORK
  +--> _STATIONRUN_EMERGENCY/EMERGENCY
  +--> _STATIONRUN_COMMON/COMMON

_STATIONRUN_INIT/INIT                         ----- -----  000BH 000CH

_STATIONRUN_IDLE/IDLE                         ----- -----  000BH 000CH
  +--> _IDLE_MSGFUNC_KEY_POWER/IDLE
  +--> _NULLROUTINE/STATION

_IDLE_MSGFUNC_KEY_POWER/IDLE                  ----- -----  000DH 000EH
  +--> _GET_KEY_ISRELEASE/SCAN_KEY
  +--> _SETBUZZERRUNTIME/BUZZER_DRV
  +--> IDLE_DE/IDLE
  +--> WORKING_CON/WORK
  +--> _GET_KEY_ISPRESSED/SCAN_KEY

_GET_KEY_ISRELEASE/SCAN_KEY                   ----- -----  ----- -----

IDLE_DE/IDLE                                  ----- -----  ----- -----

WORKING_CON/WORK                              ----- -----  ----- -----
  +--> _SETLEDSTATUS/LED_DRV
  +--> _GETWORKINGTEMPTIMEPARA/WORK
  +--> _SETWORKMODE/STATION

_GETWORKINGTEMPTIMEPARA/WORK                  ----- -----  ----- -----

_GET_KEY_ISPRESSED/SCAN_KEY                   ----- -----  ----- -----

_NULLROUTINE/STATION                          ----- -----  000DH 000EH

_STATIONRUN_WORKING/WORK                      ----- -----  000BH 000CH
  +--> _WORKING_MSGFUNC_KEY_POWER/WORK
  +--> _WORKING_MSGFUNC_KEY_MENU/WORK

_WORKING_MSGFUNC_KEY_POWER/WORK               ----- -----  000DH 000EH
  +--> _GET_KEY_ISRELEASE/SCAN_KEY
  +--> _SETBUZZERRUNTIME/BUZZER_DRV
  +--> _GETWORKINGTEMPTIMEPARA/WORK
  +--> _GET_KEY_ISPRESSED/SCAN_KEY
  +--> WORKING_DE/WORK
  +--> IDLE_CON/IDLE

WORKING_DE/WORK                               ----- -----  ----- -----
  +--> _SUB_MEMSET/SUBPROG

IDLE_CON/IDLE                                 ----- -----  000FH 000FH
  +--> HEATER_INIT/HEATER
  +--> _SETLEDSTATUS/LED_DRV
  +--> _SETWORKMODE/STATION

_WORKING_MSGFUNC_KEY_MENU/WORK                ----- -----  ----- -----
  +--> _GET_KEY_ISRELEASE/SCAN_KEY
  +--> _SETBUZZERRUNTIME/BUZZER_DRV

_STATIONRUN_EMERGENCY/EMERGENCY               ----- -----  000BH 000CH
  +--> _EMERGENCY_MSGFUNC_KEY_POWER/EMERGENCY
  +--> _NULLROUTINE/STATION

_EMERGENCY_MSGFUNC_KEY_POWER/EMERGENCY        ----- -----  ----- -----
  +--> _GET_KEY_ISRELEASE/SCAN_KEY
LX51 LINKER/LOCATER V4.66.93.0                                                        06/27/2023  19:17:35  PAGE 14


  +--> _SETBUZZERRUNTIME/BUZZER_DRV
  +--> EMERGENCY_DE/EMERGENCY
  +--> IDLE_CON/IDLE

EMERGENCY_DE/EMERGENCY                        ----- -----  000DH 000DH
  +--> _SETLEDSTATUS/LED_DRV

_STATIONRUN_COMMON/COMMON                     ----- -----  ----- -----
  +--> _COMMON_MSGFUNC_KEY_POWER/COMMON
  +--> _COMMON_MSGFUNC_KEY_MENU/COMMON

_COMMON_MSGFUNC_KEY_POWER/COMMON              ----- -----  000BH 000CH

_COMMON_MSGFUNC_KEY_MENU/COMMON               ----- -----  000BH 000CH

BUZZER_RUN_TASK/BUZZER_DRV                    ----- -----  ----- -----
  +--> _BUZ_CONFIGBUZZER/BUZZER
  +--> BUZ_DISABLEBUZZER/BUZZER
  +--> BUZ_ENABLEBUZZER/BUZZER

WORKING_PUMPHEAT_RUN_TASK/WORK                ----- -----  ----- -----
  +--> WORKING_SHOWSTATUSDOING/WORK
  +--> WORKING_HEATTEMP_ADJUST/WORK
  +--> _GETWORKINGTEMPTIMEPARA/WORK
  +--> _SETBUZZERRUNTIME/BUZZER_DRV

WORKING_SHOWSTATUSDOING/WORK                  ----- -----  ----- -----
  +--> _SETLEDSTATUS/LED_DRV

WORKING_HEATTEMP_ADJUST/WORK                  ----- -----  ----- -----

NTC_RUN_TASK/NTC                              ----- -----  0008H 000EH
  +--> _READ_ADC/GETADC
  +--> _GET_NTC_AVERTEMP/NTC

_READ_ADC/GETADC                              ----- -----  000FH 0015H
  +--> _ADC_ENABLECHANNEL/ADC
  +--> ADC_GETADCRESULT/ADC

ADC_GETADCRESULT/ADC                          ----- -----  ----- -----

_GET_NTC_AVERTEMP/NTC                         ----- -----  000FH 000FH
  +--> _SUB_MEMSET/SUBPROG
  +--> _SUB_GETCHECKSUM_U16/SUBPROG

_SUB_GETCHECKSUM_U16/SUBPROG                  ----- -----  0010H 0016H

LEDSHOW_RUN_TASK/LED_DRV                      ----- -----  0008H 0008H
  +--> _TURNLEDONOFF/LED_DRV
  +--> _SETLEDSTATUS/LED_DRV
  +--> _PWM_CONFIGCHANNELDUTY/PWM
  +--> UPDATE_LED_SHOW/LED_DRV

_TURNLEDONOFF/LED_DRV                         ----- -----  ----- -----

UPDATE_LED_SHOW/LED_DRV                       ----- -----  ----- -----

HEATER_RUN_TASK/HEATER                        ----- -----  ----- -----

WORKING_RUN_TASK/WORK                         ----- -----  ----- -----
  +--> WORKING_DE/WORK
  +--> IDLE_CON/IDLE
  +--> EMERGENCY_NTCCON/EMERGENCY
  +--> EMERGENCY_TEMPHICON/EMERGENCY

LX51 LINKER/LOCATER V4.66.93.0                                                        06/27/2023  19:17:35  PAGE 15


EMERGENCY_NTCCON/EMERGENCY                    ----- -----  ----- -----
  +--> _SETLEDSTATUS/LED_DRV
  +--> EMERGENCY_CON/EMERGENCY

EMERGENCY_CON/EMERGENCY                       ----- -----  ----- -----
  +--> _SETWORKMODE/STATION

EMERGENCY_TEMPHICON/EMERGENCY                 ----- -----  ----- -----
  +--> _SETLEDSTATUS/LED_DRV
  +--> EMERGENCY_CON/EMERGENCY

DEBUG_RUN_TASK/DEBUG                          ----- -----  ----- -----
  +--> _GPIOUART_SEND/DEBUG

_GPIOUART_SEND/DEBUG                          ----- -----  0008H 0008H
  +--> WDT_CLEARWDT/WDT

WDT_CLEARWDT/WDT                              ----- -----  ----- -----

INIT_RUN_TASK/INIT                            ----- -----  0008H 0008H
  +--> _SETLEDSTATUS/LED_DRV
  +--> INIT_DE/INIT
  +--> IDLE_CON/IDLE

INIT_DE/INIT                                  ----- -----  ----- -----

IDLE_RUN_TASK/IDLE                            ----- -----  ----- -----

EMERGENCY_RUN_TASK/EMERGENCY                  ----- -----  0008H 0008H
  +--> EMERGENCY_DE/EMERGENCY
  +--> RESUMEWORKMODE/STATION
  +--> WORKING_CON/WORK
  +--> IDLE_CON/IDLE

RESUMEWORKMODE/STATION                        ----- -----  ----- -----

?C_INITSEG                                    ----- -----  ----- -----

*** NEW ROOT ********************************

TIMER0_IRQHANDLER/SYSTIME                     ----- -----  ----- -----

*** NEW ROOT ********************************

TIMER4_IRQHANDLER/DEBUG                       ----- -----  ----- -----

*** NEW ROOT ********************************

CCTOUCH_IRQHANDLER/CHECKTOUCHKEY_80F73XX+     ----- -----  ----- -----
... _EMC_V1_01
  +--> __CMS_GETTOUCHKEYVALUE/CHECKTOUCHKEY_80F73XX_EMC_V1_01

__CMS_GETTOUCHKEYVALUE/CHECKTOUCHKEY_80F+     ----- -----  ----- -----
... 73XX_EMC_V1_01
  +--> __CMS_KEYMODESET/CHECKTOUCHKEY_80F73XX_EMC_V1_01
  +--> __CMS_KEYSTART/CHECKTOUCHKEY_80F73XX_EMC_V1_01



PUBLIC SYMBOLS OF MODULE:  ..\OBJ\VK-7201A (?C_STARTUP)


      VALUE       CLASS    TYPE      PUBLIC SYMBOL NAME
      =================================================
*DEL*:00000000H   DATA     BYTE      ?_Memory_Read?BYTE
LX51 LINKER/LOCATER V4.66.93.0                                                        06/27/2023  19:17:35  PAGE 16


*DEL*:00000000H   DATA     BYTE      ?_Memory_Write?BYTE
*DEL*:00000000H   DATA     BYTE      ?_sub_itos?BYTE
*DEL*:00000000H   DATA     BYTE      ?_sub_memcpy?BYTE
      00000010H   DATA     BYTE      ?_sub_memset?BYTE
*DEL*:00000000H   DATA     BYTE      ?_sub_nStrcpy?BYTE
*DEL*:00000000H   DATA     BYTE      ?_sub_Strcat?BYTE
*DEL*:00000000H   DATA     BYTE      ?_sub_Strcmp?BYTE
*DEL*:00000000H   DATA     BYTE      ?_sub_Strcpy?BYTE
*DEL*:00000000H   DATA     BYTE      ?_sub_Strstr?BYTE
*DEL*:00000000H   DATA     BYTE      ?_UART_ConfigBaudRate?BYTE
      01000516H   CODE     ---       ?C?CILDOPTR
      010004E9H   CODE     ---       ?C?CLDOPTR
      010004D0H   CODE     ---       ?C?CLDPTR
      00000000H   NUMBER   ---       ?C?CODESEG
      0100055BH   CODE     ---       ?C?CSTOPTR
      01000549H   CODE     ---       ?C?CSTPTR
      01000608H   CODE     ---       ?C?IILDX
      0100061EH   CODE     ---       ?C?ILDOPTR
      0100080DH   CODE     ---       ?C?LIMUL
      010007A4H   CODE     ---       ?C?LLDCODE
      010007B4H   CODE     ---       ?C?LLDCODE0
      01000656H   CODE     ---       ?C?LMUL
      01000773H   CODE     ---       ?C?LNOT
      01000791H   CODE     ---       ?C?LSHL
      010007D0H   CODE     ---       ?C?LSTKXDATA
      010007C4H   CODE     ---       ?C?LSTXDATA
      01000801H   CODE     ---       ?C?OFFXADD
      010005D2H   CODE     ---       ?C?SIDIV
      0100057DH   CODE     ---       ?C?UIDIV
      01000780H   CODE     ---       ?C?ULCMP
      010006E1H   CODE     ---       ?C?ULDIV
      00000000H   NUMBER   ---       ?C?XDATASEG
      01001F95H   CODE     ---       ?C_START
      01000000H   CODE     ---       ?C_STARTUP
      0100083AH   CODE     ---       ___CMS_CurAdjustdl
      01001EA4H   CODE     ---       ___CMS_KeyClearOne
      010027FCH   CODE     ---       ___CMS_KeyHaveDown
      01002B94H   CODE     ---       ___CMS_KeyIsIn
      010028ECH   CODE     ---       ___CMS_KeyOpen
      01000D00H   CODE     ---       __CMS_CheckKeyOldValue
      010000DEH   CODE     ---       __CMS_CheckOnceResult
      01001CC0H   CODE     ---       __CMS_CheckTouchKey
      010026EFH   CODE     ---       __CMS_CheckValidTime
      01000ECDH   CODE     ---       __CMS_CurAdjust
      010030E1H   CONST    ---       __CMS_CurStep_Table
      01001FDAH   CODE     ---       __CMS_GetTouchKeyValue
      0100186AH   CODE     ---       __CMS_Key_UNNOL_Check
      01001C15H   CODE     ---       __CMS_KeyDatIIR
      0100236DH   CODE     ---       __CMS_KeyModeSet
      0100175DH   CODE     ---       __CMS_KeyStart
      01002C45H   CODE     ---       __CMS_KeyStopClear
      01001060H   CODE     ---       __CMS_Noise_check
*DEL*:00000000H   CODE     ---       _ADC_ConfigADCVref
*DEL*:00000000H   CODE     ---       _ADC_ConfigAN63
*DEL*:00000000H   CODE     ---       _ADC_ConfigCompareValue
*DEL*:00000000H   CODE     ---       _ADC_ConfigHardwareTrig
      01002DCEH   CODE     ---       _ADC_ConfigRunMode
      01002EA3H   CODE     ---       _ADC_EnableChannel
*DEL*:00000000H   CODE     ---       _ADC_SetTrigDelayTime
      01002E3AH   CODE     ---       _BUZ_ConfigBuzzer
*DEL*:00000000H   CODE     ---       _CM_Delay
*DEL*:00000000H   CODE     ---       _CRC_InputData
*DEL*:00000000H   CODE     ---       _EXTINT_ClearIntFlag
*DEL*:00000000H   CODE     ---       _EXTINT_ConfigInt
*DEL*:00000000H   CODE     ---       _EXTINT_DisableInt
LX51 LINKER/LOCATER V4.66.93.0                                                        06/27/2023  19:17:35  PAGE 17


*DEL*:00000000H   CODE     ---       _EXTINT_EnableInt
*DEL*:00000000H   CODE     ---       _EXTINT_GetIntFlag
*DEL*:00000000H   CODE     ---       _FLASH_Crc
*DEL*:00000000H   CODE     ---       _FLASH_Erase
*DEL*:00000000H   CODE     ---       _FLASH_Read
*DEL*:00000000H   CODE     ---       _FLASH_Write
      01002DFDH   CODE     ---       _Get_Key_IsPressed
      01002D2BH   CODE     ---       _Get_Key_IsRelease
*DEL*:00000000H   CODE     ---       _GPIO_ClearIntFlag
*DEL*:00000000H   CODE     ---       _GPIO_DisableInt
*DEL*:00000000H   CODE     ---       _GPIO_EnableInt
*DEL*:00000000H   CODE     ---       _GPIO_GetIntFlag
      01002D9BH   CODE     ---       _GpioUart_Send
*DEL*:00000000H   CODE     ---       _I2C_ConfigCLK
*DEL*:00000000H   CODE     ---       _LED_ConfigLatticeClkDiv
*DEL*:00000000H   CODE     ---       _LED_ConfigLatticeMode
*DEL*:00000000H   CODE     ---       _LED_ConfigLatticePeriod1
*DEL*:00000000H   CODE     ---       _LED_ConfigLatticePeriod2
*DEL*:00000000H   CODE     ---       _LED_ConfigMatrixClkDiv
*DEL*:00000000H   CODE     ---       _LED_ConfigMatrixComTime
*DEL*:00000000H   CODE     ---       _LED_ConfigMatrixMode
*DEL*:00000000H   CODE     ---       _LSE_ConfigLSE
*DEL*:00000000H   CODE     ---       _Memory_Read
*DEL*:00000000H   CODE     ---       _Memory_Write
      01002E86H   CODE     ---       _NullRoutine
*DEL*:00000000H   CODE     ---       _PWM_ClearDownCmpIntFlag
*DEL*:00000000H   CODE     ---       _PWM_ClearZeroIntFlag
      010024BBH   CODE     ---       _PWM_ConfigChannelClk
      01002177H   CODE     ---       _PWM_ConfigChannelDuty
      010020F7H   CODE     ---       _PWM_ConfigChannelPeriod
      01002E8DH   CODE     ---       _PWM_ConfigRunMode
      01002A25H   CODE     ---       _PWM_DisableDeadZone
*DEL*:00000000H   CODE     ---       _PWM_DisableDownCmpInt
*DEL*:00000000H   CODE     ---       _PWM_DisableOutput
      01002E18H   CODE     ---       _PWM_DisableReverseOutput
*DEL*:00000000H   CODE     ---       _PWM_DisableZeroInt
      01002E55H   CODE     ---       _PWM_EnableAutoLoadMode
*DEL*:00000000H   CODE     ---       _PWM_EnableDeadZone
*DEL*:00000000H   CODE     ---       _PWM_EnableDownCmpInt
*DEL*:00000000H   CODE     ---       _PWM_EnableOneShotMode
      01002E63H   CODE     ---       _PWM_EnableOutput
*DEL*:00000000H   CODE     ---       _PWM_EnableReverseOutput
*DEL*:00000000H   CODE     ---       _PWM_EnableZeroInt
*DEL*:00000000H   CODE     ---       _PWM_GetDownCmpIntFlag
*DEL*:00000000H   CODE     ---       _PWM_GetZeroIntFlag
      01002E5CH   CODE     ---       _PWM_Start
*DEL*:00000000H   CODE     ---       _PWM_Stop
      0100206FH   CODE     ---       _Read_ADC
      01001D69H   CODE     ---       _SetBuzzerRunTime
*DEL*:00000000H   CODE     ---       _SetDebugTimerCnt
      01001972H   CODE     ---       _SetLedStatus
      01002E4CH   CODE     ---       _SetWorkMode
*DEL*:00000000H   CODE     ---       _SPI_ConfigClk
*DEL*:00000000H   CODE     ---       _SPI_ConfigRunMode
      01000086H   CODE     ---       _StationRun
      01002C02H   CODE     ---       _StationRun_Common
      01002AF9H   CODE     ---       _StationRun_Emergency
      01002B20H   CODE     ---       _StationRun_Idle
      01002E78H   CODE     ---       _StationRun_Init
      01002B47H   CODE     ---       _StationRun_Working
*DEL*:00000000H   CODE     ---       _sub_atoi
*DEL*:00000000H   CODE     ---       _sub_getaveragev
*DEL*:00000000H   CODE     ---       _sub_getchecksum
      01002875H   CODE     ---       _sub_getchecksum_u16
*DEL*:00000000H   CODE     ---       _sub_itos
LX51 LINKER/LOCATER V4.66.93.0                                                        06/27/2023  19:17:35  PAGE 18


*DEL*:00000000H   CODE     ---       _sub_memcpy
      01002AD1H   CODE     ---       _sub_memset
*DEL*:00000000H   CODE     ---       _sub_nStrcpy
*DEL*:00000000H   CODE     ---       _sub_Strcat
*DEL*:00000000H   CODE     ---       _sub_Strchr
*DEL*:00000000H   CODE     ---       _sub_Strcmp
*DEL*:00000000H   CODE     ---       _sub_Strcpy
*DEL*:00000000H   CODE     ---       _sub_Strlen
*DEL*:00000000H   CODE     ---       _sub_Strstr
*DEL*:00000000H   CODE     ---       _swapBigLittle
*DEL*:00000000H   CODE     ---       _SYS_ConfigLVD
*DEL*:00000000H   CODE     ---       _SYS_ConfigSystemClk
*DEL*:00000000H   CODE     ---       _TMR2_ClearCaptureIntFlag
*DEL*:00000000H   CODE     ---       _TMR2_ClearCompareIntFlag
*DEL*:00000000H   CODE     ---       _TMR2_ConfigCompareIntMode
*DEL*:00000000H   CODE     ---       _TMR2_ConfigCompareValue
*DEL*:00000000H   CODE     ---       _TMR2_ConfigRunMode
*DEL*:00000000H   CODE     ---       _TMR2_ConfigTimerClk
*DEL*:00000000H   CODE     ---       _TMR2_ConfigTimerPeriod
*DEL*:00000000H   CODE     ---       _TMR2_DisableCapture
*DEL*:00000000H   CODE     ---       _TMR2_DisableCaptureInt
*DEL*:00000000H   CODE     ---       _TMR2_DisableCompare
*DEL*:00000000H   CODE     ---       _TMR2_DisableCompareInt
*DEL*:00000000H   CODE     ---       _TMR2_EnableCapture
*DEL*:00000000H   CODE     ---       _TMR2_EnableCaptureInt
*DEL*:00000000H   CODE     ---       _TMR2_EnableCompare
*DEL*:00000000H   CODE     ---       _TMR2_EnableCompareInt
*DEL*:00000000H   CODE     ---       _TMR2_GetCaptureIntFlag
*DEL*:00000000H   CODE     ---       _TMR2_GetCaptureValue
*DEL*:00000000H   CODE     ---       _TMR2_GetCompareIntFlag
*DEL*:00000000H   CODE     ---       _TMR_ClearOverflowIntFlag
      010027BEH   CODE     ---       _TMR_ConfigRunMode
      01002839H   CODE     ---       _TMR_ConfigTimerClk
      01002BDFH   CODE     ---       _TMR_ConfigTimerPeriod
*DEL*:00000000H   CODE     ---       _TMR_DisableGATE
*DEL*:00000000H   CODE     ---       _TMR_DisableOverflowInt
*DEL*:00000000H   CODE     ---       _TMR_EnableGATE
      01002C83H   CODE     ---       _TMR_EnableOverflowInt
*DEL*:00000000H   CODE     ---       _TMR_GetCountValue
*DEL*:00000000H   CODE     ---       _TMR_GetOverflowIntFlag
      01002CA0H   CODE     ---       _TMR_Start
*DEL*:00000000H   CODE     ---       _TMR_Stop
*DEL*:00000000H   CODE     ---       _UART_ClearReceiveIntFlag
*DEL*:00000000H   CODE     ---       _UART_ClearSendIntFlag
*DEL*:00000000H   CODE     ---       _UART_ConfigBaudRate
*DEL*:00000000H   CODE     ---       _UART_ConfigBRTClk
*DEL*:00000000H   CODE     ---       _UART_ConfigBRTPeriod
*DEL*:00000000H   CODE     ---       _UART_ConfigRunMode
*DEL*:00000000H   CODE     ---       _UART_DisableDoubleFrequency
*DEL*:00000000H   CODE     ---       _UART_DisableInt
*DEL*:00000000H   CODE     ---       _UART_DisableReceive
*DEL*:00000000H   CODE     ---       _UART_EnableDoubleFrequency
*DEL*:00000000H   CODE     ---       _UART_EnableInt
*DEL*:00000000H   CODE     ---       _UART_EnableReceive
*DEL*:00000000H   CODE     ---       _UART_GetBuff
*DEL*:00000000H   CODE     ---       _UART_GetNinthBit
*DEL*:00000000H   CODE     ---       _UART_GetReceiveIntFlag
*DEL*:00000000H   CODE     ---       _UART_GetSendIntFlag
*DEL*:00000000H   CODE     ---       _UART_SendBuff
*DEL*:00000000H   CODE     ---       _UART_SendNinthBit
      01002E24H   CODE     ---       _WDT_ConfigOverflowTime
*DEL*:00000000H   CODE     ---       _WUT_ConfigCLK
*DEL*:00000000H   CODE     ---       _WUT_ConfigTime
*SFR* 000000D0H.6 DATA     BIT       AC
*SFR* 000000E0H   DATA     BYTE      ACC
LX51 LINKER/LOCATER V4.66.93.0                                                        06/27/2023  19:17:35  PAGE 19


*SFR* 000000E0H.0 DATA     BIT       ACC_0
*SFR* 000000E0H.1 DATA     BIT       ACC_1
*SFR* 000000E0H.2 DATA     BIT       ACC_2
*SFR* 000000E0H.3 DATA     BIT       ACC_3
*SFR* 000000E0H.4 DATA     BIT       ACC_4
*SFR* 000000E0H.5 DATA     BIT       ACC_5
*SFR* 000000E0H.6 DATA     BIT       ACC_6
*SFR* 000000E0H.7 DATA     BIT       ACC_7
*DEL*:00000000H   CODE     ---       ADC_ClearIntFlag
*DEL*:00000000H   CODE     ---       ADC_DisableHardwareTrig
*DEL*:00000000H   CODE     ---       ADC_DisableInt
      01000003H   CODE     ---       ADC_DisableLDO
*DEL*:00000000H   CODE     ---       ADC_EnableHardwareTrig
*DEL*:00000000H   CODE     ---       ADC_EnableInt
*DEL*:00000000H   CODE     ---       ADC_EnableLDO
      01002BBAH   CODE     ---       ADC_GetADCResult
*DEL*:00000000H   CODE     ---       ADC_GetCmpResult
*DEL*:00000000H   CODE     ---       ADC_GetIntFlag
      01002E93H   CODE     ---       ADC_Start
*DEL*:00000000H   CODE     ---       ADC_Stop
*SFR* 000000D9H   DATA     BYTE      ADCCHS
*SFR* 000000D1H   DATA     BYTE      ADCMPC
*SFR* 000000D5H   DATA     BYTE      ADCMPH
*SFR* 000000D4H   DATA     BYTE      ADCMPL
*SFR* 000000DFH   DATA     BYTE      ADCON0
*SFR* 000000DEH   DATA     BYTE      ADCON1
*SFR* 000000E9H   DATA     BYTE      ADCON2
*SFR* 000000D3H   DATA     BYTE      ADDLYL
*SFR* 000000DDH   DATA     BYTE      ADRESH
*SFR* 000000DCH   DATA     BYTE      ADRESL
*SFR* 000000F0H   DATA     BYTE      B
*SFR* 000000F0H.0 DATA     BIT       B_0
*SFR* 000000F0H.1 DATA     BIT       B_1
*SFR* 000000F0H.2 DATA     BIT       B_2
*SFR* 000000F0H.3 DATA     BIT       B_3
*SFR* 000000F0H.4 DATA     BIT       B_4
*SFR* 000000F0H.5 DATA     BIT       B_5
*SFR* 000000F0H.6 DATA     BIT       B_6
*SFR* 000000F0H.7 DATA     BIT       B_7
      00000022H.6 BIT      BIT       bBuzzerOn
      00000022H.0 BIT      BIT       bHeaterOn
      00000022H.5 BIT      BIT       bIsWorkingStop
      00000022H.2 BIT      BIT       bKeyPressed
      00000021H.6 BIT      BIT       bResetTempHiCheck
      00000021H.7 BIT      BIT       bTempHi
      00000020H.4 BIT      BIT       bTime100ms
      00000020H.3 BIT      BIT       bTime10ms
      00000020H.0 BIT      BIT       bTime1ms
      00000020H.2 BIT      BIT       bTime1s
      00000020H.5 BIT      BIT       bTime200ms
      00000020H.6 BIT      BIT       bTime500ms
      00000020H.1 BIT      BIT       bTime5ms
      01002E9FH   CODE     ---       BUZ_DisableBuzzer
      01002E9BH   CODE     ---       BUZ_EnableBuzzer
*SFR* 000000BFH   DATA     BYTE      BUZCON
*SFR* 000000BEH   DATA     BYTE      BUZDIV
      01002DDEH   CODE     ---       BUZZER_Config
      01002C25H   CODE     ---       Buzzer_Init
      0100136FH   CODE     ---       Buzzer_Run_Task
*SFR* 000000C8H.5 DATA     BIT       CAPES
*SFR* 000000CEH   DATA     BYTE      CCEN
*SFR* 000000C3H   DATA     BYTE      CCH1
*SFR* 000000C5H   DATA     BYTE      CCH2
*SFR* 000000C7H   DATA     BYTE      CCH3
*SFR* 000000C2H   DATA     BYTE      CCL1
LX51 LINKER/LOCATER V4.66.93.0                                                        06/27/2023  19:17:35  PAGE 20


*SFR* 000000C4H   DATA     BYTE      CCL2
*SFR* 000000C6H   DATA     BYTE      CCL3
      010028B1H   CODE     ---       CCTOUCH_IRQHandler
*SFR* 0000008EH   DATA     BYTE      CKCON
*SFR* 0000008FH   DATA     BYTE      CLKDIV
      01002DBDH   CODE     ---       Common_Init
*DEL*:00000000H   CODE     ---       Common_Run_Task
*DEL*:00000000H   CODE     ---       CRC_Output
*SFR* 000000D0H.7 DATA     BIT       CY
      01002E0BH   CODE     ---       Debug_Init
      01002992H   CODE     ---       Debug_Run_Task
      0000001EH   DATA     WORD      debugLowCnt
      0000001CH   DATA     WORD      debugTmr
*SFR* 00000083H   DATA     BYTE      DPH0
*SFR* 00000085H   DATA     BYTE      DPH1
*SFR* 00000082H   DATA     BYTE      DPL0
*SFR* 00000084H   DATA     BYTE      DPL1
*SFR* 00000086H   DATA     BYTE      DPS
*SFR* 000000A8H.7 DATA     BIT       EA
*SFR* 000000AAH   DATA     BYTE      EIE2
*SFR* 000000B2H   DATA     BYTE      EIF2
*SFR* 000000B9H   DATA     BYTE      EIP1
*SFR* 000000BAH   DATA     BYTE      EIP2
*SFR* 000000BBH   DATA     BYTE      EIP3
      01002E43H   CODE     ---       Emergency_Con
      01002AA9H   CODE     ---       Emergency_De
      01002D88H   CODE     ---       Emergency_NTCCon
      01002456H   CODE     ---       Emergency_Run_Task
      01002926H   CODE     ---       Emergency_TempHiCon
      00000040H   DATA     BYTE      emergencyType
*SFR* 000000A8H.4 DATA     BIT       ES0
*SFR* 000000A8H.6 DATA     BIT       ES1
*SFR* 000000A8H.1 DATA     BIT       ET0
*SFR* 000000A8H.3 DATA     BIT       ET1
*SFR* 000000A8H.5 DATA     BIT       ET2
*SFR* 000000A8H.0 DATA     BIT       EX0
*SFR* 000000A8H.2 DATA     BIT       EX1
*SFR* 000000D0H.5 DATA     BIT       F0
*DEL*:00000000H   CODE     ---       FLASH_Lock
*DEL*:00000000H   CODE     ---       FLASH_UnLock
*SFR* 00000091H   DATA     BYTE      FUNCCR
      00000043H   DATA     BYTE      FuncNum1st
      00000041H   DATA     BYTE      FuncNum2nd
      00000042H   DATA     BYTE      FuncNum3rd
      010030BAH   CONST    BYTE      g__CmBase
      010030C7H   CONST    BYTE      g__CMS_Key_Disp
      010030C5H   CONST    BYTE      g__Key_En1kres
      010030C4H   CONST    BYTE      g__Key_LDOSel
      010030B7H   CONST    BYTE      g__KeyShakeCounter
      010030B6H   CONST    BYTE      g__KeyTotalNumber
      010030C0H   CONST    BYTE      g__KeyUNTime
      010030BBH   CONST    BYTE      g__KeyValidNumber
      010030BCH   CONST    DWORD     g__KeyValidTime
      010030C3H   CONST    BYTE      g__LMDValue
      010030B9H   CONST    BYTE      g__SluValue
      010030C1H   CONST    BYTE      g__UnNol_Check
      010030C2H   CONST    BYTE      g__UnNol_Times
      010030B8H   CONST    BYTE      g__VolValue
      010030C6H   CONST    BYTE      g__WaterMode
      020000CCH   XDATA    ---       g_CMS_RAM0
      020000D0H   XDATA    ---       g_CMS_RAM1
      020000EEH   XDATA    ---       g_CMS_RAM10
      020000F0H   XDATA    ---       g_CMS_RAM11
      020000F2H   XDATA    ---       g_CMS_RAM12
      020000F4H   XDATA    ---       g_CMS_RAM13
LX51 LINKER/LOCATER V4.66.93.0                                                        06/27/2023  19:17:35  PAGE 21


      020000F6H   XDATA    ---       g_CMS_RAM14
      020000F8H   XDATA    ---       g_CMS_RAM15
      020000D4H   XDATA    ---       g_CMS_RAM2
      020000D8H   XDATA    ---       g_CMS_RAM3
      020000DCH   XDATA    ---       g_CMS_RAM4
      020000E0H   XDATA    ---       g_CMS_RAM5
      020000E4H   XDATA    ---       g_CMS_RAM6
      020000E8H   XDATA    ---       g_CMS_RAM7
      020000EAH   XDATA    ---       g_CMS_RAM8
      020000ECH   XDATA    ---       g_CMS_RAM9
      01002D44H   CODE     ---       GetADC_Init
      00000021H.3 BIT      BIT       gf_kerr
      01002D5CH   CODE     ---       GpioUart_Init
*DEL*:00000000H   CODE     ---       GpioUart_Recv
      01002C65H   CODE     ---       Heater_Init
      01002274H   CODE     ---       Heater_Run_Task
*DEL*:00000000H   CODE     ---       I2C_ClearMasterIntFlag
*DEL*:00000000H   CODE     ---       I2C_DisableInt
*DEL*:00000000H   CODE     ---       I2C_DisableMasterMode
*DEL*:00000000H   CODE     ---       I2C_EnableInt
*DEL*:00000000H   CODE     ---       I2C_EnableMasterMode
*DEL*:00000000H   CODE     ---       I2C_GetBusArbitrationFlag
*DEL*:00000000H   CODE     ---       I2C_GetI2CBusBusyFlag
*DEL*:00000000H   CODE     ---       I2C_GetMasterBusyFlag
*DEL*:00000000H   CODE     ---       I2C_GetMasterErrorFlag
*DEL*:00000000H   CODE     ---       I2C_GetMasterIdleFlag
*DEL*:00000000H   CODE     ---       I2C_GetMasterIntFlag
*DEL*:00000000H   CODE     ---       I2C_GetMasterSendAddrFlag
*SFR* 000000F6H   DATA     BYTE      I2CMBUF
*SFR* 000000F5H   DATA     BYTE      I2CMCR
*SFR* 000000F4H   DATA     BYTE      I2CMSA
*SFR* 000000F5H   DATA     BYTE      I2CMSR
*SFR* 000000F7H   DATA     BYTE      I2CMTP
*SFR* 000000F1H   DATA     BYTE      I2CSADR
*SFR* 000000F3H   DATA     BYTE      I2CSBUF
*SFR* 000000F2H   DATA     BYTE      I2CSCR
*SFR* 000000F2H   DATA     BYTE      I2CSSR
*SFR* 000000C8H.6 DATA     BIT       I3FR
      01002B6EH   CODE     ---       Idle_Con
      010000D9H   CODE     ---       Idle_De
      01002A51H   CODE     ---       Idle_Run_Task
*SFR* 000000A8H   DATA     BYTE      IE
*SFR* 00000088H.1 DATA     BIT       IE0
*SFR* 00000088H.3 DATA     BIT       IE1
      01002A7DH   CODE     ---       Init_Con
      010000DAH   CODE     ---       Init_De
      0100295CH   CODE     ---       Init_Run_Task
*SFR* 000000B8H   DATA     BYTE      IP
*SFR* 00000088H.0 DATA     BIT       IT0
*SFR* 00000088H.2 DATA     BIT       IT1
      01002DEEH   CODE     ---       Key_Init
      02000132H   XDATA    DWORD     KeyFlag
*DEL*:00000000H   CODE     ---       LED_ClearIntFlag
*DEL*:00000000H   CODE     ---       LED_DisableInt
*DEL*:00000000H   CODE     ---       LED_EnableInt
*DEL*:00000000H   CODE     ---       LED_EnableLatticeMode
*DEL*:00000000H   CODE     ---       LED_EnableMatrixMode
*DEL*:00000000H   CODE     ---       LED_GetIntFlag
      010022F1H   CODE     ---       Led_Init
*DEL*:00000000H   CODE     ---       LED_RestartLattice
*DEL*:00000000H   CODE     ---       LED_StartLattice
*DEL*:00000000H   CODE     ---       LED_StartMatrix
*DEL*:00000000H   CODE     ---       LED_StopLattice
*DEL*:00000000H   CODE     ---       LED_StopMatrix
      00000048H   DATA     WORD      LedBreathDuty
LX51 LINKER/LOCATER V4.66.93.0                                                        06/27/2023  19:17:35  PAGE 22


      020000FAH   XDATA    ---       ledPara
      01000B1DH   CODE     ---       LedShow_Run_Task
*DEL*:00000000H   CODE     ---       LSE_ClearLSEIntFlag
*DEL*:00000000H   CODE     ---       LSE_DisableLSE
*DEL*:00000000H   CODE     ---       LSE_DisableLSEInt
*DEL*:00000000H   CODE     ---       LSE_DisableLSEWakeup
*DEL*:00000000H   CODE     ---       LSE_EnableLSE
*DEL*:00000000H   CODE     ---       LSE_EnableLSEInt
*DEL*:00000000H   CODE     ---       LSE_EnableLSEWakeup
*DEL*:00000000H   CODE     ---       LSE_GetLSEIntFlag
*DEL*:00000000H   CODE     ---       LSE_GetLSEState
*DEL*:00000000H   CODE     ---       LSE_Start
*DEL*:00000000H   CODE     ---       LSE_Stop
*SFR* 000000FDH   DATA     BYTE      MADRH
*SFR* 000000FCH   DATA     BYTE      MADRL
      01002572H   CODE     ---       main
*SFR* 000000FFH   DATA     BYTE      MCTRL
*SFR* 000000FEH   DATA     BYTE      MDATA
*DEL*:00000000H   CODE     ---       Memory_Init
*SFR* 000000FBH   DATA     BYTE      MLOCK
      01002DACH   CODE     ---       NTC_Init
      010014D5H   CODE     ---       NTC_Run_Task
*SFR* 000000D0H.2 DATA     BIT       OV
*SFR* 000000D0H.0 DATA     BIT       P
*SFR* 00000080H   DATA     BYTE      P0
*SFR* 00000080H.0 DATA     BIT       P00
*SFR* 00000080H.1 DATA     BIT       P01
*SFR* 00000080H.2 DATA     BIT       P02
*SFR* 00000080H.3 DATA     BIT       P03
*SFR* 00000080H.4 DATA     BIT       P04
*SFR* 00000080H.5 DATA     BIT       P05
*SFR* 00000080H.6 DATA     BIT       P06
*SFR* 00000080H.7 DATA     BIT       P07
*SFR* 00000080H.0 DATA     BIT       P0_0
*SFR* 00000080H.1 DATA     BIT       P0_1
*SFR* 00000080H.2 DATA     BIT       P0_2
*SFR* 00000080H.3 DATA     BIT       P0_3
*SFR* 00000080H.4 DATA     BIT       P0_4
*SFR* 00000080H.5 DATA     BIT       P0_5
*SFR* 00000080H.6 DATA     BIT       P0_6
*SFR* 00000080H.7 DATA     BIT       P0_7
*SFR* 000000ACH   DATA     BYTE      P0EXTIE
*SFR* 000000B4H   DATA     BYTE      P0EXTIF
*SFR* 0000009AH   DATA     BYTE      P0TRIS
*SFR* 00000090H   DATA     BYTE      P1
*SFR* 00000090H.0 DATA     BIT       P10
*SFR* 00000090H.1 DATA     BIT       P11
*SFR* 00000090H.2 DATA     BIT       P12
*SFR* 00000090H.3 DATA     BIT       P13
*SFR* 00000090H.4 DATA     BIT       P14
*SFR* 00000090H.5 DATA     BIT       P15
*SFR* 00000090H.6 DATA     BIT       P16
*SFR* 00000090H.7 DATA     BIT       P17
*SFR* 00000090H.0 DATA     BIT       P1_0
*SFR* 00000090H.1 DATA     BIT       P1_1
*SFR* 00000090H.2 DATA     BIT       P1_2
*SFR* 00000090H.3 DATA     BIT       P1_3
*SFR* 00000090H.4 DATA     BIT       P1_4
*SFR* 00000090H.5 DATA     BIT       P1_5
*SFR* 00000090H.6 DATA     BIT       P1_6
*SFR* 00000090H.7 DATA     BIT       P1_7
*SFR* 000000ADH   DATA     BYTE      P1EXTIE
*SFR* 000000B5H   DATA     BYTE      P1EXTIF
*SFR* 000000A1H   DATA     BYTE      P1TRIS
*SFR* 000000A0H   DATA     BYTE      P2
LX51 LINKER/LOCATER V4.66.93.0                                                        06/27/2023  19:17:35  PAGE 23


*SFR* 000000A0H.0 DATA     BIT       P20
*SFR* 000000A0H.1 DATA     BIT       P21
*SFR* 000000A0H.2 DATA     BIT       P22
*SFR* 000000A0H.3 DATA     BIT       P23
*SFR* 000000A0H.0 DATA     BIT       P2_0
*SFR* 000000A0H.1 DATA     BIT       P2_1
*SFR* 000000A0H.2 DATA     BIT       P2_2
*SFR* 000000A0H.3 DATA     BIT       P2_3
*SFR* 000000A0H.4 DATA     BIT       P2_4
*SFR* 000000A0H.5 DATA     BIT       P2_5
*SFR* 000000A0H.6 DATA     BIT       P2_6
*SFR* 000000A0H.7 DATA     BIT       P2_7
*SFR* 000000AEH   DATA     BYTE      P2EXTIE
*SFR* 000000B6H   DATA     BYTE      P2EXTIF
*SFR* 000000A2H   DATA     BYTE      P2TRIS
*SFR* 000000D8H   DATA     BYTE      P5
*SFR* 000000D8H.0 DATA     BIT       P50
*SFR* 000000D8H.1 DATA     BIT       P51
*SFR* 000000D8H.2 DATA     BIT       P52
*SFR* 000000D8H.3 DATA     BIT       P53
*SFR* 000000D8H.4 DATA     BIT       P54
*SFR* 000000D8H.5 DATA     BIT       P55
*SFR* 000000D8H.0 DATA     BIT       P5_0
*SFR* 000000D8H.1 DATA     BIT       P5_1
*SFR* 000000D8H.2 DATA     BIT       P5_2
*SFR* 000000D8H.3 DATA     BIT       P5_3
*SFR* 000000D8H.4 DATA     BIT       P5_4
*SFR* 000000D8H.5 DATA     BIT       P5_5
*SFR* 000000D8H.6 DATA     BIT       P5_6
*SFR* 000000D8H.7 DATA     BIT       P5_7
*SFR* 0000009CH   DATA     BYTE      P5EXTIE
*SFR* 000000A7H   DATA     BYTE      P5EXTIF
*SFR* 000000A5H   DATA     BYTE      P5TRIS
*SFR* 00000087H   DATA     BYTE      PCON
*SFR* 000000FAH   DATA     BYTE      PCRCDH
*SFR* 000000F9H   DATA     BYTE      PCRCDL
*SFR* 000000B8H.4 DATA     BIT       PS0
*SFR* 000000B8H.6 DATA     BIT       PS1
*SFR* 000000D0H   DATA     BYTE      PSW
*SFR* 000000B8H.1 DATA     BIT       PT0
*SFR* 000000B8H.3 DATA     BIT       PT1
*SFR* 000000B8H.5 DATA     BIT       PT2
*DEL*:00000000H   CODE     ---       PWM_AllIntDisable
*DEL*:00000000H   CODE     ---       PWM_AllIntEnable
*DEL*:00000000H   CODE     ---       PWM_EnableSynCount
*SFR* 000000B8H.0 DATA     BIT       PX0
*SFR* 000000B8H.2 DATA     BIT       PX1
*DEL*:00000000H   CODE     ---       REL_SenderLoop0
      01002E7FH   CODE     ---       ResumeWorkMode
*SFR* 00000098H.0 DATA     BIT       RI0
*SFR* 000000CBH   DATA     BYTE      RLDH
*SFR* 000000CAH   DATA     BYTE      RLDL
*SFR* 000000D0H.3 DATA     BIT       RS0
*SFR* 000000D0H.4 DATA     BIT       RS1
*SFR* 00000099H   DATA     BYTE      SBUF0
*SFR* 000000EBH   DATA     BYTE      SBUF1
      01001A70H   CODE     ---       ScanKey_Run_Task
*SFR* 000000D6H   DATA     BYTE      SCKSEL
*SFR* 000000D7H   DATA     BYTE      SCKSTAU
*SFR* 00000098H   DATA     BYTE      SCON0
*SFR* 000000EAH   DATA     BYTE      SCON1
*SFR* 00000081H   DATA     BYTE      SP
*SFR* 000000ECH   DATA     BYTE      SPCR
*SFR* 000000EEH   DATA     BYTE      SPDR
*DEL*:00000000H   CODE     ---       SPI_ClearTransferIntFlag
LX51 LINKER/LOCATER V4.66.93.0                                                        06/27/2023  19:17:35  PAGE 24


*DEL*:00000000H   CODE     ---       SPI_ClearWriteErrorIntFlag
*DEL*:00000000H   CODE     ---       SPI_DisableIntFlag
*DEL*:00000000H   CODE     ---       SPI_DisableMasterMode
*DEL*:00000000H   CODE     ---       SPI_DisableSlaveMode
*DEL*:00000000H   CODE     ---       SPI_EnableIntFlag
*DEL*:00000000H   CODE     ---       SPI_EnableMasterMode
*DEL*:00000000H   CODE     ---       SPI_EnableSlaveMode
*DEL*:00000000H   CODE     ---       SPI_GetTransferIntFlag
*DEL*:00000000H   CODE     ---       SPI_GetWriteErrorIntFlag
*DEL*:00000000H   CODE     ---       SPI_Start
*DEL*:00000000H   CODE     ---       SPI_Stop
*SFR* 000000EDH   DATA     BYTE      SPSR
*SFR* 000000EFH   DATA     BYTE      SSCR
*DEL*:00000000H   CODE     ---       SYS_ClearLVDIntFlag
*DEL*:00000000H   CODE     ---       SYS_ClearPowerOnResetFlag
*DEL*:00000000H   CODE     ---       SYS_ClearSCMIntFlag
*DEL*:00000000H   CODE     ---       SYS_ClearWDTResetFlag
*DEL*:00000000H   CODE     ---       SYS_DisableLVD
*DEL*:00000000H   CODE     ---       SYS_DisableLVDInt
*DEL*:00000000H   CODE     ---       SYS_DisableSCM
*DEL*:00000000H   CODE     ---       SYS_DisableSCMInt
      01002CDAH   CODE     ---       SYS_DisableSoftwareReset
*DEL*:00000000H   CODE     ---       SYS_DisableWakeUp
*DEL*:00000000H   CODE     ---       SYS_EnableLVD
*DEL*:00000000H   CODE     ---       SYS_EnableLVDInt
*DEL*:00000000H   CODE     ---       SYS_EnableSCM
*DEL*:00000000H   CODE     ---       SYS_EnableSCMInt
*DEL*:00000000H   CODE     ---       SYS_EnableSoftwareReset
*DEL*:00000000H   CODE     ---       SYS_EnableWakeUp
*DEL*:00000000H   CODE     ---       SYS_EnterIdle
*DEL*:00000000H   CODE     ---       SYS_EnterStop
*DEL*:00000000H   CODE     ---       SYS_GetLVDIntFlag
*DEL*:00000000H   CODE     ---       SYS_GetPowerOnResetFlag
*DEL*:00000000H   CODE     ---       SYS_GetSCMIntFlag
*DEL*:00000000H   CODE     ---       SYS_GetSCMState
*DEL*:00000000H   CODE     ---       SYS_GetWDTResetFlag
      0100265EH   CODE     ---       SysTime_Config
      00000036H   DATA     DWORD     sysTotalTick
*SFR* 000000C8H.2 DATA     BIT       T2CM
*SFR* 000000C8H   DATA     BYTE      T2CON
*SFR* 000000C8H.0 DATA     BIT       T2I0
*SFR* 000000C8H.1 DATA     BIT       T2I1
*SFR* 000000CFH   DATA     BYTE      T2IE
*SFR* 000000C9H   DATA     BYTE      T2IF
*SFR* 000000C8H.7 DATA     BIT       T2PS
*SFR* 000000C8H.3 DATA     BIT       T2R0
*SFR* 000000C8H.4 DATA     BIT       T2R1
*SFR* 000000D2H   DATA     BYTE      T34MOD
*SFR* 00000096H   DATA     BYTE      TA
      010030B4H   CONST    ---       Table_KeyCap
      010030AEH   CONST    ---       Table_KeyChannel
      010030B0H   CONST    ---       Table_KeyDown
*SFR* 00000088H   DATA     BYTE      TCON
      00000046H   DATA     BYTE      TempHiCheckCnt
      00000047H   DATA     BYTE      TempHiCheckTmr
      02000000H   XDATA    ---       tempNTC
*SFR* 00000088H.5 DATA     BIT       TF0
*SFR* 00000088H.7 DATA     BIT       TF1
*SFR* 0000008CH   DATA     BYTE      TH0
*SFR* 0000008DH   DATA     BYTE      TH1
*SFR* 000000CDH   DATA     BYTE      TH2
*SFR* 000000DBH   DATA     BYTE      TH3
*SFR* 000000E3H   DATA     BYTE      TH4
*SFR* 00000098H.1 DATA     BIT       TI0
      01001E07H   CODE     ---       Timer0_IRQHandler
LX51 LINKER/LOCATER V4.66.93.0                                                        06/27/2023  19:17:35  PAGE 25


*SFR* 0000008AH   DATA     BYTE      TL0
*SFR* 0000008BH   DATA     BYTE      TL1
*SFR* 000000CCH   DATA     BYTE      TL2
*SFR* 000000DAH   DATA     BYTE      TL3
*SFR* 000000E2H   DATA     BYTE      TL4
*SFR* 00000089H   DATA     BYTE      TMOD
*DEL*:00000000H   CODE     ---       TMR2_AllIntDisable
*DEL*:00000000H   CODE     ---       TMR2_AllIntEnable
*DEL*:00000000H   CODE     ---       TMR2_ClearOverflowIntFlag
*DEL*:00000000H   CODE     ---       TMR2_ClearT2EXIntFlag
*DEL*:00000000H   CODE     ---       TMR2_DisableGATE
*DEL*:00000000H   CODE     ---       TMR2_DisableOverflowInt
*DEL*:00000000H   CODE     ---       TMR2_DisableT2EXInt
*DEL*:00000000H   CODE     ---       TMR2_EnableGATE
*DEL*:00000000H   CODE     ---       TMR2_EnableOverflowInt
*DEL*:00000000H   CODE     ---       TMR2_EnableT2EXInt
*DEL*:00000000H   CODE     ---       TMR2_GetOverflowIntFlag
*DEL*:00000000H   CODE     ---       TMR2_GetT2EXIntFlag
*DEL*:00000000H   CODE     ---       TMR2_Start
*DEL*:00000000H   CODE     ---       TMR2_Stop
*SFR* 00000088H.4 DATA     BIT       TR0
*SFR* 00000088H.6 DATA     BIT       TR1
*SFR* 00000098H.2 DATA     BIT       U0RB8
*SFR* 00000098H.4 DATA     BIT       U0REN
*SFR* 00000098H.7 DATA     BIT       U0SM0
*SFR* 00000098H.6 DATA     BIT       U0SM1
*SFR* 00000098H.5 DATA     BIT       U0SM2
*SFR* 00000098H.3 DATA     BIT       U0TB8
*DEL*:00000000H   CODE     ---       UART_DisableBRT
*DEL*:00000000H   CODE     ---       UART_EnableBRT
      01000082H   CODE     ---       Update_Led_Show
*SFR* 00000097H   DATA     BYTE      WDCON
*DEL*:00000000H   CODE     ---       WDT_ClearOverflowIntFlag
      01002D10H   CODE     ---       WDT_ClearWDT
      01002E97H   CODE     ---       WDT_DisableOverflowInt
*DEL*:00000000H   CODE     ---       WDT_DisableWDTReset
*DEL*:00000000H   CODE     ---       WDT_EnableOverflowInt
      01002CF5H   CODE     ---       WDT_EnableWDTReset
*DEL*:00000000H   CODE     ---       WDT_GetOverflowIntFlag
      02000139H   XDATA    ---       Working
      010026A7H   CODE     ---       Working_Con
      01002CBDH   CODE     ---       Working_De
      010011ECH   CODE     ---       Working_PumpHeat_Run_Task
      0100000EH   CODE     ---       Working_Run_Task
*DEL*:00000000H   CODE     ---       WUT_ClearOverflowFlag
*DEL*:00000000H   CODE     ---       WUT_DisableWUTWakeUp
*DEL*:00000000H   CODE     ---       WUT_EnableWUTWakeUp
*DEL*:00000000H   CODE     ---       WUT_GetOverflowFlag
*SFR* 000000BDH   DATA     BYTE      WUTCRH
*SFR* 000000BCH   DATA     BYTE      WUTCRL



SYMBOL TABLE OF MODULE:  ..\OBJ\VK-7201A (?C_STARTUP)

      VALUE       REP       CLASS    TYPE      SYMBOL NAME
      ====================================================
      ---         MODULE    ---      ---       ?C_STARTUP
      01000000H   PUBLIC    CODE     ---       ?C_STARTUP
      000000E0H   SYMBOL    DATA     ---       ACC
      000000F0H   SYMBOL    DATA     ---       B
      00000083H   SYMBOL    DATA     ---       DPH
      00000082H   SYMBOL    DATA     ---       DPL
      00000000H   SYMBOL    NUMBER   ---       IBPSTACK
      00000100H   SYMBOL    NUMBER   ---       IBPSTACKTOP
LX51 LINKER/LOCATER V4.66.93.0                                                        06/27/2023  19:17:35  PAGE 26


      00000100H   SYMBOL    NUMBER   ---       IDATALEN
      01001F43H   SYMBOL    CODE     ---       IDATALOOP
      00000000H   SYMBOL    NUMBER   ---       PBPSTACK
      00000100H   SYMBOL    NUMBER   ---       PBPSTACKTOP
      00000000H   SYMBOL    NUMBER   ---       PDATALEN
      00000000H   SYMBOL    NUMBER   ---       PDATASTART
      00000000H   SYMBOL    NUMBER   ---       PPAGE
      00000000H   SYMBOL    NUMBER   ---       PPAGEENABLE
      000000A0H   SYMBOL    DATA     ---       PPAGE_SFR
      00000081H   SYMBOL    DATA     ---       SP
      01001F40H   SYMBOL    CODE     ---       STARTUP1
      00000000H   SYMBOL    NUMBER   ---       XBPSTACK
      00000000H   SYMBOL    NUMBER   ---       XBPSTACKTOP
      00000400H   SYMBOL    NUMBER   ---       XDATALEN
      01001F4EH   SYMBOL    CODE     ---       XDATALOOP
      00000000H   SYMBOL    NUMBER   ---       XDATASTART
      01000000H   LINE      CODE     ---       #126
      01001F40H   LINE      CODE     ---       #133
      01001F42H   LINE      CODE     ---       #134
      01001F43H   LINE      CODE     ---       #135
      01001F44H   LINE      CODE     ---       #136
      01001F46H   LINE      CODE     ---       #140
      01001F49H   LINE      CODE     ---       #141
      01001F4BH   LINE      CODE     ---       #145
      01001F4DH   LINE      CODE     ---       #147
      01001F4EH   LINE      CODE     ---       #148
      01001F4FH   LINE      CODE     ---       #149
      01001F50H   LINE      CODE     ---       #150
      01001F52H   LINE      CODE     ---       #151
      01001F54H   LINE      CODE     ---       #185
      01001F57H   LINE      CODE     ---       #196

      ---         MODULE    ---      ---       ADC
      01000003H   PUBLIC    CODE     ---       ADC_DisableLDO
      01002BBAH   PUBLIC    CODE     ---       ADC_GetADCResult
      01002EA3H   PUBLIC    CODE     ---       _ADC_EnableChannel
      01002DCEH   PUBLIC    CODE     ---       _ADC_ConfigRunMode
      01002E93H   PUBLIC    CODE     ---       ADC_Start
      000000C8H.0 SFRSYM    DATA     BIT       T2I0
      000000C3H   SFRSYM    DATA     BYTE      CCH1
      00000080H   SFRSYM    DATA     BYTE      P0
      000000C8H.1 SFRSYM    DATA     BIT       T2I1
      000000C5H   SFRSYM    DATA     BYTE      CCH2
      00000090H   SFRSYM    DATA     BYTE      P1
      000000C7H   SFRSYM    DATA     BYTE      CCH3
      000000ACH   SFRSYM    DATA     BYTE      P0EXTIE
      000000A0H   SFRSYM    DATA     BYTE      P2
      000000B4H   SFRSYM    DATA     BYTE      P0EXTIF
      000000ADH   SFRSYM    DATA     BYTE      P1EXTIE
      000000D0H.6 SFRSYM    DATA     BIT       AC
      000000FFH   SFRSYM    DATA     BYTE      MCTRL
      000000C2H   SFRSYM    DATA     BYTE      CCL1
      000000B5H   SFRSYM    DATA     BYTE      P1EXTIF
      000000AEH   SFRSYM    DATA     BYTE      P2EXTIE
      000000D8H   SFRSYM    DATA     BYTE      P5
      000000C4H   SFRSYM    DATA     BYTE      CCL2
      000000B6H   SFRSYM    DATA     BYTE      P2EXTIF
      000000A8H.7 SFRSYM    DATA     BIT       EA
      000000C6H   SFRSYM    DATA     BYTE      CCL3
      000000AAH   SFRSYM    DATA     BYTE      EIE2
      000000B2H   SFRSYM    DATA     BYTE      EIF2
      0000009CH   SFRSYM    DATA     BYTE      P5EXTIE
      000000A7H   SFRSYM    DATA     BYTE      P5EXTIF
      000000C8H.3 SFRSYM    DATA     BIT       T2R0
      000000C8H.4 SFRSYM    DATA     BIT       T2R1
LX51 LINKER/LOCATER V4.66.93.0                                                        06/27/2023  19:17:35  PAGE 27


      00000083H   SFRSYM    DATA     BYTE      DPH0
      000000A8H   SFRSYM    DATA     BYTE      IE
      00000085H   SFRSYM    DATA     BYTE      DPH1
      00000080H.0 SFRSYM    DATA     BIT       P0_0
      000000B9H   SFRSYM    DATA     BYTE      EIP1
      00000090H.0 SFRSYM    DATA     BIT       P1_0
      00000080H.1 SFRSYM    DATA     BIT       P0_1
      000000BAH   SFRSYM    DATA     BYTE      EIP2
      00000082H   SFRSYM    DATA     BYTE      DPL0
      000000A0H.0 SFRSYM    DATA     BIT       P2_0
      00000090H.1 SFRSYM    DATA     BIT       P1_1
      00000080H.2 SFRSYM    DATA     BIT       P0_2
      000000BBH   SFRSYM    DATA     BYTE      EIP3
      00000084H   SFRSYM    DATA     BYTE      DPL1
      000000A0H.1 SFRSYM    DATA     BIT       P2_1
      00000090H.2 SFRSYM    DATA     BIT       P1_2
      00000080H.3 SFRSYM    DATA     BIT       P0_3
      000000A0H.2 SFRSYM    DATA     BIT       P2_2
      00000090H.3 SFRSYM    DATA     BIT       P1_3
      00000080H.4 SFRSYM    DATA     BIT       P0_4
      000000D8H.0 SFRSYM    DATA     BIT       P5_0
      000000C8H.6 SFRSYM    DATA     BIT       I3FR
      000000A0H.3 SFRSYM    DATA     BIT       P2_3
      00000090H.4 SFRSYM    DATA     BIT       P1_4
      00000080H.5 SFRSYM    DATA     BIT       P0_5
      000000CFH   SFRSYM    DATA     BYTE      T2IE
      00000096H   SFRSYM    DATA     BYTE      TA
      000000D8H.1 SFRSYM    DATA     BIT       P5_1
      000000A0H.4 SFRSYM    DATA     BIT       P2_4
      00000090H.5 SFRSYM    DATA     BIT       P1_5
      00000080H.6 SFRSYM    DATA     BIT       P0_6
      000000C9H   SFRSYM    DATA     BYTE      T2IF
      000000D8H.2 SFRSYM    DATA     BIT       P5_2
      000000C8H.2 SFRSYM    DATA     BIT       T2CM
      000000A0H.5 SFRSYM    DATA     BIT       P2_5
      00000090H.6 SFRSYM    DATA     BIT       P1_6
      00000080H.7 SFRSYM    DATA     BIT       P0_7
      000000DFH   SFRSYM    DATA     BYTE      ADCON0
      000000D8H.3 SFRSYM    DATA     BIT       P5_3
      000000A0H.6 SFRSYM    DATA     BIT       P2_6
      00000090H.7 SFRSYM    DATA     BIT       P1_7
      000000DEH   SFRSYM    DATA     BYTE      ADCON1
      000000D8H.4 SFRSYM    DATA     BIT       P5_4
      000000A0H.7 SFRSYM    DATA     BIT       P2_7
      000000E9H   SFRSYM    DATA     BYTE      ADCON2
      000000B8H   SFRSYM    DATA     BYTE      IP
      000000D8H.5 SFRSYM    DATA     BIT       P5_5
      000000CEH   SFRSYM    DATA     BYTE      CCEN
      000000D8H.6 SFRSYM    DATA     BIT       P5_6
      000000D8H.7 SFRSYM    DATA     BIT       P5_7
      000000D0H.7 SFRSYM    DATA     BIT       CY
      000000D2H   SFRSYM    DATA     BYTE      T34MOD
      000000F4H   SFRSYM    DATA     BYTE      I2CMSA
      000000D7H   SFRSYM    DATA     BYTE      SCKSTAU
      000000F5H   SFRSYM    DATA     BYTE      I2CMCR
      00000081H   SFRSYM    DATA     BYTE      SP
      000000D0H.2 SFRSYM    DATA     BIT       OV
      000000F2H   SFRSYM    DATA     BYTE      I2CSCR
      000000D9H   SFRSYM    DATA     BYTE      ADCCHS
      000000C8H.7 SFRSYM    DATA     BIT       T2PS
      000000D1H   SFRSYM    DATA     BYTE      ADCMPC
      000000CBH   SFRSYM    DATA     BYTE      RLDH
      000000D5H   SFRSYM    DATA     BYTE      ADCMPH
      000000CAH   SFRSYM    DATA     BYTE      RLDL
      00000080H.0 SFRSYM    DATA     BIT       P00
LX51 LINKER/LOCATER V4.66.93.0                                                        06/27/2023  19:17:35  PAGE 28


      00000090H.0 SFRSYM    DATA     BIT       P10
      00000080H.1 SFRSYM    DATA     BIT       P01
      000000F7H   SFRSYM    DATA     BYTE      I2CMTP
      00000087H   SFRSYM    DATA     BYTE      PCON
      000000A0H.0 SFRSYM    DATA     BIT       P20
      00000090H.1 SFRSYM    DATA     BIT       P11
      00000080H.2 SFRSYM    DATA     BIT       P02
      000000F5H   SFRSYM    DATA     BYTE      I2CMSR
      000000A0H.1 SFRSYM    DATA     BIT       P21
      00000090H.2 SFRSYM    DATA     BIT       P12
      00000080H.3 SFRSYM    DATA     BIT       P03
      000000D4H   SFRSYM    DATA     BYTE      ADCMPL
      000000A0H.2 SFRSYM    DATA     BIT       P22
      00000090H.3 SFRSYM    DATA     BIT       P13
      00000080H.4 SFRSYM    DATA     BIT       P04
      000000D8H.0 SFRSYM    DATA     BIT       P50
      000000A0H.3 SFRSYM    DATA     BIT       P23
      00000090H.4 SFRSYM    DATA     BIT       P14
      00000080H.5 SFRSYM    DATA     BIT       P05
      00000089H   SFRSYM    DATA     BYTE      TMOD
      00000088H   SFRSYM    DATA     BYTE      TCON
      000000D8H.1 SFRSYM    DATA     BIT       P51
      00000090H.5 SFRSYM    DATA     BIT       P15
      00000080H.6 SFRSYM    DATA     BIT       P06
      000000FAH   SFRSYM    DATA     BYTE      PCRCDH
      000000D8H.2 SFRSYM    DATA     BIT       P52
      00000090H.6 SFRSYM    DATA     BIT       P16
      00000080H.7 SFRSYM    DATA     BIT       P07
      000000D8H.3 SFRSYM    DATA     BIT       P53
      00000090H.7 SFRSYM    DATA     BIT       P17
      000000F2H   SFRSYM    DATA     BYTE      I2CSSR
      000000D8H.4 SFRSYM    DATA     BIT       P54
      000000ECH   SFRSYM    DATA     BYTE      SPCR
      000000DDH   SFRSYM    DATA     BYTE      ADRESH
      000000D8H.5 SFRSYM    DATA     BIT       P55
      000000F9H   SFRSYM    DATA     BYTE      PCRCDL
      000000EEH   SFRSYM    DATA     BYTE      SPDR
      000000EFH   SFRSYM    DATA     BYTE      SSCR
      000000D3H   SFRSYM    DATA     BYTE      ADDLYL
      000000DCH   SFRSYM    DATA     BYTE      ADRESL
      00000088H.1 SFRSYM    DATA     BIT       IE0
      00000088H.3 SFRSYM    DATA     BIT       IE1
      0000008FH   SFRSYM    DATA     BYTE      CLKDIV
      000000F0H   SFRSYM    DATA     BYTE      B
      00000091H   SFRSYM    DATA     BYTE      FUNCCR
      0000009AH   SFRSYM    DATA     BYTE      P0TRIS
      000000A1H   SFRSYM    DATA     BYTE      P1TRIS
      000000A2H   SFRSYM    DATA     BYTE      P2TRIS
      000000E0H   SFRSYM    DATA     BYTE      ACC
      000000D6H   SFRSYM    DATA     BYTE      SCKSEL
      000000A8H.4 SFRSYM    DATA     BIT       ES0
      000000A8H.1 SFRSYM    DATA     BIT       ET0
      000000A8H.6 SFRSYM    DATA     BIT       ES1
      000000EDH   SFRSYM    DATA     BYTE      SPSR
      000000A5H   SFRSYM    DATA     BYTE      P5TRIS
      000000A8H.3 SFRSYM    DATA     BIT       ET1
      00000088H.5 SFRSYM    DATA     BIT       TF0
      000000A8H.5 SFRSYM    DATA     BIT       ET2
      00000098H.0 SFRSYM    DATA     BIT       RI0
      00000088H.7 SFRSYM    DATA     BIT       TF1
      0000008CH   SFRSYM    DATA     BYTE      TH0
      000000A8H.0 SFRSYM    DATA     BIT       EX0
      00000098H.1 SFRSYM    DATA     BIT       TI0
      00000088H.0 SFRSYM    DATA     BIT       IT0
      0000008DH   SFRSYM    DATA     BYTE      TH1
LX51 LINKER/LOCATER V4.66.93.0                                                        06/27/2023  19:17:35  PAGE 29


      000000A8H.2 SFRSYM    DATA     BIT       EX1
      00000088H.2 SFRSYM    DATA     BIT       IT1
      000000CDH   SFRSYM    DATA     BYTE      TH2
      000000D0H.0 SFRSYM    DATA     BIT       P
      000000DBH   SFRSYM    DATA     BYTE      TH3
      000000E3H   SFRSYM    DATA     BYTE      TH4
      0000008AH   SFRSYM    DATA     BYTE      TL0
      000000F0H.0 SFRSYM    DATA     BIT       B_0
      0000008BH   SFRSYM    DATA     BYTE      TL1
      000000F0H.1 SFRSYM    DATA     BIT       B_1
      00000098H.2 SFRSYM    DATA     BIT       U0RB8
      000000CCH   SFRSYM    DATA     BYTE      TL2
      000000F0H.2 SFRSYM    DATA     BIT       B_2
      000000B8H.4 SFRSYM    DATA     BIT       PS0
      000000DAH   SFRSYM    DATA     BYTE      TL3
      000000BFH   SFRSYM    DATA     BYTE      BUZCON
      000000F0H.3 SFRSYM    DATA     BIT       B_3
      000000B8H.1 SFRSYM    DATA     BIT       PT0
      000000B8H.6 SFRSYM    DATA     BIT       PS1
      00000098H.3 SFRSYM    DATA     BIT       U0TB8
      000000E2H   SFRSYM    DATA     BYTE      TL4
      000000F0H.4 SFRSYM    DATA     BIT       B_4
      000000D0H.3 SFRSYM    DATA     BIT       RS0
      000000B8H.3 SFRSYM    DATA     BIT       PT1
      000000F0H.5 SFRSYM    DATA     BIT       B_5
      000000D0H.4 SFRSYM    DATA     BIT       RS1
      000000B8H.5 SFRSYM    DATA     BIT       PT2
      00000098H.7 SFRSYM    DATA     BIT       U0SM0
      00000088H.4 SFRSYM    DATA     BIT       TR0
      000000BEH   SFRSYM    DATA     BYTE      BUZDIV
      000000F0H.6 SFRSYM    DATA     BIT       B_6
      000000E0H.0 SFRSYM    DATA     BIT       ACC_0
      00000098H.6 SFRSYM    DATA     BIT       U0SM1
      00000088H.6 SFRSYM    DATA     BIT       TR1
      000000F0H.7 SFRSYM    DATA     BIT       B_7
      000000E0H.1 SFRSYM    DATA     BIT       ACC_1
      000000B8H.0 SFRSYM    DATA     BIT       PX0
      00000098H.5 SFRSYM    DATA     BIT       U0SM2
      000000E0H.2 SFRSYM    DATA     BIT       ACC_2
      000000B8H.2 SFRSYM    DATA     BIT       PX1
      000000E0H.3 SFRSYM    DATA     BIT       ACC_3
      000000E0H.4 SFRSYM    DATA     BIT       ACC_4
      000000E0H.5 SFRSYM    DATA     BIT       ACC_5
      000000E0H.6 SFRSYM    DATA     BIT       ACC_6
      000000E0H.7 SFRSYM    DATA     BIT       ACC_7
      000000BDH   SFRSYM    DATA     BYTE      WUTCRH
      00000099H   SFRSYM    DATA     BYTE      SBUF0
      000000EBH   SFRSYM    DATA     BYTE      SBUF1
      000000BCH   SFRSYM    DATA     BYTE      WUTCRL
      00000098H   SFRSYM    DATA     BYTE      SCON0
      000000EAH   SFRSYM    DATA     BYTE      SCON1
      000000C8H   SFRSYM    DATA     BYTE      T2CON
      00000086H   SFRSYM    DATA     BYTE      DPS
      000000FEH   SFRSYM    DATA     BYTE      MDATA
      000000F6H   SFRSYM    DATA     BYTE      I2CMBUF
      000000F1H   SFRSYM    DATA     BYTE      I2CSADR
      00000098H.4 SFRSYM    DATA     BIT       U0REN
      000000C8H.5 SFRSYM    DATA     BIT       CAPES
      000000FDH   SFRSYM    DATA     BYTE      MADRH
      0000008EH   SFRSYM    DATA     BYTE      CKCON
      000000F3H   SFRSYM    DATA     BYTE      I2CSBUF
      000000FCH   SFRSYM    DATA     BYTE      MADRL
      000000D0H.5 SFRSYM    DATA     BIT       F0
      000000FBH   SFRSYM    DATA     BYTE      MLOCK
      000000D0H   SFRSYM    DATA     BYTE      PSW
LX51 LINKER/LOCATER V4.66.93.0                                                        06/27/2023  19:17:35  PAGE 30


      00000097H   SFRSYM    DATA     BYTE      WDCON

      01002E93H   BLOCK     CODE     ---       LVL=0
      01002E93H   LINE      CODE     ---       #66
      01002E93H   LINE      CODE     ---       #67
      01002E93H   LINE      CODE     ---       #68
      01002E96H   LINE      CODE     ---       #69
      ---         BLOCKEND  ---      ---       LVL=0

      01002DCEH   BLOCK     CODE     ---       LVL=0
      00000007H   SYMBOL    DATA     BYTE      ADCClkDiv
      00000005H   SYMBOL    DATA     BYTE      ADCResultTpye
      01002DCEH   LINE      CODE     ---       #89
      01002DCEH   LINE      CODE     ---       #90
      01002DCEH   LINE      CODE     ---       #91
      01002DD1H   LINE      CODE     ---       #92
      01002DD4H   LINE      CODE     ---       #94
      01002DD7H   LINE      CODE     ---       #95
      01002DDDH   LINE      CODE     ---       #96
      ---         BLOCKEND  ---      ---       LVL=0
      00000007H   SYMBOL    DATA     BYTE      ADCTGSource
      00000005H   SYMBOL    DATA     BYTE      TGMode

      01002EA3H   BLOCK     CODE     ---       LVL=0
      00000007H   SYMBOL    DATA     BYTE      ADCChannel
      01002EA3H   LINE      CODE     ---       #143
      01002EA3H   LINE      CODE     ---       #144
      01002EA3H   LINE      CODE     ---       #145
      01002EA5H   LINE      CODE     ---       #146
      ---         BLOCKEND  ---      ---       LVL=0
      00000007H   SYMBOL    DATA     BYTE      An63Channel
      00000006H   SYMBOL    DATA     WORD      TrigTime
      00000006H   SYMBOL    DATA     WORD      ADCCompareValue

      01002BBAH   BLOCK     CODE     ---       LVL=0
      01002BBAH   LINE      CODE     ---       #208
      01002BBAH   LINE      CODE     ---       #209
      01002BBAH   LINE      CODE     ---       #210
      01002BC1H   LINE      CODE     ---       #211
      01002BC1H   LINE      CODE     ---       #212
      01002BD4H   LINE      CODE     ---       #213
      01002BD4H   LINE      CODE     ---       #214
      01002BDEH   LINE      CODE     ---       #215
      ---         BLOCKEND  ---      ---       LVL=0

      01000003H   BLOCK     CODE     ---       LVL=0
      01000003H   LINE      CODE     ---       #280
      01000003H   LINE      CODE     ---       #281
      01000003H   LINE      CODE     ---       #282
      0100000AH   LINE      CODE     ---       #283
      ---         BLOCKEND  ---      ---       LVL=0
      00000007H   SYMBOL    DATA     BYTE      ADCVref

      ---         MODULE    ---      ---       FLASH
      000000C8H.0 SFRSYM    DATA     BIT       T2I0
      000000C3H   SFRSYM    DATA     BYTE      CCH1
      00000080H   SFRSYM    DATA     BYTE      P0
      000000C8H.1 SFRSYM    DATA     BIT       T2I1
      000000C5H   SFRSYM    DATA     BYTE      CCH2
      00000090H   SFRSYM    DATA     BYTE      P1
      000000C7H   SFRSYM    DATA     BYTE      CCH3
      000000ACH   SFRSYM    DATA     BYTE      P0EXTIE
      000000A0H   SFRSYM    DATA     BYTE      P2
      000000B4H   SFRSYM    DATA     BYTE      P0EXTIF
      000000ADH   SFRSYM    DATA     BYTE      P1EXTIE
LX51 LINKER/LOCATER V4.66.93.0                                                        06/27/2023  19:17:35  PAGE 31


      000000D0H.6 SFRSYM    DATA     BIT       AC
      000000FFH   SFRSYM    DATA     BYTE      MCTRL
      000000C2H   SFRSYM    DATA     BYTE      CCL1
      000000B5H   SFRSYM    DATA     BYTE      P1EXTIF
      000000AEH   SFRSYM    DATA     BYTE      P2EXTIE
      000000D8H   SFRSYM    DATA     BYTE      P5
      000000C4H   SFRSYM    DATA     BYTE      CCL2
      000000B6H   SFRSYM    DATA     BYTE      P2EXTIF
      000000A8H.7 SFRSYM    DATA     BIT       EA
      000000C6H   SFRSYM    DATA     BYTE      CCL3
      000000AAH   SFRSYM    DATA     BYTE      EIE2
      000000B2H   SFRSYM    DATA     BYTE      EIF2
      0000009CH   SFRSYM    DATA     BYTE      P5EXTIE
      000000A7H   SFRSYM    DATA     BYTE      P5EXTIF
      000000C8H.3 SFRSYM    DATA     BIT       T2R0
      000000C8H.4 SFRSYM    DATA     BIT       T2R1
      00000083H   SFRSYM    DATA     BYTE      DPH0
      000000A8H   SFRSYM    DATA     BYTE      IE
      00000085H   SFRSYM    DATA     BYTE      DPH1
      00000080H.0 SFRSYM    DATA     BIT       P0_0
      000000B9H   SFRSYM    DATA     BYTE      EIP1
      00000090H.0 SFRSYM    DATA     BIT       P1_0
      00000080H.1 SFRSYM    DATA     BIT       P0_1
      000000BAH   SFRSYM    DATA     BYTE      EIP2
      00000082H   SFRSYM    DATA     BYTE      DPL0
      000000A0H.0 SFRSYM    DATA     BIT       P2_0
      00000090H.1 SFRSYM    DATA     BIT       P1_1
      00000080H.2 SFRSYM    DATA     BIT       P0_2
      000000BBH   SFRSYM    DATA     BYTE      EIP3
      00000084H   SFRSYM    DATA     BYTE      DPL1
      000000A0H.1 SFRSYM    DATA     BIT       P2_1
      00000090H.2 SFRSYM    DATA     BIT       P1_2
      00000080H.3 SFRSYM    DATA     BIT       P0_3
      000000A0H.2 SFRSYM    DATA     BIT       P2_2
      00000090H.3 SFRSYM    DATA     BIT       P1_3
      00000080H.4 SFRSYM    DATA     BIT       P0_4
      000000D8H.0 SFRSYM    DATA     BIT       P5_0
      000000C8H.6 SFRSYM    DATA     BIT       I3FR
      000000A0H.3 SFRSYM    DATA     BIT       P2_3
      00000090H.4 SFRSYM    DATA     BIT       P1_4
      00000080H.5 SFRSYM    DATA     BIT       P0_5
      000000CFH   SFRSYM    DATA     BYTE      T2IE
      00000096H   SFRSYM    DATA     BYTE      TA
      000000D8H.1 SFRSYM    DATA     BIT       P5_1
      000000A0H.4 SFRSYM    DATA     BIT       P2_4
      00000090H.5 SFRSYM    DATA     BIT       P1_5
      00000080H.6 SFRSYM    DATA     BIT       P0_6
      000000C9H   SFRSYM    DATA     BYTE      T2IF
      000000D8H.2 SFRSYM    DATA     BIT       P5_2
      000000C8H.2 SFRSYM    DATA     BIT       T2CM
      000000A0H.5 SFRSYM    DATA     BIT       P2_5
      00000090H.6 SFRSYM    DATA     BIT       P1_6
      00000080H.7 SFRSYM    DATA     BIT       P0_7
      000000DFH   SFRSYM    DATA     BYTE      ADCON0
      000000D8H.3 SFRSYM    DATA     BIT       P5_3
      000000A0H.6 SFRSYM    DATA     BIT       P2_6
      00000090H.7 SFRSYM    DATA     BIT       P1_7
      000000DEH   SFRSYM    DATA     BYTE      ADCON1
      000000D8H.4 SFRSYM    DATA     BIT       P5_4
      000000A0H.7 SFRSYM    DATA     BIT       P2_7
      000000E9H   SFRSYM    DATA     BYTE      ADCON2
      000000B8H   SFRSYM    DATA     BYTE      IP
      000000D8H.5 SFRSYM    DATA     BIT       P5_5
      000000CEH   SFRSYM    DATA     BYTE      CCEN
      000000D8H.6 SFRSYM    DATA     BIT       P5_6
LX51 LINKER/LOCATER V4.66.93.0                                                        06/27/2023  19:17:35  PAGE 32


      000000D8H.7 SFRSYM    DATA     BIT       P5_7
      000000D0H.7 SFRSYM    DATA     BIT       CY
      000000D2H   SFRSYM    DATA     BYTE      T34MOD
      000000F4H   SFRSYM    DATA     BYTE      I2CMSA
      000000D7H   SFRSYM    DATA     BYTE      SCKSTAU
      000000F5H   SFRSYM    DATA     BYTE      I2CMCR
      00000081H   SFRSYM    DATA     BYTE      SP
      000000D0H.2 SFRSYM    DATA     BIT       OV
      000000F2H   SFRSYM    DATA     BYTE      I2CSCR
      000000D9H   SFRSYM    DATA     BYTE      ADCCHS
      000000C8H.7 SFRSYM    DATA     BIT       T2PS
      000000D1H   SFRSYM    DATA     BYTE      ADCMPC
      000000CBH   SFRSYM    DATA     BYTE      RLDH
      000000D5H   SFRSYM    DATA     BYTE      ADCMPH
      000000CAH   SFRSYM    DATA     BYTE      RLDL
      00000080H.0 SFRSYM    DATA     BIT       P00
      00000090H.0 SFRSYM    DATA     BIT       P10
      00000080H.1 SFRSYM    DATA     BIT       P01
      000000F7H   SFRSYM    DATA     BYTE      I2CMTP
      00000087H   SFRSYM    DATA     BYTE      PCON
      000000A0H.0 SFRSYM    DATA     BIT       P20
      00000090H.1 SFRSYM    DATA     BIT       P11
      00000080H.2 SFRSYM    DATA     BIT       P02
      000000F5H   SFRSYM    DATA     BYTE      I2CMSR
      000000A0H.1 SFRSYM    DATA     BIT       P21
      00000090H.2 SFRSYM    DATA     BIT       P12
      00000080H.3 SFRSYM    DATA     BIT       P03
      000000D4H   SFRSYM    DATA     BYTE      ADCMPL
      000000A0H.2 SFRSYM    DATA     BIT       P22
      00000090H.3 SFRSYM    DATA     BIT       P13
      00000080H.4 SFRSYM    DATA     BIT       P04
      000000D8H.0 SFRSYM    DATA     BIT       P50
      000000A0H.3 SFRSYM    DATA     BIT       P23
      00000090H.4 SFRSYM    DATA     BIT       P14
      00000080H.5 SFRSYM    DATA     BIT       P05
      00000089H   SFRSYM    DATA     BYTE      TMOD
      00000088H   SFRSYM    DATA     BYTE      TCON
      000000D8H.1 SFRSYM    DATA     BIT       P51
      00000090H.5 SFRSYM    DATA     BIT       P15
      00000080H.6 SFRSYM    DATA     BIT       P06
      000000FAH   SFRSYM    DATA     BYTE      PCRCDH
      000000D8H.2 SFRSYM    DATA     BIT       P52
      00000090H.6 SFRSYM    DATA     BIT       P16
      00000080H.7 SFRSYM    DATA     BIT       P07
      000000D8H.3 SFRSYM    DATA     BIT       P53
      00000090H.7 SFRSYM    DATA     BIT       P17
      000000F2H   SFRSYM    DATA     BYTE      I2CSSR
      000000D8H.4 SFRSYM    DATA     BIT       P54
      000000ECH   SFRSYM    DATA     BYTE      SPCR
      000000DDH   SFRSYM    DATA     BYTE      ADRESH
      000000D8H.5 SFRSYM    DATA     BIT       P55
      000000F9H   SFRSYM    DATA     BYTE      PCRCDL
      000000EEH   SFRSYM    DATA     BYTE      SPDR
      000000EFH   SFRSYM    DATA     BYTE      SSCR
      000000D3H   SFRSYM    DATA     BYTE      ADDLYL
      000000DCH   SFRSYM    DATA     BYTE      ADRESL
      00000088H.1 SFRSYM    DATA     BIT       IE0
      00000088H.3 SFRSYM    DATA     BIT       IE1
      0000008FH   SFRSYM    DATA     BYTE      CLKDIV
      000000F0H   SFRSYM    DATA     BYTE      B
      00000091H   SFRSYM    DATA     BYTE      FUNCCR
      0000009AH   SFRSYM    DATA     BYTE      P0TRIS
      000000A1H   SFRSYM    DATA     BYTE      P1TRIS
      000000A2H   SFRSYM    DATA     BYTE      P2TRIS
      000000E0H   SFRSYM    DATA     BYTE      ACC
LX51 LINKER/LOCATER V4.66.93.0                                                        06/27/2023  19:17:35  PAGE 33


      000000D6H   SFRSYM    DATA     BYTE      SCKSEL
      000000A8H.4 SFRSYM    DATA     BIT       ES0
      000000A8H.1 SFRSYM    DATA     BIT       ET0
      000000A8H.6 SFRSYM    DATA     BIT       ES1
      000000EDH   SFRSYM    DATA     BYTE      SPSR
      000000A5H   SFRSYM    DATA     BYTE      P5TRIS
      000000A8H.3 SFRSYM    DATA     BIT       ET1
      00000088H.5 SFRSYM    DATA     BIT       TF0
      000000A8H.5 SFRSYM    DATA     BIT       ET2
      00000098H.0 SFRSYM    DATA     BIT       RI0
      00000088H.7 SFRSYM    DATA     BIT       TF1
      0000008CH   SFRSYM    DATA     BYTE      TH0
      000000A8H.0 SFRSYM    DATA     BIT       EX0
      00000098H.1 SFRSYM    DATA     BIT       TI0
      00000088H.0 SFRSYM    DATA     BIT       IT0
      0000008DH   SFRSYM    DATA     BYTE      TH1
      000000A8H.2 SFRSYM    DATA     BIT       EX1
      00000088H.2 SFRSYM    DATA     BIT       IT1
      000000CDH   SFRSYM    DATA     BYTE      TH2
      000000D0H.0 SFRSYM    DATA     BIT       P
      000000DBH   SFRSYM    DATA     BYTE      TH3
      000000E3H   SFRSYM    DATA     BYTE      TH4
      0000008AH   SFRSYM    DATA     BYTE      TL0
      000000F0H.0 SFRSYM    DATA     BIT       B_0
      0000008BH   SFRSYM    DATA     BYTE      TL1
      000000F0H.1 SFRSYM    DATA     BIT       B_1
      00000098H.2 SFRSYM    DATA     BIT       U0RB8
      000000CCH   SFRSYM    DATA     BYTE      TL2
      000000F0H.2 SFRSYM    DATA     BIT       B_2
      000000B8H.4 SFRSYM    DATA     BIT       PS0
      000000DAH   SFRSYM    DATA     BYTE      TL3
      000000BFH   SFRSYM    DATA     BYTE      BUZCON
      000000F0H.3 SFRSYM    DATA     BIT       B_3
      000000B8H.1 SFRSYM    DATA     BIT       PT0
      000000B8H.6 SFRSYM    DATA     BIT       PS1
      00000098H.3 SFRSYM    DATA     BIT       U0TB8
      000000E2H   SFRSYM    DATA     BYTE      TL4
      000000F0H.4 SFRSYM    DATA     BIT       B_4
      000000D0H.3 SFRSYM    DATA     BIT       RS0
      000000B8H.3 SFRSYM    DATA     BIT       PT1
      000000F0H.5 SFRSYM    DATA     BIT       B_5
      000000D0H.4 SFRSYM    DATA     BIT       RS1
      000000B8H.5 SFRSYM    DATA     BIT       PT2
      00000098H.7 SFRSYM    DATA     BIT       U0SM0
      00000088H.4 SFRSYM    DATA     BIT       TR0
      000000BEH   SFRSYM    DATA     BYTE      BUZDIV
      000000F0H.6 SFRSYM    DATA     BIT       B_6
      000000E0H.0 SFRSYM    DATA     BIT       ACC_0
      00000098H.6 SFRSYM    DATA     BIT       U0SM1
      00000088H.6 SFRSYM    DATA     BIT       TR1
      000000F0H.7 SFRSYM    DATA     BIT       B_7
      000000E0H.1 SFRSYM    DATA     BIT       ACC_1
      000000B8H.0 SFRSYM    DATA     BIT       PX0
      00000098H.5 SFRSYM    DATA     BIT       U0SM2
      000000E0H.2 SFRSYM    DATA     BIT       ACC_2
      000000B8H.2 SFRSYM    DATA     BIT       PX1
      000000E0H.3 SFRSYM    DATA     BIT       ACC_3
      000000E0H.4 SFRSYM    DATA     BIT       ACC_4
      000000E0H.5 SFRSYM    DATA     BIT       ACC_5
      000000E0H.6 SFRSYM    DATA     BIT       ACC_6
      000000E0H.7 SFRSYM    DATA     BIT       ACC_7
      000000BDH   SFRSYM    DATA     BYTE      WUTCRH
      00000099H   SFRSYM    DATA     BYTE      SBUF0
      000000EBH   SFRSYM    DATA     BYTE      SBUF1
      000000BCH   SFRSYM    DATA     BYTE      WUTCRL
LX51 LINKER/LOCATER V4.66.93.0                                                        06/27/2023  19:17:35  PAGE 34


      00000098H   SFRSYM    DATA     BYTE      SCON0
      000000EAH   SFRSYM    DATA     BYTE      SCON1
      000000C8H   SFRSYM    DATA     BYTE      T2CON
      00000086H   SFRSYM    DATA     BYTE      DPS
      000000FEH   SFRSYM    DATA     BYTE      MDATA
      000000F6H   SFRSYM    DATA     BYTE      I2CMBUF
      000000F1H   SFRSYM    DATA     BYTE      I2CSADR
      00000098H.4 SFRSYM    DATA     BIT       U0REN
      000000C8H.5 SFRSYM    DATA     BIT       CAPES
      000000FDH   SFRSYM    DATA     BYTE      MADRH
      0000008EH   SFRSYM    DATA     BYTE      CKCON
      000000F3H   SFRSYM    DATA     BYTE      I2CSBUF
      000000FCH   SFRSYM    DATA     BYTE      MADRL
      000000D0H.5 SFRSYM    DATA     BIT       F0
      000000FBH   SFRSYM    DATA     BYTE      MLOCK
      000000D0H   SFRSYM    DATA     BYTE      PSW
      00000097H   SFRSYM    DATA     BYTE      WDCON
      00000002H   SYMBOL    DATA     BYTE      FLASHModule
      00000004H   SYMBOL    DATA     WORD      Addr
      00000003H   SYMBOL    DATA     BYTE      Data
      00000003H   SYMBOL    DATA     BYTE      FLASHModule
      00000004H   SYMBOL    DATA     WORD      Addr
      00000003H   SYMBOL    DATA     BYTE      FLASHModule
      00000004H   SYMBOL    DATA     WORD      Addr
      00000004H   SYMBOL    DATA     WORD      EAddr

      ---         MODULE    ---      ---       GPIO
      000000C8H.0 SFRSYM    DATA     BIT       T2I0
      000000C3H   SFRSYM    DATA     BYTE      CCH1
      00000080H   SFRSYM    DATA     BYTE      P0
      000000C8H.1 SFRSYM    DATA     BIT       T2I1
      000000C5H   SFRSYM    DATA     BYTE      CCH2
      00000090H   SFRSYM    DATA     BYTE      P1
      000000C7H   SFRSYM    DATA     BYTE      CCH3
      000000ACH   SFRSYM    DATA     BYTE      P0EXTIE
      000000A0H   SFRSYM    DATA     BYTE      P2
      000000B4H   SFRSYM    DATA     BYTE      P0EXTIF
      000000ADH   SFRSYM    DATA     BYTE      P1EXTIE
      000000D0H.6 SFRSYM    DATA     BIT       AC
      000000FFH   SFRSYM    DATA     BYTE      MCTRL
      000000C2H   SFRSYM    DATA     BYTE      CCL1
      000000B5H   SFRSYM    DATA     BYTE      P1EXTIF
      000000AEH   SFRSYM    DATA     BYTE      P2EXTIE
      000000D8H   SFRSYM    DATA     BYTE      P5
      000000C4H   SFRSYM    DATA     BYTE      CCL2
      000000B6H   SFRSYM    DATA     BYTE      P2EXTIF
      000000A8H.7 SFRSYM    DATA     BIT       EA
      000000C6H   SFRSYM    DATA     BYTE      CCL3
      000000AAH   SFRSYM    DATA     BYTE      EIE2
      000000B2H   SFRSYM    DATA     BYTE      EIF2
      0000009CH   SFRSYM    DATA     BYTE      P5EXTIE
      000000A7H   SFRSYM    DATA     BYTE      P5EXTIF
      000000C8H.3 SFRSYM    DATA     BIT       T2R0
      000000C8H.4 SFRSYM    DATA     BIT       T2R1
      00000083H   SFRSYM    DATA     BYTE      DPH0
      000000A8H   SFRSYM    DATA     BYTE      IE
      00000085H   SFRSYM    DATA     BYTE      DPH1
      00000080H.0 SFRSYM    DATA     BIT       P0_0
      000000B9H   SFRSYM    DATA     BYTE      EIP1
      00000090H.0 SFRSYM    DATA     BIT       P1_0
      00000080H.1 SFRSYM    DATA     BIT       P0_1
      000000BAH   SFRSYM    DATA     BYTE      EIP2
      00000082H   SFRSYM    DATA     BYTE      DPL0
      000000A0H.0 SFRSYM    DATA     BIT       P2_0
      00000090H.1 SFRSYM    DATA     BIT       P1_1
LX51 LINKER/LOCATER V4.66.93.0                                                        06/27/2023  19:17:35  PAGE 35


      00000080H.2 SFRSYM    DATA     BIT       P0_2
      000000BBH   SFRSYM    DATA     BYTE      EIP3
      00000084H   SFRSYM    DATA     BYTE      DPL1
      000000A0H.1 SFRSYM    DATA     BIT       P2_1
      00000090H.2 SFRSYM    DATA     BIT       P1_2
      00000080H.3 SFRSYM    DATA     BIT       P0_3
      000000A0H.2 SFRSYM    DATA     BIT       P2_2
      00000090H.3 SFRSYM    DATA     BIT       P1_3
      00000080H.4 SFRSYM    DATA     BIT       P0_4
      000000D8H.0 SFRSYM    DATA     BIT       P5_0
      000000C8H.6 SFRSYM    DATA     BIT       I3FR
      000000A0H.3 SFRSYM    DATA     BIT       P2_3
      00000090H.4 SFRSYM    DATA     BIT       P1_4
      00000080H.5 SFRSYM    DATA     BIT       P0_5
      000000CFH   SFRSYM    DATA     BYTE      T2IE
      00000096H   SFRSYM    DATA     BYTE      TA
      000000D8H.1 SFRSYM    DATA     BIT       P5_1
      000000A0H.4 SFRSYM    DATA     BIT       P2_4
      00000090H.5 SFRSYM    DATA     BIT       P1_5
      00000080H.6 SFRSYM    DATA     BIT       P0_6
      000000C9H   SFRSYM    DATA     BYTE      T2IF
      000000D8H.2 SFRSYM    DATA     BIT       P5_2
      000000C8H.2 SFRSYM    DATA     BIT       T2CM
      000000A0H.5 SFRSYM    DATA     BIT       P2_5
      00000090H.6 SFRSYM    DATA     BIT       P1_6
      00000080H.7 SFRSYM    DATA     BIT       P0_7
      000000DFH   SFRSYM    DATA     BYTE      ADCON0
      000000D8H.3 SFRSYM    DATA     BIT       P5_3
      000000A0H.6 SFRSYM    DATA     BIT       P2_6
      00000090H.7 SFRSYM    DATA     BIT       P1_7
      000000DEH   SFRSYM    DATA     BYTE      ADCON1
      000000D8H.4 SFRSYM    DATA     BIT       P5_4
      000000A0H.7 SFRSYM    DATA     BIT       P2_7
      000000E9H   SFRSYM    DATA     BYTE      ADCON2
      000000B8H   SFRSYM    DATA     BYTE      IP
      000000D8H.5 SFRSYM    DATA     BIT       P5_5
      000000CEH   SFRSYM    DATA     BYTE      CCEN
      000000D8H.6 SFRSYM    DATA     BIT       P5_6
      000000D8H.7 SFRSYM    DATA     BIT       P5_7
      000000D0H.7 SFRSYM    DATA     BIT       CY
      000000D2H   SFRSYM    DATA     BYTE      T34MOD
      000000F4H   SFRSYM    DATA     BYTE      I2CMSA
      000000D7H   SFRSYM    DATA     BYTE      SCKSTAU
      000000F5H   SFRSYM    DATA     BYTE      I2CMCR
      00000081H   SFRSYM    DATA     BYTE      SP
      000000D0H.2 SFRSYM    DATA     BIT       OV
      000000F2H   SFRSYM    DATA     BYTE      I2CSCR
      000000D9H   SFRSYM    DATA     BYTE      ADCCHS
      000000C8H.7 SFRSYM    DATA     BIT       T2PS
      000000D1H   SFRSYM    DATA     BYTE      ADCMPC
      000000CBH   SFRSYM    DATA     BYTE      RLDH
      000000D5H   SFRSYM    DATA     BYTE      ADCMPH
      000000CAH   SFRSYM    DATA     BYTE      RLDL
      00000080H.0 SFRSYM    DATA     BIT       P00
      00000090H.0 SFRSYM    DATA     BIT       P10
      00000080H.1 SFRSYM    DATA     BIT       P01
      000000F7H   SFRSYM    DATA     BYTE      I2CMTP
      00000087H   SFRSYM    DATA     BYTE      PCON
      000000A0H.0 SFRSYM    DATA     BIT       P20
      00000090H.1 SFRSYM    DATA     BIT       P11
      00000080H.2 SFRSYM    DATA     BIT       P02
      000000F5H   SFRSYM    DATA     BYTE      I2CMSR
      000000A0H.1 SFRSYM    DATA     BIT       P21
      00000090H.2 SFRSYM    DATA     BIT       P12
      00000080H.3 SFRSYM    DATA     BIT       P03
LX51 LINKER/LOCATER V4.66.93.0                                                        06/27/2023  19:17:35  PAGE 36


      000000D4H   SFRSYM    DATA     BYTE      ADCMPL
      000000A0H.2 SFRSYM    DATA     BIT       P22
      00000090H.3 SFRSYM    DATA     BIT       P13
      00000080H.4 SFRSYM    DATA     BIT       P04
      000000D8H.0 SFRSYM    DATA     BIT       P50
      000000A0H.3 SFRSYM    DATA     BIT       P23
      00000090H.4 SFRSYM    DATA     BIT       P14
      00000080H.5 SFRSYM    DATA     BIT       P05
      00000089H   SFRSYM    DATA     BYTE      TMOD
      00000088H   SFRSYM    DATA     BYTE      TCON
      000000D8H.1 SFRSYM    DATA     BIT       P51
      00000090H.5 SFRSYM    DATA     BIT       P15
      00000080H.6 SFRSYM    DATA     BIT       P06
      000000FAH   SFRSYM    DATA     BYTE      PCRCDH
      000000D8H.2 SFRSYM    DATA     BIT       P52
      00000090H.6 SFRSYM    DATA     BIT       P16
      00000080H.7 SFRSYM    DATA     BIT       P07
      000000D8H.3 SFRSYM    DATA     BIT       P53
      00000090H.7 SFRSYM    DATA     BIT       P17
      000000F2H   SFRSYM    DATA     BYTE      I2CSSR
      000000D8H.4 SFRSYM    DATA     BIT       P54
      000000ECH   SFRSYM    DATA     BYTE      SPCR
      000000DDH   SFRSYM    DATA     BYTE      ADRESH
      000000D8H.5 SFRSYM    DATA     BIT       P55
      000000F9H   SFRSYM    DATA     BYTE      PCRCDL
      000000EEH   SFRSYM    DATA     BYTE      SPDR
      000000EFH   SFRSYM    DATA     BYTE      SSCR
      000000D3H   SFRSYM    DATA     BYTE      ADDLYL
      000000DCH   SFRSYM    DATA     BYTE      ADRESL
      00000088H.1 SFRSYM    DATA     BIT       IE0
      00000088H.3 SFRSYM    DATA     BIT       IE1
      0000008FH   SFRSYM    DATA     BYTE      CLKDIV
      000000F0H   SFRSYM    DATA     BYTE      B
      00000091H   SFRSYM    DATA     BYTE      FUNCCR
      0000009AH   SFRSYM    DATA     BYTE      P0TRIS
      000000A1H   SFRSYM    DATA     BYTE      P1TRIS
      000000A2H   SFRSYM    DATA     BYTE      P2TRIS
      000000E0H   SFRSYM    DATA     BYTE      ACC
      000000D6H   SFRSYM    DATA     BYTE      SCKSEL
      000000A8H.4 SFRSYM    DATA     BIT       ES0
      000000A8H.1 SFRSYM    DATA     BIT       ET0
      000000A8H.6 SFRSYM    DATA     BIT       ES1
      000000EDH   SFRSYM    DATA     BYTE      SPSR
      000000A5H   SFRSYM    DATA     BYTE      P5TRIS
      000000A8H.3 SFRSYM    DATA     BIT       ET1
      00000088H.5 SFRSYM    DATA     BIT       TF0
      000000A8H.5 SFRSYM    DATA     BIT       ET2
      00000098H.0 SFRSYM    DATA     BIT       RI0
      00000088H.7 SFRSYM    DATA     BIT       TF1
      0000008CH   SFRSYM    DATA     BYTE      TH0
      000000A8H.0 SFRSYM    DATA     BIT       EX0
      00000098H.1 SFRSYM    DATA     BIT       TI0
      00000088H.0 SFRSYM    DATA     BIT       IT0
      0000008DH   SFRSYM    DATA     BYTE      TH1
      000000A8H.2 SFRSYM    DATA     BIT       EX1
      00000088H.2 SFRSYM    DATA     BIT       IT1
      000000CDH   SFRSYM    DATA     BYTE      TH2
      000000D0H.0 SFRSYM    DATA     BIT       P
      000000DBH   SFRSYM    DATA     BYTE      TH3
      000000E3H   SFRSYM    DATA     BYTE      TH4
      0000008AH   SFRSYM    DATA     BYTE      TL0
      000000F0H.0 SFRSYM    DATA     BIT       B_0
      0000008BH   SFRSYM    DATA     BYTE      TL1
      000000F0H.1 SFRSYM    DATA     BIT       B_1
      00000098H.2 SFRSYM    DATA     BIT       U0RB8
LX51 LINKER/LOCATER V4.66.93.0                                                        06/27/2023  19:17:35  PAGE 37


      000000CCH   SFRSYM    DATA     BYTE      TL2
      000000F0H.2 SFRSYM    DATA     BIT       B_2
      000000B8H.4 SFRSYM    DATA     BIT       PS0
      000000DAH   SFRSYM    DATA     BYTE      TL3
      000000BFH   SFRSYM    DATA     BYTE      BUZCON
      000000F0H.3 SFRSYM    DATA     BIT       B_3
      000000B8H.1 SFRSYM    DATA     BIT       PT0
      000000B8H.6 SFRSYM    DATA     BIT       PS1
      00000098H.3 SFRSYM    DATA     BIT       U0TB8
      000000E2H   SFRSYM    DATA     BYTE      TL4
      000000F0H.4 SFRSYM    DATA     BIT       B_4
      000000D0H.3 SFRSYM    DATA     BIT       RS0
      000000B8H.3 SFRSYM    DATA     BIT       PT1
      000000F0H.5 SFRSYM    DATA     BIT       B_5
      000000D0H.4 SFRSYM    DATA     BIT       RS1
      000000B8H.5 SFRSYM    DATA     BIT       PT2
      00000098H.7 SFRSYM    DATA     BIT       U0SM0
      00000088H.4 SFRSYM    DATA     BIT       TR0
      000000BEH   SFRSYM    DATA     BYTE      BUZDIV
      000000F0H.6 SFRSYM    DATA     BIT       B_6
      000000E0H.0 SFRSYM    DATA     BIT       ACC_0
      00000098H.6 SFRSYM    DATA     BIT       U0SM1
      00000088H.6 SFRSYM    DATA     BIT       TR1
      000000F0H.7 SFRSYM    DATA     BIT       B_7
      000000E0H.1 SFRSYM    DATA     BIT       ACC_1
      000000B8H.0 SFRSYM    DATA     BIT       PX0
      00000098H.5 SFRSYM    DATA     BIT       U0SM2
      000000E0H.2 SFRSYM    DATA     BIT       ACC_2
      000000B8H.2 SFRSYM    DATA     BIT       PX1
      000000E0H.3 SFRSYM    DATA     BIT       ACC_3
      000000E0H.4 SFRSYM    DATA     BIT       ACC_4
      000000E0H.5 SFRSYM    DATA     BIT       ACC_5
      000000E0H.6 SFRSYM    DATA     BIT       ACC_6
      000000E0H.7 SFRSYM    DATA     BIT       ACC_7
      000000BDH   SFRSYM    DATA     BYTE      WUTCRH
      00000099H   SFRSYM    DATA     BYTE      SBUF0
      000000EBH   SFRSYM    DATA     BYTE      SBUF1
      000000BCH   SFRSYM    DATA     BYTE      WUTCRL
      00000098H   SFRSYM    DATA     BYTE      SCON0
      000000EAH   SFRSYM    DATA     BYTE      SCON1
      000000C8H   SFRSYM    DATA     BYTE      T2CON
      00000086H   SFRSYM    DATA     BYTE      DPS
      000000FEH   SFRSYM    DATA     BYTE      MDATA
      000000F6H   SFRSYM    DATA     BYTE      I2CMBUF
      000000F1H   SFRSYM    DATA     BYTE      I2CSADR
      00000098H.4 SFRSYM    DATA     BIT       U0REN
      000000C8H.5 SFRSYM    DATA     BIT       CAPES
      000000FDH   SFRSYM    DATA     BYTE      MADRH
      0000008EH   SFRSYM    DATA     BYTE      CKCON
      000000F3H   SFRSYM    DATA     BYTE      I2CSBUF
      000000FCH   SFRSYM    DATA     BYTE      MADRL
      000000D0H.5 SFRSYM    DATA     BIT       F0
      000000FBH   SFRSYM    DATA     BYTE      MLOCK
      000000D0H   SFRSYM    DATA     BYTE      PSW
      00000097H   SFRSYM    DATA     BYTE      WDCON
      00000007H   SYMBOL    DATA     BYTE      Port
      00000005H   SYMBOL    DATA     BYTE      PinMSK
      00000007H   SYMBOL    DATA     BYTE      Port
      00000005H   SYMBOL    DATA     BYTE      PinMSK
      00000007H   SYMBOL    DATA     BYTE      Port
      00000005H   SYMBOL    DATA     BYTE      PinNum
      00000006H   SYMBOL    DATA     BYTE      PinIntFlag
      00000007H   SYMBOL    DATA     BYTE      Port
      00000005H   SYMBOL    DATA     BYTE      PinNum

LX51 LINKER/LOCATER V4.66.93.0                                                        06/27/2023  19:17:35  PAGE 38


      ---         MODULE    ---      ---       SYSTEM
      01002CDAH   PUBLIC    CODE     ---       SYS_DisableSoftwareReset
      000000C8H.0 SFRSYM    DATA     BIT       T2I0
      000000C3H   SFRSYM    DATA     BYTE      CCH1
      00000080H   SFRSYM    DATA     BYTE      P0
      000000C8H.1 SFRSYM    DATA     BIT       T2I1
      000000C5H   SFRSYM    DATA     BYTE      CCH2
      00000090H   SFRSYM    DATA     BYTE      P1
      000000C7H   SFRSYM    DATA     BYTE      CCH3
      000000ACH   SFRSYM    DATA     BYTE      P0EXTIE
      000000A0H   SFRSYM    DATA     BYTE      P2
      000000B4H   SFRSYM    DATA     BYTE      P0EXTIF
      000000ADH   SFRSYM    DATA     BYTE      P1EXTIE
      000000D0H.6 SFRSYM    DATA     BIT       AC
      000000FFH   SFRSYM    DATA     BYTE      MCTRL
      000000C2H   SFRSYM    DATA     BYTE      CCL1
      000000B5H   SFRSYM    DATA     BYTE      P1EXTIF
      000000AEH   SFRSYM    DATA     BYTE      P2EXTIE
      000000D8H   SFRSYM    DATA     BYTE      P5
      000000C4H   SFRSYM    DATA     BYTE      CCL2
      000000B6H   SFRSYM    DATA     BYTE      P2EXTIF
      000000A8H.7 SFRSYM    DATA     BIT       EA
      000000C6H   SFRSYM    DATA     BYTE      CCL3
      000000AAH   SFRSYM    DATA     BYTE      EIE2
      000000B2H   SFRSYM    DATA     BYTE      EIF2
      0000009CH   SFRSYM    DATA     BYTE      P5EXTIE
      000000A7H   SFRSYM    DATA     BYTE      P5EXTIF
      000000C8H.3 SFRSYM    DATA     BIT       T2R0
      000000C8H.4 SFRSYM    DATA     BIT       T2R1
      00000083H   SFRSYM    DATA     BYTE      DPH0
      000000A8H   SFRSYM    DATA     BYTE      IE
      00000085H   SFRSYM    DATA     BYTE      DPH1
      00000080H.0 SFRSYM    DATA     BIT       P0_0
      000000B9H   SFRSYM    DATA     BYTE      EIP1
      00000090H.0 SFRSYM    DATA     BIT       P1_0
      00000080H.1 SFRSYM    DATA     BIT       P0_1
      000000BAH   SFRSYM    DATA     BYTE      EIP2
      00000082H   SFRSYM    DATA     BYTE      DPL0
      000000A0H.0 SFRSYM    DATA     BIT       P2_0
      00000090H.1 SFRSYM    DATA     BIT       P1_1
      00000080H.2 SFRSYM    DATA     BIT       P0_2
      000000BBH   SFRSYM    DATA     BYTE      EIP3
      00000084H   SFRSYM    DATA     BYTE      DPL1
      000000A0H.1 SFRSYM    DATA     BIT       P2_1
      00000090H.2 SFRSYM    DATA     BIT       P1_2
      00000080H.3 SFRSYM    DATA     BIT       P0_3
      000000A0H.2 SFRSYM    DATA     BIT       P2_2
      00000090H.3 SFRSYM    DATA     BIT       P1_3
      00000080H.4 SFRSYM    DATA     BIT       P0_4
      000000D8H.0 SFRSYM    DATA     BIT       P5_0
      000000C8H.6 SFRSYM    DATA     BIT       I3FR
      000000A0H.3 SFRSYM    DATA     BIT       P2_3
      00000090H.4 SFRSYM    DATA     BIT       P1_4
      00000080H.5 SFRSYM    DATA     BIT       P0_5
      000000CFH   SFRSYM    DATA     BYTE      T2IE
      00000096H   SFRSYM    DATA     BYTE      TA
      000000D8H.1 SFRSYM    DATA     BIT       P5_1
      000000A0H.4 SFRSYM    DATA     BIT       P2_4
      00000090H.5 SFRSYM    DATA     BIT       P1_5
      00000080H.6 SFRSYM    DATA     BIT       P0_6
      000000C9H   SFRSYM    DATA     BYTE      T2IF
      000000D8H.2 SFRSYM    DATA     BIT       P5_2
      000000C8H.2 SFRSYM    DATA     BIT       T2CM
      000000A0H.5 SFRSYM    DATA     BIT       P2_5
      00000090H.6 SFRSYM    DATA     BIT       P1_6
LX51 LINKER/LOCATER V4.66.93.0                                                        06/27/2023  19:17:35  PAGE 39


      00000080H.7 SFRSYM    DATA     BIT       P0_7
      000000DFH   SFRSYM    DATA     BYTE      ADCON0
      000000D8H.3 SFRSYM    DATA     BIT       P5_3
      000000A0H.6 SFRSYM    DATA     BIT       P2_6
      00000090H.7 SFRSYM    DATA     BIT       P1_7
      000000DEH   SFRSYM    DATA     BYTE      ADCON1
      000000D8H.4 SFRSYM    DATA     BIT       P5_4
      000000A0H.7 SFRSYM    DATA     BIT       P2_7
      000000E9H   SFRSYM    DATA     BYTE      ADCON2
      000000B8H   SFRSYM    DATA     BYTE      IP
      000000D8H.5 SFRSYM    DATA     BIT       P5_5
      000000CEH   SFRSYM    DATA     BYTE      CCEN
      000000D8H.6 SFRSYM    DATA     BIT       P5_6
      000000D8H.7 SFRSYM    DATA     BIT       P5_7
      000000D0H.7 SFRSYM    DATA     BIT       CY
      000000D2H   SFRSYM    DATA     BYTE      T34MOD
      000000F4H   SFRSYM    DATA     BYTE      I2CMSA
      000000D7H   SFRSYM    DATA     BYTE      SCKSTAU
      000000F5H   SFRSYM    DATA     BYTE      I2CMCR
      00000081H   SFRSYM    DATA     BYTE      SP
      000000D0H.2 SFRSYM    DATA     BIT       OV
      000000F2H   SFRSYM    DATA     BYTE      I2CSCR
      000000D9H   SFRSYM    DATA     BYTE      ADCCHS
      000000C8H.7 SFRSYM    DATA     BIT       T2PS
      000000D1H   SFRSYM    DATA     BYTE      ADCMPC
      000000CBH   SFRSYM    DATA     BYTE      RLDH
      000000D5H   SFRSYM    DATA     BYTE      ADCMPH
      000000CAH   SFRSYM    DATA     BYTE      RLDL
      00000080H.0 SFRSYM    DATA     BIT       P00
      00000090H.0 SFRSYM    DATA     BIT       P10
      00000080H.1 SFRSYM    DATA     BIT       P01
      000000F7H   SFRSYM    DATA     BYTE      I2CMTP
      00000087H   SFRSYM    DATA     BYTE      PCON
      000000A0H.0 SFRSYM    DATA     BIT       P20
      00000090H.1 SFRSYM    DATA     BIT       P11
      00000080H.2 SFRSYM    DATA     BIT       P02
      000000F5H   SFRSYM    DATA     BYTE      I2CMSR
      000000A0H.1 SFRSYM    DATA     BIT       P21
      00000090H.2 SFRSYM    DATA     BIT       P12
      00000080H.3 SFRSYM    DATA     BIT       P03
      000000D4H   SFRSYM    DATA     BYTE      ADCMPL
      000000A0H.2 SFRSYM    DATA     BIT       P22
      00000090H.3 SFRSYM    DATA     BIT       P13
      00000080H.4 SFRSYM    DATA     BIT       P04
      000000D8H.0 SFRSYM    DATA     BIT       P50
      000000A0H.3 SFRSYM    DATA     BIT       P23
      00000090H.4 SFRSYM    DATA     BIT       P14
      00000080H.5 SFRSYM    DATA     BIT       P05
      00000089H   SFRSYM    DATA     BYTE      TMOD
      00000088H   SFRSYM    DATA     BYTE      TCON
      000000D8H.1 SFRSYM    DATA     BIT       P51
      00000090H.5 SFRSYM    DATA     BIT       P15
      00000080H.6 SFRSYM    DATA     BIT       P06
      000000FAH   SFRSYM    DATA     BYTE      PCRCDH
      000000D8H.2 SFRSYM    DATA     BIT       P52
      00000090H.6 SFRSYM    DATA     BIT       P16
      00000080H.7 SFRSYM    DATA     BIT       P07
      000000D8H.3 SFRSYM    DATA     BIT       P53
      00000090H.7 SFRSYM    DATA     BIT       P17
      000000F2H   SFRSYM    DATA     BYTE      I2CSSR
      000000D8H.4 SFRSYM    DATA     BIT       P54
      000000ECH   SFRSYM    DATA     BYTE      SPCR
      000000DDH   SFRSYM    DATA     BYTE      ADRESH
      000000D8H.5 SFRSYM    DATA     BIT       P55
      000000F9H   SFRSYM    DATA     BYTE      PCRCDL
LX51 LINKER/LOCATER V4.66.93.0                                                        06/27/2023  19:17:35  PAGE 40


      000000EEH   SFRSYM    DATA     BYTE      SPDR
      000000EFH   SFRSYM    DATA     BYTE      SSCR
      000000D3H   SFRSYM    DATA     BYTE      ADDLYL
      000000DCH   SFRSYM    DATA     BYTE      ADRESL
      00000088H.1 SFRSYM    DATA     BIT       IE0
      00000088H.3 SFRSYM    DATA     BIT       IE1
      0000008FH   SFRSYM    DATA     BYTE      CLKDIV
      000000F0H   SFRSYM    DATA     BYTE      B
      00000091H   SFRSYM    DATA     BYTE      FUNCCR
      0000009AH   SFRSYM    DATA     BYTE      P0TRIS
      000000A1H   SFRSYM    DATA     BYTE      P1TRIS
      000000A2H   SFRSYM    DATA     BYTE      P2TRIS
      000000E0H   SFRSYM    DATA     BYTE      ACC
      000000D6H   SFRSYM    DATA     BYTE      SCKSEL
      000000A8H.4 SFRSYM    DATA     BIT       ES0
      000000A8H.1 SFRSYM    DATA     BIT       ET0
      000000A8H.6 SFRSYM    DATA     BIT       ES1
      000000EDH   SFRSYM    DATA     BYTE      SPSR
      000000A5H   SFRSYM    DATA     BYTE      P5TRIS
      000000A8H.3 SFRSYM    DATA     BIT       ET1
      00000088H.5 SFRSYM    DATA     BIT       TF0
      000000A8H.5 SFRSYM    DATA     BIT       ET2
      00000098H.0 SFRSYM    DATA     BIT       RI0
      00000088H.7 SFRSYM    DATA     BIT       TF1
      0000008CH   SFRSYM    DATA     BYTE      TH0
      000000A8H.0 SFRSYM    DATA     BIT       EX0
      00000098H.1 SFRSYM    DATA     BIT       TI0
      00000088H.0 SFRSYM    DATA     BIT       IT0
      0000008DH   SFRSYM    DATA     BYTE      TH1
      000000A8H.2 SFRSYM    DATA     BIT       EX1
      00000088H.2 SFRSYM    DATA     BIT       IT1
      000000CDH   SFRSYM    DATA     BYTE      TH2
      000000D0H.0 SFRSYM    DATA     BIT       P
      000000DBH   SFRSYM    DATA     BYTE      TH3
      000000E3H   SFRSYM    DATA     BYTE      TH4
      0000008AH   SFRSYM    DATA     BYTE      TL0
      000000F0H.0 SFRSYM    DATA     BIT       B_0
      0000008BH   SFRSYM    DATA     BYTE      TL1
      000000F0H.1 SFRSYM    DATA     BIT       B_1
      00000098H.2 SFRSYM    DATA     BIT       U0RB8
      000000CCH   SFRSYM    DATA     BYTE      TL2
      000000F0H.2 SFRSYM    DATA     BIT       B_2
      000000B8H.4 SFRSYM    DATA     BIT       PS0
      000000DAH   SFRSYM    DATA     BYTE      TL3
      000000BFH   SFRSYM    DATA     BYTE      BUZCON
      000000F0H.3 SFRSYM    DATA     BIT       B_3
      000000B8H.1 SFRSYM    DATA     BIT       PT0
      000000B8H.6 SFRSYM    DATA     BIT       PS1
      00000098H.3 SFRSYM    DATA     BIT       U0TB8
      000000E2H   SFRSYM    DATA     BYTE      TL4
      000000F0H.4 SFRSYM    DATA     BIT       B_4
      000000D0H.3 SFRSYM    DATA     BIT       RS0
      000000B8H.3 SFRSYM    DATA     BIT       PT1
      000000F0H.5 SFRSYM    DATA     BIT       B_5
      000000D0H.4 SFRSYM    DATA     BIT       RS1
      000000B8H.5 SFRSYM    DATA     BIT       PT2
      00000098H.7 SFRSYM    DATA     BIT       U0SM0
      00000088H.4 SFRSYM    DATA     BIT       TR0
      000000BEH   SFRSYM    DATA     BYTE      BUZDIV
      000000F0H.6 SFRSYM    DATA     BIT       B_6
      000000E0H.0 SFRSYM    DATA     BIT       ACC_0
      00000098H.6 SFRSYM    DATA     BIT       U0SM1
      00000088H.6 SFRSYM    DATA     BIT       TR1
      000000F0H.7 SFRSYM    DATA     BIT       B_7
      000000E0H.1 SFRSYM    DATA     BIT       ACC_1
LX51 LINKER/LOCATER V4.66.93.0                                                        06/27/2023  19:17:35  PAGE 41


      000000B8H.0 SFRSYM    DATA     BIT       PX0
      00000098H.5 SFRSYM    DATA     BIT       U0SM2
      000000E0H.2 SFRSYM    DATA     BIT       ACC_2
      000000B8H.2 SFRSYM    DATA     BIT       PX1
      000000E0H.3 SFRSYM    DATA     BIT       ACC_3
      000000E0H.4 SFRSYM    DATA     BIT       ACC_4
      000000E0H.5 SFRSYM    DATA     BIT       ACC_5
      000000E0H.6 SFRSYM    DATA     BIT       ACC_6
      000000E0H.7 SFRSYM    DATA     BIT       ACC_7
      000000BDH   SFRSYM    DATA     BYTE      WUTCRH
      00000099H   SFRSYM    DATA     BYTE      SBUF0
      000000EBH   SFRSYM    DATA     BYTE      SBUF1
      000000BCH   SFRSYM    DATA     BYTE      WUTCRL
      00000098H   SFRSYM    DATA     BYTE      SCON0
      000000EAH   SFRSYM    DATA     BYTE      SCON1
      000000C8H   SFRSYM    DATA     BYTE      T2CON
      00000086H   SFRSYM    DATA     BYTE      DPS
      000000FEH   SFRSYM    DATA     BYTE      MDATA
      000000F6H   SFRSYM    DATA     BYTE      I2CMBUF
      000000F1H   SFRSYM    DATA     BYTE      I2CSADR
      00000098H.4 SFRSYM    DATA     BIT       U0REN
      000000C8H.5 SFRSYM    DATA     BIT       CAPES
      000000FDH   SFRSYM    DATA     BYTE      MADRH
      0000008EH   SFRSYM    DATA     BYTE      CKCON
      000000F3H   SFRSYM    DATA     BYTE      I2CSBUF
      000000FCH   SFRSYM    DATA     BYTE      MADRL
      000000D0H.5 SFRSYM    DATA     BIT       F0
      000000FBH   SFRSYM    DATA     BYTE      MLOCK
      000000D0H   SFRSYM    DATA     BYTE      PSW
      00000097H   SFRSYM    DATA     BYTE      WDCON
      00000005H   SYMBOL    DATA     BYTE      SystemClkMode
      00000002H   SYMBOL    DATA     WORD      WaitTime
      00000004H   SYMBOL    DATA     BYTE      temp

      01002CDAH   BLOCK     CODE     ---       LVL=0
      01002CDAH   LINE      CODE     ---       #157
      01002CDAH   LINE      CODE     ---       #158
      01002CDAH   LINE      CODE     ---       #159
      01002CDDH   LINE      CODE     ---       #160
      01002CDDH   LINE      CODE     ---       #161
      01002CDFH   LINE      CODE     ---       #162
      01002CE2H   LINE      CODE     ---       #163
      01002CE5H   LINE      CODE     ---       #164
      01002CE8H   LINE      CODE     ---       #165
      01002CEAH   LINE      CODE     ---       #166
      01002CEBH   LINE      CODE     ---       #168
      01002CEBH   LINE      CODE     ---       #169
      01002CEEH   LINE      CODE     ---       #170
      01002CF1H   LINE      CODE     ---       #171
      01002CF4H   LINE      CODE     ---       #172
      01002CF4H   LINE      CODE     ---       #174
      ---         BLOCKEND  ---      ---       LVL=0
      00000007H   SYMBOL    DATA     BYTE      LVDValue

      ---         MODULE    ---      ---       TIMER
      01002CA0H   PUBLIC    CODE     ---       _TMR_Start
      01002C83H   PUBLIC    CODE     ---       _TMR_EnableOverflowInt
      01002BDFH   PUBLIC    CODE     ---       _TMR_ConfigTimerPeriod
      01002839H   PUBLIC    CODE     ---       _TMR_ConfigTimerClk
      010027BEH   PUBLIC    CODE     ---       _TMR_ConfigRunMode
      000000C8H.0 SFRSYM    DATA     BIT       T2I0
      000000C3H   SFRSYM    DATA     BYTE      CCH1
      00000080H   SFRSYM    DATA     BYTE      P0
      000000C8H.1 SFRSYM    DATA     BIT       T2I1
      000000C5H   SFRSYM    DATA     BYTE      CCH2
LX51 LINKER/LOCATER V4.66.93.0                                                        06/27/2023  19:17:35  PAGE 42


      00000090H   SFRSYM    DATA     BYTE      P1
      000000C7H   SFRSYM    DATA     BYTE      CCH3
      000000ACH   SFRSYM    DATA     BYTE      P0EXTIE
      000000A0H   SFRSYM    DATA     BYTE      P2
      000000B4H   SFRSYM    DATA     BYTE      P0EXTIF
      000000ADH   SFRSYM    DATA     BYTE      P1EXTIE
      000000D0H.6 SFRSYM    DATA     BIT       AC
      000000FFH   SFRSYM    DATA     BYTE      MCTRL
      000000C2H   SFRSYM    DATA     BYTE      CCL1
      000000B5H   SFRSYM    DATA     BYTE      P1EXTIF
      000000AEH   SFRSYM    DATA     BYTE      P2EXTIE
      000000D8H   SFRSYM    DATA     BYTE      P5
      000000C4H   SFRSYM    DATA     BYTE      CCL2
      000000B6H   SFRSYM    DATA     BYTE      P2EXTIF
      000000A8H.7 SFRSYM    DATA     BIT       EA
      000000C6H   SFRSYM    DATA     BYTE      CCL3
      000000AAH   SFRSYM    DATA     BYTE      EIE2
      000000B2H   SFRSYM    DATA     BYTE      EIF2
      0000009CH   SFRSYM    DATA     BYTE      P5EXTIE
      000000A7H   SFRSYM    DATA     BYTE      P5EXTIF
      000000C8H.3 SFRSYM    DATA     BIT       T2R0
      000000C8H.4 SFRSYM    DATA     BIT       T2R1
      00000083H   SFRSYM    DATA     BYTE      DPH0
      000000A8H   SFRSYM    DATA     BYTE      IE
      00000085H   SFRSYM    DATA     BYTE      DPH1
      00000080H.0 SFRSYM    DATA     BIT       P0_0
      000000B9H   SFRSYM    DATA     BYTE      EIP1
      00000090H.0 SFRSYM    DATA     BIT       P1_0
      00000080H.1 SFRSYM    DATA     BIT       P0_1
      000000BAH   SFRSYM    DATA     BYTE      EIP2
      00000082H   SFRSYM    DATA     BYTE      DPL0
      000000A0H.0 SFRSYM    DATA     BIT       P2_0
      00000090H.1 SFRSYM    DATA     BIT       P1_1
      00000080H.2 SFRSYM    DATA     BIT       P0_2
      000000BBH   SFRSYM    DATA     BYTE      EIP3
      00000084H   SFRSYM    DATA     BYTE      DPL1
      000000A0H.1 SFRSYM    DATA     BIT       P2_1
      00000090H.2 SFRSYM    DATA     BIT       P1_2
      00000080H.3 SFRSYM    DATA     BIT       P0_3
      000000A0H.2 SFRSYM    DATA     BIT       P2_2
      00000090H.3 SFRSYM    DATA     BIT       P1_3
      00000080H.4 SFRSYM    DATA     BIT       P0_4
      000000D8H.0 SFRSYM    DATA     BIT       P5_0
      000000C8H.6 SFRSYM    DATA     BIT       I3FR
      000000A0H.3 SFRSYM    DATA     BIT       P2_3
      00000090H.4 SFRSYM    DATA     BIT       P1_4
      00000080H.5 SFRSYM    DATA     BIT       P0_5
      000000CFH   SFRSYM    DATA     BYTE      T2IE
      00000096H   SFRSYM    DATA     BYTE      TA
      000000D8H.1 SFRSYM    DATA     BIT       P5_1
      000000A0H.4 SFRSYM    DATA     BIT       P2_4
      00000090H.5 SFRSYM    DATA     BIT       P1_5
      00000080H.6 SFRSYM    DATA     BIT       P0_6
      000000C9H   SFRSYM    DATA     BYTE      T2IF
      000000D8H.2 SFRSYM    DATA     BIT       P5_2
      000000C8H.2 SFRSYM    DATA     BIT       T2CM
      000000A0H.5 SFRSYM    DATA     BIT       P2_5
      00000090H.6 SFRSYM    DATA     BIT       P1_6
      00000080H.7 SFRSYM    DATA     BIT       P0_7
      000000DFH   SFRSYM    DATA     BYTE      ADCON0
      000000D8H.3 SFRSYM    DATA     BIT       P5_3
      000000A0H.6 SFRSYM    DATA     BIT       P2_6
      00000090H.7 SFRSYM    DATA     BIT       P1_7
      000000DEH   SFRSYM    DATA     BYTE      ADCON1
      000000D8H.4 SFRSYM    DATA     BIT       P5_4
LX51 LINKER/LOCATER V4.66.93.0                                                        06/27/2023  19:17:35  PAGE 43


      000000A0H.7 SFRSYM    DATA     BIT       P2_7
      000000E9H   SFRSYM    DATA     BYTE      ADCON2
      000000B8H   SFRSYM    DATA     BYTE      IP
      000000D8H.5 SFRSYM    DATA     BIT       P5_5
      000000CEH   SFRSYM    DATA     BYTE      CCEN
      000000D8H.6 SFRSYM    DATA     BIT       P5_6
      000000D8H.7 SFRSYM    DATA     BIT       P5_7
      000000D0H.7 SFRSYM    DATA     BIT       CY
      000000D2H   SFRSYM    DATA     BYTE      T34MOD
      000000F4H   SFRSYM    DATA     BYTE      I2CMSA
      000000D7H   SFRSYM    DATA     BYTE      SCKSTAU
      000000F5H   SFRSYM    DATA     BYTE      I2CMCR
      00000081H   SFRSYM    DATA     BYTE      SP
      000000D0H.2 SFRSYM    DATA     BIT       OV
      000000F2H   SFRSYM    DATA     BYTE      I2CSCR
      000000D9H   SFRSYM    DATA     BYTE      ADCCHS
      000000C8H.7 SFRSYM    DATA     BIT       T2PS
      000000D1H   SFRSYM    DATA     BYTE      ADCMPC
      000000CBH   SFRSYM    DATA     BYTE      RLDH
      000000D5H   SFRSYM    DATA     BYTE      ADCMPH
      000000CAH   SFRSYM    DATA     BYTE      RLDL
      00000080H.0 SFRSYM    DATA     BIT       P00
      00000090H.0 SFRSYM    DATA     BIT       P10
      00000080H.1 SFRSYM    DATA     BIT       P01
      000000F7H   SFRSYM    DATA     BYTE      I2CMTP
      00000087H   SFRSYM    DATA     BYTE      PCON
      000000A0H.0 SFRSYM    DATA     BIT       P20
      00000090H.1 SFRSYM    DATA     BIT       P11
      00000080H.2 SFRSYM    DATA     BIT       P02
      000000F5H   SFRSYM    DATA     BYTE      I2CMSR
      000000A0H.1 SFRSYM    DATA     BIT       P21
      00000090H.2 SFRSYM    DATA     BIT       P12
      00000080H.3 SFRSYM    DATA     BIT       P03
      000000D4H   SFRSYM    DATA     BYTE      ADCMPL
      000000A0H.2 SFRSYM    DATA     BIT       P22
      00000090H.3 SFRSYM    DATA     BIT       P13
      00000080H.4 SFRSYM    DATA     BIT       P04
      000000D8H.0 SFRSYM    DATA     BIT       P50
      000000A0H.3 SFRSYM    DATA     BIT       P23
      00000090H.4 SFRSYM    DATA     BIT       P14
      00000080H.5 SFRSYM    DATA     BIT       P05
      00000089H   SFRSYM    DATA     BYTE      TMOD
      00000088H   SFRSYM    DATA     BYTE      TCON
      000000D8H.1 SFRSYM    DATA     BIT       P51
      00000090H.5 SFRSYM    DATA     BIT       P15
      00000080H.6 SFRSYM    DATA     BIT       P06
      000000FAH   SFRSYM    DATA     BYTE      PCRCDH
      000000D8H.2 SFRSYM    DATA     BIT       P52
      00000090H.6 SFRSYM    DATA     BIT       P16
      00000080H.7 SFRSYM    DATA     BIT       P07
      000000D8H.3 SFRSYM    DATA     BIT       P53
      00000090H.7 SFRSYM    DATA     BIT       P17
      000000F2H   SFRSYM    DATA     BYTE      I2CSSR
      000000D8H.4 SFRSYM    DATA     BIT       P54
      000000ECH   SFRSYM    DATA     BYTE      SPCR
      000000DDH   SFRSYM    DATA     BYTE      ADRESH
      000000D8H.5 SFRSYM    DATA     BIT       P55
      000000F9H   SFRSYM    DATA     BYTE      PCRCDL
      000000EEH   SFRSYM    DATA     BYTE      SPDR
      000000EFH   SFRSYM    DATA     BYTE      SSCR
      000000D3H   SFRSYM    DATA     BYTE      ADDLYL
      000000DCH   SFRSYM    DATA     BYTE      ADRESL
      00000088H.1 SFRSYM    DATA     BIT       IE0
      00000088H.3 SFRSYM    DATA     BIT       IE1
      0000008FH   SFRSYM    DATA     BYTE      CLKDIV
LX51 LINKER/LOCATER V4.66.93.0                                                        06/27/2023  19:17:35  PAGE 44


      000000F0H   SFRSYM    DATA     BYTE      B
      00000091H   SFRSYM    DATA     BYTE      FUNCCR
      0000009AH   SFRSYM    DATA     BYTE      P0TRIS
      000000A1H   SFRSYM    DATA     BYTE      P1TRIS
      000000A2H   SFRSYM    DATA     BYTE      P2TRIS
      000000E0H   SFRSYM    DATA     BYTE      ACC
      000000D6H   SFRSYM    DATA     BYTE      SCKSEL
      000000A8H.4 SFRSYM    DATA     BIT       ES0
      000000A8H.1 SFRSYM    DATA     BIT       ET0
      000000A8H.6 SFRSYM    DATA     BIT       ES1
      000000EDH   SFRSYM    DATA     BYTE      SPSR
      000000A5H   SFRSYM    DATA     BYTE      P5TRIS
      000000A8H.3 SFRSYM    DATA     BIT       ET1
      00000088H.5 SFRSYM    DATA     BIT       TF0
      000000A8H.5 SFRSYM    DATA     BIT       ET2
      00000098H.0 SFRSYM    DATA     BIT       RI0
      00000088H.7 SFRSYM    DATA     BIT       TF1
      0000008CH   SFRSYM    DATA     BYTE      TH0
      000000A8H.0 SFRSYM    DATA     BIT       EX0
      00000098H.1 SFRSYM    DATA     BIT       TI0
      00000088H.0 SFRSYM    DATA     BIT       IT0
      0000008DH   SFRSYM    DATA     BYTE      TH1
      000000A8H.2 SFRSYM    DATA     BIT       EX1
      00000088H.2 SFRSYM    DATA     BIT       IT1
      000000CDH   SFRSYM    DATA     BYTE      TH2
      000000D0H.0 SFRSYM    DATA     BIT       P
      000000DBH   SFRSYM    DATA     BYTE      TH3
      000000E3H   SFRSYM    DATA     BYTE      TH4
      0000008AH   SFRSYM    DATA     BYTE      TL0
      000000F0H.0 SFRSYM    DATA     BIT       B_0
      0000008BH   SFRSYM    DATA     BYTE      TL1
      000000F0H.1 SFRSYM    DATA     BIT       B_1
      00000098H.2 SFRSYM    DATA     BIT       U0RB8
      000000CCH   SFRSYM    DATA     BYTE      TL2
      000000F0H.2 SFRSYM    DATA     BIT       B_2
      000000B8H.4 SFRSYM    DATA     BIT       PS0
      000000DAH   SFRSYM    DATA     BYTE      TL3
      000000BFH   SFRSYM    DATA     BYTE      BUZCON
      000000F0H.3 SFRSYM    DATA     BIT       B_3
      000000B8H.1 SFRSYM    DATA     BIT       PT0
      000000B8H.6 SFRSYM    DATA     BIT       PS1
      00000098H.3 SFRSYM    DATA     BIT       U0TB8
      000000E2H   SFRSYM    DATA     BYTE      TL4
      000000F0H.4 SFRSYM    DATA     BIT       B_4
      000000D0H.3 SFRSYM    DATA     BIT       RS0
      000000B8H.3 SFRSYM    DATA     BIT       PT1
      000000F0H.5 SFRSYM    DATA     BIT       B_5
      000000D0H.4 SFRSYM    DATA     BIT       RS1
      000000B8H.5 SFRSYM    DATA     BIT       PT2
      00000098H.7 SFRSYM    DATA     BIT       U0SM0
      00000088H.4 SFRSYM    DATA     BIT       TR0
      000000BEH   SFRSYM    DATA     BYTE      BUZDIV
      000000F0H.6 SFRSYM    DATA     BIT       B_6
      000000E0H.0 SFRSYM    DATA     BIT       ACC_0
      00000098H.6 SFRSYM    DATA     BIT       U0SM1
      00000088H.6 SFRSYM    DATA     BIT       TR1
      000000F0H.7 SFRSYM    DATA     BIT       B_7
      000000E0H.1 SFRSYM    DATA     BIT       ACC_1
      000000B8H.0 SFRSYM    DATA     BIT       PX0
      00000098H.5 SFRSYM    DATA     BIT       U0SM2
      000000E0H.2 SFRSYM    DATA     BIT       ACC_2
      000000B8H.2 SFRSYM    DATA     BIT       PX1
      000000E0H.3 SFRSYM    DATA     BIT       ACC_3
      000000E0H.4 SFRSYM    DATA     BIT       ACC_4
      000000E0H.5 SFRSYM    DATA     BIT       ACC_5
LX51 LINKER/LOCATER V4.66.93.0                                                        06/27/2023  19:17:35  PAGE 45


      000000E0H.6 SFRSYM    DATA     BIT       ACC_6
      000000E0H.7 SFRSYM    DATA     BIT       ACC_7
      000000BDH   SFRSYM    DATA     BYTE      WUTCRH
      00000099H   SFRSYM    DATA     BYTE      SBUF0
      000000EBH   SFRSYM    DATA     BYTE      SBUF1
      000000BCH   SFRSYM    DATA     BYTE      WUTCRL
      00000098H   SFRSYM    DATA     BYTE      SCON0
      000000EAH   SFRSYM    DATA     BYTE      SCON1
      000000C8H   SFRSYM    DATA     BYTE      T2CON
      00000086H   SFRSYM    DATA     BYTE      DPS
      000000FEH   SFRSYM    DATA     BYTE      MDATA
      000000F6H   SFRSYM    DATA     BYTE      I2CMBUF
      000000F1H   SFRSYM    DATA     BYTE      I2CSADR
      00000098H.4 SFRSYM    DATA     BIT       U0REN
      000000C8H.5 SFRSYM    DATA     BIT       CAPES
      000000FDH   SFRSYM    DATA     BYTE      MADRH
      0000008EH   SFRSYM    DATA     BYTE      CKCON
      000000F3H   SFRSYM    DATA     BYTE      I2CSBUF
      000000FCH   SFRSYM    DATA     BYTE      MADRL
      000000D0H.5 SFRSYM    DATA     BIT       F0
      000000FBH   SFRSYM    DATA     BYTE      MLOCK
      000000D0H   SFRSYM    DATA     BYTE      PSW
      00000097H   SFRSYM    DATA     BYTE      WDCON

      010027BEH   BLOCK     CODE     ---       LVL=0
      00000007H   SYMBOL    DATA     BYTE      Timern
      00000005H   SYMBOL    DATA     BYTE      TimerMode
      00000003H   SYMBOL    DATA     BYTE      TimerModeBranch
      010027BEH   LINE      CODE     ---       #74
      010027BEH   LINE      CODE     ---       #75
      010027BEH   LINE      CODE     ---       #76
      010027CDH   LINE      CODE     ---       #77
      010027CDH   LINE      CODE     ---       #78
      010027CDH   LINE      CODE     ---       #79
      010027D0H   LINE      CODE     ---       #80
      010027D8H   LINE      CODE     ---       #81
      010027D9H   LINE      CODE     ---       #82
      010027D9H   LINE      CODE     ---       #83
      010027DCH   LINE      CODE     ---       #84
      010027EAH   LINE      CODE     ---       #85
      010027EBH   LINE      CODE     ---       #86
      010027EBH   LINE      CODE     ---       #87
      010027EEH   LINE      CODE     ---       #88
      010027F1H   LINE      CODE     ---       #89
      010027F2H   LINE      CODE     ---       #90
      010027F2H   LINE      CODE     ---       #91
      010027F5H   LINE      CODE     ---       #92
      010027FBH   LINE      CODE     ---       #93
      010027FBH   LINE      CODE     ---       #94
      010027FBH   LINE      CODE     ---       #95
      010027FBH   LINE      CODE     ---       #96
      010027FBH   LINE      CODE     ---       #97
      ---         BLOCKEND  ---      ---       LVL=0

      01002839H   BLOCK     CODE     ---       LVL=0
      00000007H   SYMBOL    DATA     BYTE      Timern
      00000005H   SYMBOL    DATA     BYTE      TimerClkDiv
      01002839H   LINE      CODE     ---       #107
      01002839H   LINE      CODE     ---       #108
      01002839H   LINE      CODE     ---       #109
      01002848H   LINE      CODE     ---       #110
      01002848H   LINE      CODE     ---       #111
      01002848H   LINE      CODE     ---       #112
      0100284BH   LINE      CODE     ---       #113
      01002853H   LINE      CODE     ---       #114
LX51 LINKER/LOCATER V4.66.93.0                                                        06/27/2023  19:17:35  PAGE 46


      01002854H   LINE      CODE     ---       #115
      01002854H   LINE      CODE     ---       #116
      01002857H   LINE      CODE     ---       #117
      0100285DH   LINE      CODE     ---       #118
      0100285EH   LINE      CODE     ---       #119
      0100285EH   LINE      CODE     ---       #120
      01002861H   LINE      CODE     ---       #121
      01002868H   LINE      CODE     ---       #122
      01002869H   LINE      CODE     ---       #123
      01002869H   LINE      CODE     ---       #124
      0100286CH   LINE      CODE     ---       #125
      01002874H   LINE      CODE     ---       #126
      01002874H   LINE      CODE     ---       #127
      01002874H   LINE      CODE     ---       #128
      01002874H   LINE      CODE     ---       #129
      01002874H   LINE      CODE     ---       #130
      ---         BLOCKEND  ---      ---       LVL=0

      01002BDFH   BLOCK     CODE     ---       LVL=0
      00000007H   SYMBOL    DATA     BYTE      Timern
      00000005H   SYMBOL    DATA     BYTE      TimerPeriodHigh
      00000003H   SYMBOL    DATA     BYTE      TimerPeriodLow
      01002BDFH   LINE      CODE     ---       #140
      01002BDFH   LINE      CODE     ---       #141
      01002BDFH   LINE      CODE     ---       #142
      01002BEEH   LINE      CODE     ---       #143
      01002BEEH   LINE      CODE     ---       #144
      01002BEEH   LINE      CODE     ---       #145
      01002BF0H   LINE      CODE     ---       #146
      01002BF2H   LINE      CODE     ---       #147
      01002BF3H   LINE      CODE     ---       #148
      01002BF3H   LINE      CODE     ---       #149
      01002BF5H   LINE      CODE     ---       #150
      01002BF7H   LINE      CODE     ---       #151
      01002BF8H   LINE      CODE     ---       #152
      01002BF8H   LINE      CODE     ---       #153
      01002BFAH   LINE      CODE     ---       #154
      01002BFCH   LINE      CODE     ---       #155
      01002BFDH   LINE      CODE     ---       #156
      01002BFDH   LINE      CODE     ---       #157
      01002BFFH   LINE      CODE     ---       #158
      01002C01H   LINE      CODE     ---       #159
      01002C01H   LINE      CODE     ---       #160
      01002C01H   LINE      CODE     ---       #161
      01002C01H   LINE      CODE     ---       #162
      01002C01H   LINE      CODE     ---       #163
      ---         BLOCKEND  ---      ---       LVL=0
      00000007H   SYMBOL    DATA     BYTE      Timern
      00000007H   SYMBOL    DATA     BYTE      Timern
      00000007H   SYMBOL    DATA     BYTE      Timern

      01002C83H   BLOCK     CODE     ---       LVL=0
      00000007H   SYMBOL    DATA     BYTE      Timern
      01002C83H   LINE      CODE     ---       #236
      01002C83H   LINE      CODE     ---       #237
      01002C83H   LINE      CODE     ---       #238
      01002C92H   LINE      CODE     ---       #239
      01002C92H   LINE      CODE     ---       #240
      01002C92H   LINE      CODE     ---       #241
      01002C94H   LINE      CODE     ---       #242
      01002C95H   LINE      CODE     ---       #243
      01002C95H   LINE      CODE     ---       #244
      01002C97H   LINE      CODE     ---       #245
      01002C98H   LINE      CODE     ---       #246
      01002C98H   LINE      CODE     ---       #247
LX51 LINKER/LOCATER V4.66.93.0                                                        06/27/2023  19:17:35  PAGE 47


      01002C9BH   LINE      CODE     ---       #248
      01002C9CH   LINE      CODE     ---       #249
      01002C9CH   LINE      CODE     ---       #250
      01002C9FH   LINE      CODE     ---       #251
      01002C9FH   LINE      CODE     ---       #252
      01002C9FH   LINE      CODE     ---       #253
      01002C9FH   LINE      CODE     ---       #254
      01002C9FH   LINE      CODE     ---       #255
      ---         BLOCKEND  ---      ---       LVL=0
      00000007H   SYMBOL    DATA     BYTE      Timern
      00000007H   SYMBOL    DATA     BYTE      Timern
      00000006H   SYMBOL    DATA     BYTE      IntFlag
      00000007H   SYMBOL    DATA     BYTE      Timern

      01002CA0H   BLOCK     CODE     ---       LVL=0
      00000007H   SYMBOL    DATA     BYTE      Timern
      01002CA0H   LINE      CODE     ---       #348
      01002CA0H   LINE      CODE     ---       #349
      01002CA0H   LINE      CODE     ---       #350
      01002CAFH   LINE      CODE     ---       #351
      01002CAFH   LINE      CODE     ---       #352
      01002CAFH   LINE      CODE     ---       #353
      01002CB1H   LINE      CODE     ---       #354
      01002CB2H   LINE      CODE     ---       #355
      01002CB2H   LINE      CODE     ---       #356
      01002CB4H   LINE      CODE     ---       #357
      01002CB5H   LINE      CODE     ---       #358
      01002CB5H   LINE      CODE     ---       #359
      01002CB8H   LINE      CODE     ---       #360
      01002CB9H   LINE      CODE     ---       #361
      01002CB9H   LINE      CODE     ---       #362
      01002CBCH   LINE      CODE     ---       #363
      01002CBCH   LINE      CODE     ---       #364
      01002CBCH   LINE      CODE     ---       #365
      01002CBCH   LINE      CODE     ---       #366
      01002CBCH   LINE      CODE     ---       #367
      ---         BLOCKEND  ---      ---       LVL=0
      00000007H   SYMBOL    DATA     BYTE      Timern
      00000007H   SYMBOL    DATA     BYTE      Timer2Mode
      00000005H   SYMBOL    DATA     BYTE      Timer2LoadMode
      00000007H   SYMBOL    DATA     BYTE      TimerClkDiv
      00000004H   SYMBOL    DATA     WORD      TimerPeriod
      00000007H   SYMBOL    DATA     BYTE      Timer2CCn
      00000005H   SYMBOL    DATA     BYTE      CompareMode
      00000007H   SYMBOL    DATA     BYTE      Timer2CCn
      00000003H   SYMBOL    DATA     BYTE      Timer2CCn
      00000004H   SYMBOL    DATA     WORD      CompareValue
      00000007H   SYMBOL    DATA     BYTE      Timer2CompareIntMode
      00000007H   SYMBOL    DATA     BYTE      Timer2CCn
      00000005H   SYMBOL    DATA     BYTE      Timer2CaptureMode
      00000007H   SYMBOL    DATA     BYTE      Timer2CCn
      00000007H   SYMBOL    DATA     BYTE      Timer2CCn
      00000004H   SYMBOL    DATA     WORD      CaputerValue
      00000007H   SYMBOL    DATA     BYTE      Timer2CCn
      00000007H   SYMBOL    DATA     BYTE      Timer2CCn
      00000007H   SYMBOL    DATA     BYTE      Timer2CCn
      00000007H   SYMBOL    DATA     BYTE      Timer2CCn
      00000007H   SYMBOL    DATA     BYTE      Timer2CCn
      00000007H   SYMBOL    DATA     BYTE      Timer2CCn
      00000007H   SYMBOL    DATA     BYTE      Timer2CCn
      00000007H   SYMBOL    DATA     BYTE      Timer2CCn

      ---         MODULE    ---      ---       WDT
      01002E97H   PUBLIC    CODE     ---       WDT_DisableOverflowInt
      01002D10H   PUBLIC    CODE     ---       WDT_ClearWDT
LX51 LINKER/LOCATER V4.66.93.0                                                        06/27/2023  19:17:35  PAGE 48


      01002CF5H   PUBLIC    CODE     ---       WDT_EnableWDTReset
      01002E24H   PUBLIC    CODE     ---       _WDT_ConfigOverflowTime
      000000C8H.0 SFRSYM    DATA     BIT       T2I0
      000000C3H   SFRSYM    DATA     BYTE      CCH1
      00000080H   SFRSYM    DATA     BYTE      P0
      000000C8H.1 SFRSYM    DATA     BIT       T2I1
      000000C5H   SFRSYM    DATA     BYTE      CCH2
      00000090H   SFRSYM    DATA     BYTE      P1
      000000C7H   SFRSYM    DATA     BYTE      CCH3
      000000ACH   SFRSYM    DATA     BYTE      P0EXTIE
      000000A0H   SFRSYM    DATA     BYTE      P2
      000000B4H   SFRSYM    DATA     BYTE      P0EXTIF
      000000ADH   SFRSYM    DATA     BYTE      P1EXTIE
      000000D0H.6 SFRSYM    DATA     BIT       AC
      000000FFH   SFRSYM    DATA     BYTE      MCTRL
      000000C2H   SFRSYM    DATA     BYTE      CCL1
      000000B5H   SFRSYM    DATA     BYTE      P1EXTIF
      000000AEH   SFRSYM    DATA     BYTE      P2EXTIE
      000000D8H   SFRSYM    DATA     BYTE      P5
      000000C4H   SFRSYM    DATA     BYTE      CCL2
      000000B6H   SFRSYM    DATA     BYTE      P2EXTIF
      000000A8H.7 SFRSYM    DATA     BIT       EA
      000000C6H   SFRSYM    DATA     BYTE      CCL3
      000000AAH   SFRSYM    DATA     BYTE      EIE2
      000000B2H   SFRSYM    DATA     BYTE      EIF2
      0000009CH   SFRSYM    DATA     BYTE      P5EXTIE
      000000A7H   SFRSYM    DATA     BYTE      P5EXTIF
      000000C8H.3 SFRSYM    DATA     BIT       T2R0
      000000C8H.4 SFRSYM    DATA     BIT       T2R1
      00000083H   SFRSYM    DATA     BYTE      DPH0
      000000A8H   SFRSYM    DATA     BYTE      IE
      00000085H   SFRSYM    DATA     BYTE      DPH1
      00000080H.0 SFRSYM    DATA     BIT       P0_0
      000000B9H   SFRSYM    DATA     BYTE      EIP1
      00000090H.0 SFRSYM    DATA     BIT       P1_0
      00000080H.1 SFRSYM    DATA     BIT       P0_1
      000000BAH   SFRSYM    DATA     BYTE      EIP2
      00000082H   SFRSYM    DATA     BYTE      DPL0
      000000A0H.0 SFRSYM    DATA     BIT       P2_0
      00000090H.1 SFRSYM    DATA     BIT       P1_1
      00000080H.2 SFRSYM    DATA     BIT       P0_2
      000000BBH   SFRSYM    DATA     BYTE      EIP3
      00000084H   SFRSYM    DATA     BYTE      DPL1
      000000A0H.1 SFRSYM    DATA     BIT       P2_1
      00000090H.2 SFRSYM    DATA     BIT       P1_2
      00000080H.3 SFRSYM    DATA     BIT       P0_3
      000000A0H.2 SFRSYM    DATA     BIT       P2_2
      00000090H.3 SFRSYM    DATA     BIT       P1_3
      00000080H.4 SFRSYM    DATA     BIT       P0_4
      000000D8H.0 SFRSYM    DATA     BIT       P5_0
      000000C8H.6 SFRSYM    DATA     BIT       I3FR
      000000A0H.3 SFRSYM    DATA     BIT       P2_3
      00000090H.4 SFRSYM    DATA     BIT       P1_4
      00000080H.5 SFRSYM    DATA     BIT       P0_5
      000000CFH   SFRSYM    DATA     BYTE      T2IE
      00000096H   SFRSYM    DATA     BYTE      TA
      000000D8H.1 SFRSYM    DATA     BIT       P5_1
      000000A0H.4 SFRSYM    DATA     BIT       P2_4
      00000090H.5 SFRSYM    DATA     BIT       P1_5
      00000080H.6 SFRSYM    DATA     BIT       P0_6
      000000C9H   SFRSYM    DATA     BYTE      T2IF
      000000D8H.2 SFRSYM    DATA     BIT       P5_2
      000000C8H.2 SFRSYM    DATA     BIT       T2CM
      000000A0H.5 SFRSYM    DATA     BIT       P2_5
      00000090H.6 SFRSYM    DATA     BIT       P1_6
LX51 LINKER/LOCATER V4.66.93.0                                                        06/27/2023  19:17:35  PAGE 49


      00000080H.7 SFRSYM    DATA     BIT       P0_7
      000000DFH   SFRSYM    DATA     BYTE      ADCON0
      000000D8H.3 SFRSYM    DATA     BIT       P5_3
      000000A0H.6 SFRSYM    DATA     BIT       P2_6
      00000090H.7 SFRSYM    DATA     BIT       P1_7
      000000DEH   SFRSYM    DATA     BYTE      ADCON1
      000000D8H.4 SFRSYM    DATA     BIT       P5_4
      000000A0H.7 SFRSYM    DATA     BIT       P2_7
      000000E9H   SFRSYM    DATA     BYTE      ADCON2
      000000B8H   SFRSYM    DATA     BYTE      IP
      000000D8H.5 SFRSYM    DATA     BIT       P5_5
      000000CEH   SFRSYM    DATA     BYTE      CCEN
      000000D8H.6 SFRSYM    DATA     BIT       P5_6
      000000D8H.7 SFRSYM    DATA     BIT       P5_7
      000000D0H.7 SFRSYM    DATA     BIT       CY
      000000D2H   SFRSYM    DATA     BYTE      T34MOD
      000000F4H   SFRSYM    DATA     BYTE      I2CMSA
      000000D7H   SFRSYM    DATA     BYTE      SCKSTAU
      000000F5H   SFRSYM    DATA     BYTE      I2CMCR
      00000081H   SFRSYM    DATA     BYTE      SP
      000000D0H.2 SFRSYM    DATA     BIT       OV
      000000F2H   SFRSYM    DATA     BYTE      I2CSCR
      000000D9H   SFRSYM    DATA     BYTE      ADCCHS
      000000C8H.7 SFRSYM    DATA     BIT       T2PS
      000000D1H   SFRSYM    DATA     BYTE      ADCMPC
      000000CBH   SFRSYM    DATA     BYTE      RLDH
      000000D5H   SFRSYM    DATA     BYTE      ADCMPH
      000000CAH   SFRSYM    DATA     BYTE      RLDL
      00000080H.0 SFRSYM    DATA     BIT       P00
      00000090H.0 SFRSYM    DATA     BIT       P10
      00000080H.1 SFRSYM    DATA     BIT       P01
      000000F7H   SFRSYM    DATA     BYTE      I2CMTP
      00000087H   SFRSYM    DATA     BYTE      PCON
      000000A0H.0 SFRSYM    DATA     BIT       P20
      00000090H.1 SFRSYM    DATA     BIT       P11
      00000080H.2 SFRSYM    DATA     BIT       P02
      000000F5H   SFRSYM    DATA     BYTE      I2CMSR
      000000A0H.1 SFRSYM    DATA     BIT       P21
      00000090H.2 SFRSYM    DATA     BIT       P12
      00000080H.3 SFRSYM    DATA     BIT       P03
      000000D4H   SFRSYM    DATA     BYTE      ADCMPL
      000000A0H.2 SFRSYM    DATA     BIT       P22
      00000090H.3 SFRSYM    DATA     BIT       P13
      00000080H.4 SFRSYM    DATA     BIT       P04
      000000D8H.0 SFRSYM    DATA     BIT       P50
      000000A0H.3 SFRSYM    DATA     BIT       P23
      00000090H.4 SFRSYM    DATA     BIT       P14
      00000080H.5 SFRSYM    DATA     BIT       P05
      00000089H   SFRSYM    DATA     BYTE      TMOD
      00000088H   SFRSYM    DATA     BYTE      TCON
      000000D8H.1 SFRSYM    DATA     BIT       P51
      00000090H.5 SFRSYM    DATA     BIT       P15
      00000080H.6 SFRSYM    DATA     BIT       P06
      000000FAH   SFRSYM    DATA     BYTE      PCRCDH
      000000D8H.2 SFRSYM    DATA     BIT       P52
      00000090H.6 SFRSYM    DATA     BIT       P16
      00000080H.7 SFRSYM    DATA     BIT       P07
      000000D8H.3 SFRSYM    DATA     BIT       P53
      00000090H.7 SFRSYM    DATA     BIT       P17
      000000F2H   SFRSYM    DATA     BYTE      I2CSSR
      000000D8H.4 SFRSYM    DATA     BIT       P54
      000000ECH   SFRSYM    DATA     BYTE      SPCR
      000000DDH   SFRSYM    DATA     BYTE      ADRESH
      000000D8H.5 SFRSYM    DATA     BIT       P55
      000000F9H   SFRSYM    DATA     BYTE      PCRCDL
LX51 LINKER/LOCATER V4.66.93.0                                                        06/27/2023  19:17:35  PAGE 50


      000000EEH   SFRSYM    DATA     BYTE      SPDR
      000000EFH   SFRSYM    DATA     BYTE      SSCR
      000000D3H   SFRSYM    DATA     BYTE      ADDLYL
      000000DCH   SFRSYM    DATA     BYTE      ADRESL
      00000088H.1 SFRSYM    DATA     BIT       IE0
      00000088H.3 SFRSYM    DATA     BIT       IE1
      0000008FH   SFRSYM    DATA     BYTE      CLKDIV
      000000F0H   SFRSYM    DATA     BYTE      B
      00000091H   SFRSYM    DATA     BYTE      FUNCCR
      0000009AH   SFRSYM    DATA     BYTE      P0TRIS
      000000A1H   SFRSYM    DATA     BYTE      P1TRIS
      000000A2H   SFRSYM    DATA     BYTE      P2TRIS
      000000E0H   SFRSYM    DATA     BYTE      ACC
      000000D6H   SFRSYM    DATA     BYTE      SCKSEL
      000000A8H.4 SFRSYM    DATA     BIT       ES0
      000000A8H.1 SFRSYM    DATA     BIT       ET0
      000000A8H.6 SFRSYM    DATA     BIT       ES1
      000000EDH   SFRSYM    DATA     BYTE      SPSR
      000000A5H   SFRSYM    DATA     BYTE      P5TRIS
      000000A8H.3 SFRSYM    DATA     BIT       ET1
      00000088H.5 SFRSYM    DATA     BIT       TF0
      000000A8H.5 SFRSYM    DATA     BIT       ET2
      00000098H.0 SFRSYM    DATA     BIT       RI0
      00000088H.7 SFRSYM    DATA     BIT       TF1
      0000008CH   SFRSYM    DATA     BYTE      TH0
      000000A8H.0 SFRSYM    DATA     BIT       EX0
      00000098H.1 SFRSYM    DATA     BIT       TI0
      00000088H.0 SFRSYM    DATA     BIT       IT0
      0000008DH   SFRSYM    DATA     BYTE      TH1
      000000A8H.2 SFRSYM    DATA     BIT       EX1
      00000088H.2 SFRSYM    DATA     BIT       IT1
      000000CDH   SFRSYM    DATA     BYTE      TH2
      000000D0H.0 SFRSYM    DATA     BIT       P
      000000DBH   SFRSYM    DATA     BYTE      TH3
      000000E3H   SFRSYM    DATA     BYTE      TH4
      0000008AH   SFRSYM    DATA     BYTE      TL0
      000000F0H.0 SFRSYM    DATA     BIT       B_0
      0000008BH   SFRSYM    DATA     BYTE      TL1
      000000F0H.1 SFRSYM    DATA     BIT       B_1
      00000098H.2 SFRSYM    DATA     BIT       U0RB8
      000000CCH   SFRSYM    DATA     BYTE      TL2
      000000F0H.2 SFRSYM    DATA     BIT       B_2
      000000B8H.4 SFRSYM    DATA     BIT       PS0
      000000DAH   SFRSYM    DATA     BYTE      TL3
      000000BFH   SFRSYM    DATA     BYTE      BUZCON
      000000F0H.3 SFRSYM    DATA     BIT       B_3
      000000B8H.1 SFRSYM    DATA     BIT       PT0
      000000B8H.6 SFRSYM    DATA     BIT       PS1
      00000098H.3 SFRSYM    DATA     BIT       U0TB8
      000000E2H   SFRSYM    DATA     BYTE      TL4
      000000F0H.4 SFRSYM    DATA     BIT       B_4
      000000D0H.3 SFRSYM    DATA     BIT       RS0
      000000B8H.3 SFRSYM    DATA     BIT       PT1
      000000F0H.5 SFRSYM    DATA     BIT       B_5
      000000D0H.4 SFRSYM    DATA     BIT       RS1
      000000B8H.5 SFRSYM    DATA     BIT       PT2
      00000098H.7 SFRSYM    DATA     BIT       U0SM0
      00000088H.4 SFRSYM    DATA     BIT       TR0
      000000BEH   SFRSYM    DATA     BYTE      BUZDIV
      000000F0H.6 SFRSYM    DATA     BIT       B_6
      000000E0H.0 SFRSYM    DATA     BIT       ACC_0
      00000098H.6 SFRSYM    DATA     BIT       U0SM1
      00000088H.6 SFRSYM    DATA     BIT       TR1
      000000F0H.7 SFRSYM    DATA     BIT       B_7
      000000E0H.1 SFRSYM    DATA     BIT       ACC_1
LX51 LINKER/LOCATER V4.66.93.0                                                        06/27/2023  19:17:35  PAGE 51


      000000B8H.0 SFRSYM    DATA     BIT       PX0
      00000098H.5 SFRSYM    DATA     BIT       U0SM2
      000000E0H.2 SFRSYM    DATA     BIT       ACC_2
      000000B8H.2 SFRSYM    DATA     BIT       PX1
      000000E0H.3 SFRSYM    DATA     BIT       ACC_3
      000000E0H.4 SFRSYM    DATA     BIT       ACC_4
      000000E0H.5 SFRSYM    DATA     BIT       ACC_5
      000000E0H.6 SFRSYM    DATA     BIT       ACC_6
      000000E0H.7 SFRSYM    DATA     BIT       ACC_7
      000000BDH   SFRSYM    DATA     BYTE      WUTCRH
      00000099H   SFRSYM    DATA     BYTE      SBUF0
      000000EBH   SFRSYM    DATA     BYTE      SBUF1
      000000BCH   SFRSYM    DATA     BYTE      WUTCRL
      00000098H   SFRSYM    DATA     BYTE      SCON0
      000000EAH   SFRSYM    DATA     BYTE      SCON1
      000000C8H   SFRSYM    DATA     BYTE      T2CON
      00000086H   SFRSYM    DATA     BYTE      DPS
      000000FEH   SFRSYM    DATA     BYTE      MDATA
      000000F6H   SFRSYM    DATA     BYTE      I2CMBUF
      000000F1H   SFRSYM    DATA     BYTE      I2CSADR
      00000098H.4 SFRSYM    DATA     BIT       U0REN
      000000C8H.5 SFRSYM    DATA     BIT       CAPES
      000000FDH   SFRSYM    DATA     BYTE      MADRH
      0000008EH   SFRSYM    DATA     BYTE      CKCON
      000000F3H   SFRSYM    DATA     BYTE      I2CSBUF
      000000FCH   SFRSYM    DATA     BYTE      MADRL
      000000D0H.5 SFRSYM    DATA     BIT       F0
      000000FBH   SFRSYM    DATA     BYTE      MLOCK
      000000D0H   SFRSYM    DATA     BYTE      PSW
      00000097H   SFRSYM    DATA     BYTE      WDCON

      01002E24H   BLOCK     CODE     ---       LVL=0
      00000007H   SYMBOL    DATA     BYTE      TsysCoefficient
      01002E24H   LINE      CODE     ---       #81
      01002E24H   LINE      CODE     ---       #82
      01002E24H   LINE      CODE     ---       #83
      01002E27H   LINE      CODE     ---       #84
      01002E2EH   LINE      CODE     ---       #85
      ---         BLOCKEND  ---      ---       LVL=0

      01002CF5H   BLOCK     CODE     ---       LVL=0
      01002CF5H   LINE      CODE     ---       #95
      01002CF5H   LINE      CODE     ---       #96
      01002CF5H   LINE      CODE     ---       #97
      01002CF8H   LINE      CODE     ---       #98
      01002CF8H   LINE      CODE     ---       #99
      01002CFAH   LINE      CODE     ---       #100
      01002CFDH   LINE      CODE     ---       #101
      01002D00H   LINE      CODE     ---       #102
      01002D03H   LINE      CODE     ---       #103
      01002D05H   LINE      CODE     ---       #104
      01002D06H   LINE      CODE     ---       #106
      01002D06H   LINE      CODE     ---       #107
      01002D09H   LINE      CODE     ---       #108
      01002D0CH   LINE      CODE     ---       #109
      01002D0FH   LINE      CODE     ---       #110
      01002D0FH   LINE      CODE     ---       #111
      ---         BLOCKEND  ---      ---       LVL=0

      01002D10H   BLOCK     CODE     ---       LVL=0
      01002D10H   LINE      CODE     ---       #148
      01002D10H   LINE      CODE     ---       #149
      01002D10H   LINE      CODE     ---       #150
      01002D13H   LINE      CODE     ---       #151
      01002D13H   LINE      CODE     ---       #152
LX51 LINKER/LOCATER V4.66.93.0                                                        06/27/2023  19:17:35  PAGE 52


      01002D15H   LINE      CODE     ---       #153
      01002D18H   LINE      CODE     ---       #154
      01002D1BH   LINE      CODE     ---       #155
      01002D1EH   LINE      CODE     ---       #156
      01002D20H   LINE      CODE     ---       #157
      01002D21H   LINE      CODE     ---       #159
      01002D21H   LINE      CODE     ---       #160
      01002D24H   LINE      CODE     ---       #161
      01002D27H   LINE      CODE     ---       #162
      01002D2AH   LINE      CODE     ---       #163
      01002D2AH   LINE      CODE     ---       #164
      ---         BLOCKEND  ---      ---       LVL=0

      01002E97H   BLOCK     CODE     ---       LVL=0
      01002E97H   LINE      CODE     ---       #185
      01002E97H   LINE      CODE     ---       #186
      01002E97H   LINE      CODE     ---       #187
      01002E9AH   LINE      CODE     ---       #188
      ---         BLOCKEND  ---      ---       LVL=0

      ---         MODULE    ---      ---       LED
      000000C8H.0 SFRSYM    DATA     BIT       T2I0
      000000C3H   SFRSYM    DATA     BYTE      CCH1
      00000080H   SFRSYM    DATA     BYTE      P0
      000000C8H.1 SFRSYM    DATA     BIT       T2I1
      000000C5H   SFRSYM    DATA     BYTE      CCH2
      00000090H   SFRSYM    DATA     BYTE      P1
      000000C7H   SFRSYM    DATA     BYTE      CCH3
      000000ACH   SFRSYM    DATA     BYTE      P0EXTIE
      000000A0H   SFRSYM    DATA     BYTE      P2
      000000B4H   SFRSYM    DATA     BYTE      P0EXTIF
      000000ADH   SFRSYM    DATA     BYTE      P1EXTIE
      000000D0H.6 SFRSYM    DATA     BIT       AC
      000000FFH   SFRSYM    DATA     BYTE      MCTRL
      000000C2H   SFRSYM    DATA     BYTE      CCL1
      000000B5H   SFRSYM    DATA     BYTE      P1EXTIF
      000000AEH   SFRSYM    DATA     BYTE      P2EXTIE
      000000D8H   SFRSYM    DATA     BYTE      P5
      000000C4H   SFRSYM    DATA     BYTE      CCL2
      000000B6H   SFRSYM    DATA     BYTE      P2EXTIF
      000000A8H.7 SFRSYM    DATA     BIT       EA
      000000C6H   SFRSYM    DATA     BYTE      CCL3
      000000AAH   SFRSYM    DATA     BYTE      EIE2
      000000B2H   SFRSYM    DATA     BYTE      EIF2
      0000009CH   SFRSYM    DATA     BYTE      P5EXTIE
      000000A7H   SFRSYM    DATA     BYTE      P5EXTIF
      000000C8H.3 SFRSYM    DATA     BIT       T2R0
      000000C8H.4 SFRSYM    DATA     BIT       T2R1
      00000083H   SFRSYM    DATA     BYTE      DPH0
      000000A8H   SFRSYM    DATA     BYTE      IE
      00000085H   SFRSYM    DATA     BYTE      DPH1
      00000080H.0 SFRSYM    DATA     BIT       P0_0
      000000B9H   SFRSYM    DATA     BYTE      EIP1
      00000090H.0 SFRSYM    DATA     BIT       P1_0
      00000080H.1 SFRSYM    DATA     BIT       P0_1
      000000BAH   SFRSYM    DATA     BYTE      EIP2
      00000082H   SFRSYM    DATA     BYTE      DPL0
      000000A0H.0 SFRSYM    DATA     BIT       P2_0
      00000090H.1 SFRSYM    DATA     BIT       P1_1
      00000080H.2 SFRSYM    DATA     BIT       P0_2
      000000BBH   SFRSYM    DATA     BYTE      EIP3
      00000084H   SFRSYM    DATA     BYTE      DPL1
      000000A0H.1 SFRSYM    DATA     BIT       P2_1
      00000090H.2 SFRSYM    DATA     BIT       P1_2
      00000080H.3 SFRSYM    DATA     BIT       P0_3
LX51 LINKER/LOCATER V4.66.93.0                                                        06/27/2023  19:17:35  PAGE 53


      000000A0H.2 SFRSYM    DATA     BIT       P2_2
      00000090H.3 SFRSYM    DATA     BIT       P1_3
      00000080H.4 SFRSYM    DATA     BIT       P0_4
      000000D8H.0 SFRSYM    DATA     BIT       P5_0
      000000C8H.6 SFRSYM    DATA     BIT       I3FR
      000000A0H.3 SFRSYM    DATA     BIT       P2_3
      00000090H.4 SFRSYM    DATA     BIT       P1_4
      00000080H.5 SFRSYM    DATA     BIT       P0_5
      000000CFH   SFRSYM    DATA     BYTE      T2IE
      00000096H   SFRSYM    DATA     BYTE      TA
      000000D8H.1 SFRSYM    DATA     BIT       P5_1
      000000A0H.4 SFRSYM    DATA     BIT       P2_4
      00000090H.5 SFRSYM    DATA     BIT       P1_5
      00000080H.6 SFRSYM    DATA     BIT       P0_6
      000000C9H   SFRSYM    DATA     BYTE      T2IF
      000000D8H.2 SFRSYM    DATA     BIT       P5_2
      000000C8H.2 SFRSYM    DATA     BIT       T2CM
      000000A0H.5 SFRSYM    DATA     BIT       P2_5
      00000090H.6 SFRSYM    DATA     BIT       P1_6
      00000080H.7 SFRSYM    DATA     BIT       P0_7
      000000DFH   SFRSYM    DATA     BYTE      ADCON0
      000000D8H.3 SFRSYM    DATA     BIT       P5_3
      000000A0H.6 SFRSYM    DATA     BIT       P2_6
      00000090H.7 SFRSYM    DATA     BIT       P1_7
      000000DEH   SFRSYM    DATA     BYTE      ADCON1
      000000D8H.4 SFRSYM    DATA     BIT       P5_4
      000000A0H.7 SFRSYM    DATA     BIT       P2_7
      000000E9H   SFRSYM    DATA     BYTE      ADCON2
      000000B8H   SFRSYM    DATA     BYTE      IP
      000000D8H.5 SFRSYM    DATA     BIT       P5_5
      000000CEH   SFRSYM    DATA     BYTE      CCEN
      000000D8H.6 SFRSYM    DATA     BIT       P5_6
      000000D8H.7 SFRSYM    DATA     BIT       P5_7
      000000D0H.7 SFRSYM    DATA     BIT       CY
      000000D2H   SFRSYM    DATA     BYTE      T34MOD
      000000F4H   SFRSYM    DATA     BYTE      I2CMSA
      000000D7H   SFRSYM    DATA     BYTE      SCKSTAU
      000000F5H   SFRSYM    DATA     BYTE      I2CMCR
      00000081H   SFRSYM    DATA     BYTE      SP
      000000D0H.2 SFRSYM    DATA     BIT       OV
      000000F2H   SFRSYM    DATA     BYTE      I2CSCR
      000000D9H   SFRSYM    DATA     BYTE      ADCCHS
      000000C8H.7 SFRSYM    DATA     BIT       T2PS
      000000D1H   SFRSYM    DATA     BYTE      ADCMPC
      000000CBH   SFRSYM    DATA     BYTE      RLDH
      000000D5H   SFRSYM    DATA     BYTE      ADCMPH
      000000CAH   SFRSYM    DATA     BYTE      RLDL
      00000080H.0 SFRSYM    DATA     BIT       P00
      00000090H.0 SFRSYM    DATA     BIT       P10
      00000080H.1 SFRSYM    DATA     BIT       P01
      000000F7H   SFRSYM    DATA     BYTE      I2CMTP
      00000087H   SFRSYM    DATA     BYTE      PCON
      000000A0H.0 SFRSYM    DATA     BIT       P20
      00000090H.1 SFRSYM    DATA     BIT       P11
      00000080H.2 SFRSYM    DATA     BIT       P02
      000000F5H   SFRSYM    DATA     BYTE      I2CMSR
      000000A0H.1 SFRSYM    DATA     BIT       P21
      00000090H.2 SFRSYM    DATA     BIT       P12
      00000080H.3 SFRSYM    DATA     BIT       P03
      000000D4H   SFRSYM    DATA     BYTE      ADCMPL
      000000A0H.2 SFRSYM    DATA     BIT       P22
      00000090H.3 SFRSYM    DATA     BIT       P13
      00000080H.4 SFRSYM    DATA     BIT       P04
      000000D8H.0 SFRSYM    DATA     BIT       P50
      000000A0H.3 SFRSYM    DATA     BIT       P23
LX51 LINKER/LOCATER V4.66.93.0                                                        06/27/2023  19:17:35  PAGE 54


      00000090H.4 SFRSYM    DATA     BIT       P14
      00000080H.5 SFRSYM    DATA     BIT       P05
      00000089H   SFRSYM    DATA     BYTE      TMOD
      00000088H   SFRSYM    DATA     BYTE      TCON
      000000D8H.1 SFRSYM    DATA     BIT       P51
      00000090H.5 SFRSYM    DATA     BIT       P15
      00000080H.6 SFRSYM    DATA     BIT       P06
      000000FAH   SFRSYM    DATA     BYTE      PCRCDH
      000000D8H.2 SFRSYM    DATA     BIT       P52
      00000090H.6 SFRSYM    DATA     BIT       P16
      00000080H.7 SFRSYM    DATA     BIT       P07
      000000D8H.3 SFRSYM    DATA     BIT       P53
      00000090H.7 SFRSYM    DATA     BIT       P17
      000000F2H   SFRSYM    DATA     BYTE      I2CSSR
      000000D8H.4 SFRSYM    DATA     BIT       P54
      000000ECH   SFRSYM    DATA     BYTE      SPCR
      000000DDH   SFRSYM    DATA     BYTE      ADRESH
      000000D8H.5 SFRSYM    DATA     BIT       P55
      000000F9H   SFRSYM    DATA     BYTE      PCRCDL
      000000EEH   SFRSYM    DATA     BYTE      SPDR
      000000EFH   SFRSYM    DATA     BYTE      SSCR
      000000D3H   SFRSYM    DATA     BYTE      ADDLYL
      000000DCH   SFRSYM    DATA     BYTE      ADRESL
      00000088H.1 SFRSYM    DATA     BIT       IE0
      00000088H.3 SFRSYM    DATA     BIT       IE1
      0000008FH   SFRSYM    DATA     BYTE      CLKDIV
      000000F0H   SFRSYM    DATA     BYTE      B
      00000091H   SFRSYM    DATA     BYTE      FUNCCR
      0000009AH   SFRSYM    DATA     BYTE      P0TRIS
      000000A1H   SFRSYM    DATA     BYTE      P1TRIS
      000000A2H   SFRSYM    DATA     BYTE      P2TRIS
      000000E0H   SFRSYM    DATA     BYTE      ACC
      000000D6H   SFRSYM    DATA     BYTE      SCKSEL
      000000A8H.4 SFRSYM    DATA     BIT       ES0
      000000A8H.1 SFRSYM    DATA     BIT       ET0
      000000A8H.6 SFRSYM    DATA     BIT       ES1
      000000EDH   SFRSYM    DATA     BYTE      SPSR
      000000A5H   SFRSYM    DATA     BYTE      P5TRIS
      000000A8H.3 SFRSYM    DATA     BIT       ET1
      00000088H.5 SFRSYM    DATA     BIT       TF0
      000000A8H.5 SFRSYM    DATA     BIT       ET2
      00000098H.0 SFRSYM    DATA     BIT       RI0
      00000088H.7 SFRSYM    DATA     BIT       TF1
      0000008CH   SFRSYM    DATA     BYTE      TH0
      000000A8H.0 SFRSYM    DATA     BIT       EX0
      00000098H.1 SFRSYM    DATA     BIT       TI0
      00000088H.0 SFRSYM    DATA     BIT       IT0
      0000008DH   SFRSYM    DATA     BYTE      TH1
      000000A8H.2 SFRSYM    DATA     BIT       EX1
      00000088H.2 SFRSYM    DATA     BIT       IT1
      000000CDH   SFRSYM    DATA     BYTE      TH2
      000000D0H.0 SFRSYM    DATA     BIT       P
      000000DBH   SFRSYM    DATA     BYTE      TH3
      000000E3H   SFRSYM    DATA     BYTE      TH4
      0000008AH   SFRSYM    DATA     BYTE      TL0
      000000F0H.0 SFRSYM    DATA     BIT       B_0
      0000008BH   SFRSYM    DATA     BYTE      TL1
      000000F0H.1 SFRSYM    DATA     BIT       B_1
      00000098H.2 SFRSYM    DATA     BIT       U0RB8
      000000CCH   SFRSYM    DATA     BYTE      TL2
      000000F0H.2 SFRSYM    DATA     BIT       B_2
      000000B8H.4 SFRSYM    DATA     BIT       PS0
      000000DAH   SFRSYM    DATA     BYTE      TL3
      000000BFH   SFRSYM    DATA     BYTE      BUZCON
      000000F0H.3 SFRSYM    DATA     BIT       B_3
LX51 LINKER/LOCATER V4.66.93.0                                                        06/27/2023  19:17:35  PAGE 55


      000000B8H.1 SFRSYM    DATA     BIT       PT0
      000000B8H.6 SFRSYM    DATA     BIT       PS1
      00000098H.3 SFRSYM    DATA     BIT       U0TB8
      000000E2H   SFRSYM    DATA     BYTE      TL4
      000000F0H.4 SFRSYM    DATA     BIT       B_4
      000000D0H.3 SFRSYM    DATA     BIT       RS0
      000000B8H.3 SFRSYM    DATA     BIT       PT1
      000000F0H.5 SFRSYM    DATA     BIT       B_5
      000000D0H.4 SFRSYM    DATA     BIT       RS1
      000000B8H.5 SFRSYM    DATA     BIT       PT2
      00000098H.7 SFRSYM    DATA     BIT       U0SM0
      00000088H.4 SFRSYM    DATA     BIT       TR0
      000000BEH   SFRSYM    DATA     BYTE      BUZDIV
      000000F0H.6 SFRSYM    DATA     BIT       B_6
      000000E0H.0 SFRSYM    DATA     BIT       ACC_0
      00000098H.6 SFRSYM    DATA     BIT       U0SM1
      00000088H.6 SFRSYM    DATA     BIT       TR1
      000000F0H.7 SFRSYM    DATA     BIT       B_7
      000000E0H.1 SFRSYM    DATA     BIT       ACC_1
      000000B8H.0 SFRSYM    DATA     BIT       PX0
      00000098H.5 SFRSYM    DATA     BIT       U0SM2
      000000E0H.2 SFRSYM    DATA     BIT       ACC_2
      000000B8H.2 SFRSYM    DATA     BIT       PX1
      000000E0H.3 SFRSYM    DATA     BIT       ACC_3
      000000E0H.4 SFRSYM    DATA     BIT       ACC_4
      000000E0H.5 SFRSYM    DATA     BIT       ACC_5
      000000E0H.6 SFRSYM    DATA     BIT       ACC_6
      000000E0H.7 SFRSYM    DATA     BIT       ACC_7
      000000BDH   SFRSYM    DATA     BYTE      WUTCRH
      00000099H   SFRSYM    DATA     BYTE      SBUF0
      000000EBH   SFRSYM    DATA     BYTE      SBUF1
      000000BCH   SFRSYM    DATA     BYTE      WUTCRL
      00000098H   SFRSYM    DATA     BYTE      SCON0
      000000EAH   SFRSYM    DATA     BYTE      SCON1
      000000C8H   SFRSYM    DATA     BYTE      T2CON
      00000086H   SFRSYM    DATA     BYTE      DPS
      000000FEH   SFRSYM    DATA     BYTE      MDATA
      000000F6H   SFRSYM    DATA     BYTE      I2CMBUF
      000000F1H   SFRSYM    DATA     BYTE      I2CSADR
      00000098H.4 SFRSYM    DATA     BIT       U0REN
      000000C8H.5 SFRSYM    DATA     BIT       CAPES
      000000FDH   SFRSYM    DATA     BYTE      MADRH
      0000008EH   SFRSYM    DATA     BYTE      CKCON
      000000F3H   SFRSYM    DATA     BYTE      I2CSBUF
      000000FCH   SFRSYM    DATA     BYTE      MADRL
      000000D0H.5 SFRSYM    DATA     BIT       F0
      000000FBH   SFRSYM    DATA     BYTE      MLOCK
      000000D0H   SFRSYM    DATA     BYTE      PSW
      00000097H   SFRSYM    DATA     BYTE      WDCON
      00000007H   SYMBOL    DATA     BYTE      ClkSel
      00000005H   SYMBOL    DATA     BYTE      Duty
      00000003H   SYMBOL    DATA     BYTE      Common
      00000006H   SYMBOL    DATA     WORD      ClkDiv
      00000007H   SYMBOL    DATA     BYTE      Time
      00000007H   SYMBOL    DATA     BYTE      ClkSel
      00000005H   SYMBOL    DATA     BYTE      Mode
      00000003H   SYMBOL    DATA     BYTE      Scan
      00000006H   SYMBOL    DATA     WORD      ClkDiv
      00000006H   SYMBOL    DATA     WORD      Period
      00000006H   SYMBOL    DATA     WORD      Period

      ---         MODULE    ---      ---       BUZZER
      01002E3AH   PUBLIC    CODE     ---       _BUZ_ConfigBuzzer
      01002E9FH   PUBLIC    CODE     ---       BUZ_DisableBuzzer
      01002E9BH   PUBLIC    CODE     ---       BUZ_EnableBuzzer
LX51 LINKER/LOCATER V4.66.93.0                                                        06/27/2023  19:17:35  PAGE 56


      000000C8H.0 SFRSYM    DATA     BIT       T2I0
      000000C3H   SFRSYM    DATA     BYTE      CCH1
      00000080H   SFRSYM    DATA     BYTE      P0
      000000C8H.1 SFRSYM    DATA     BIT       T2I1
      000000C5H   SFRSYM    DATA     BYTE      CCH2
      00000090H   SFRSYM    DATA     BYTE      P1
      000000C7H   SFRSYM    DATA     BYTE      CCH3
      000000ACH   SFRSYM    DATA     BYTE      P0EXTIE
      000000A0H   SFRSYM    DATA     BYTE      P2
      000000B4H   SFRSYM    DATA     BYTE      P0EXTIF
      000000ADH   SFRSYM    DATA     BYTE      P1EXTIE
      000000D0H.6 SFRSYM    DATA     BIT       AC
      000000FFH   SFRSYM    DATA     BYTE      MCTRL
      000000C2H   SFRSYM    DATA     BYTE      CCL1
      000000B5H   SFRSYM    DATA     BYTE      P1EXTIF
      000000AEH   SFRSYM    DATA     BYTE      P2EXTIE
      000000D8H   SFRSYM    DATA     BYTE      P5
      000000C4H   SFRSYM    DATA     BYTE      CCL2
      000000B6H   SFRSYM    DATA     BYTE      P2EXTIF
      000000A8H.7 SFRSYM    DATA     BIT       EA
      000000C6H   SFRSYM    DATA     BYTE      CCL3
      000000AAH   SFRSYM    DATA     BYTE      EIE2
      000000B2H   SFRSYM    DATA     BYTE      EIF2
      0000009CH   SFRSYM    DATA     BYTE      P5EXTIE
      000000A7H   SFRSYM    DATA     BYTE      P5EXTIF
      000000C8H.3 SFRSYM    DATA     BIT       T2R0
      000000C8H.4 SFRSYM    DATA     BIT       T2R1
      00000083H   SFRSYM    DATA     BYTE      DPH0
      000000A8H   SFRSYM    DATA     BYTE      IE
      00000085H   SFRSYM    DATA     BYTE      DPH1
      00000080H.0 SFRSYM    DATA     BIT       P0_0
      000000B9H   SFRSYM    DATA     BYTE      EIP1
      00000090H.0 SFRSYM    DATA     BIT       P1_0
      00000080H.1 SFRSYM    DATA     BIT       P0_1
      000000BAH   SFRSYM    DATA     BYTE      EIP2
      00000082H   SFRSYM    DATA     BYTE      DPL0
      000000A0H.0 SFRSYM    DATA     BIT       P2_0
      00000090H.1 SFRSYM    DATA     BIT       P1_1
      00000080H.2 SFRSYM    DATA     BIT       P0_2
      000000BBH   SFRSYM    DATA     BYTE      EIP3
      00000084H   SFRSYM    DATA     BYTE      DPL1
      000000A0H.1 SFRSYM    DATA     BIT       P2_1
      00000090H.2 SFRSYM    DATA     BIT       P1_2
      00000080H.3 SFRSYM    DATA     BIT       P0_3
      000000A0H.2 SFRSYM    DATA     BIT       P2_2
      00000090H.3 SFRSYM    DATA     BIT       P1_3
      00000080H.4 SFRSYM    DATA     BIT       P0_4
      000000D8H.0 SFRSYM    DATA     BIT       P5_0
      000000C8H.6 SFRSYM    DATA     BIT       I3FR
      000000A0H.3 SFRSYM    DATA     BIT       P2_3
      00000090H.4 SFRSYM    DATA     BIT       P1_4
      00000080H.5 SFRSYM    DATA     BIT       P0_5
      000000CFH   SFRSYM    DATA     BYTE      T2IE
      00000096H   SFRSYM    DATA     BYTE      TA
      000000D8H.1 SFRSYM    DATA     BIT       P5_1
      000000A0H.4 SFRSYM    DATA     BIT       P2_4
      00000090H.5 SFRSYM    DATA     BIT       P1_5
      00000080H.6 SFRSYM    DATA     BIT       P0_6
      000000C9H   SFRSYM    DATA     BYTE      T2IF
      000000D8H.2 SFRSYM    DATA     BIT       P5_2
      000000C8H.2 SFRSYM    DATA     BIT       T2CM
      000000A0H.5 SFRSYM    DATA     BIT       P2_5
      00000090H.6 SFRSYM    DATA     BIT       P1_6
      00000080H.7 SFRSYM    DATA     BIT       P0_7
      000000DFH   SFRSYM    DATA     BYTE      ADCON0
LX51 LINKER/LOCATER V4.66.93.0                                                        06/27/2023  19:17:35  PAGE 57


      000000D8H.3 SFRSYM    DATA     BIT       P5_3
      000000A0H.6 SFRSYM    DATA     BIT       P2_6
      00000090H.7 SFRSYM    DATA     BIT       P1_7
      000000DEH   SFRSYM    DATA     BYTE      ADCON1
      000000D8H.4 SFRSYM    DATA     BIT       P5_4
      000000A0H.7 SFRSYM    DATA     BIT       P2_7
      000000E9H   SFRSYM    DATA     BYTE      ADCON2
      000000B8H   SFRSYM    DATA     BYTE      IP
      000000D8H.5 SFRSYM    DATA     BIT       P5_5
      000000CEH   SFRSYM    DATA     BYTE      CCEN
      000000D8H.6 SFRSYM    DATA     BIT       P5_6
      000000D8H.7 SFRSYM    DATA     BIT       P5_7
      000000D0H.7 SFRSYM    DATA     BIT       CY
      000000D2H   SFRSYM    DATA     BYTE      T34MOD
      000000F4H   SFRSYM    DATA     BYTE      I2CMSA
      000000D7H   SFRSYM    DATA     BYTE      SCKSTAU
      000000F5H   SFRSYM    DATA     BYTE      I2CMCR
      00000081H   SFRSYM    DATA     BYTE      SP
      000000D0H.2 SFRSYM    DATA     BIT       OV
      000000F2H   SFRSYM    DATA     BYTE      I2CSCR
      000000D9H   SFRSYM    DATA     BYTE      ADCCHS
      000000C8H.7 SFRSYM    DATA     BIT       T2PS
      000000D1H   SFRSYM    DATA     BYTE      ADCMPC
      000000CBH   SFRSYM    DATA     BYTE      RLDH
      000000D5H   SFRSYM    DATA     BYTE      ADCMPH
      000000CAH   SFRSYM    DATA     BYTE      RLDL
      00000080H.0 SFRSYM    DATA     BIT       P00
      00000090H.0 SFRSYM    DATA     BIT       P10
      00000080H.1 SFRSYM    DATA     BIT       P01
      000000F7H   SFRSYM    DATA     BYTE      I2CMTP
      00000087H   SFRSYM    DATA     BYTE      PCON
      000000A0H.0 SFRSYM    DATA     BIT       P20
      00000090H.1 SFRSYM    DATA     BIT       P11
      00000080H.2 SFRSYM    DATA     BIT       P02
      000000F5H   SFRSYM    DATA     BYTE      I2CMSR
      000000A0H.1 SFRSYM    DATA     BIT       P21
      00000090H.2 SFRSYM    DATA     BIT       P12
      00000080H.3 SFRSYM    DATA     BIT       P03
      000000D4H   SFRSYM    DATA     BYTE      ADCMPL
      000000A0H.2 SFRSYM    DATA     BIT       P22
      00000090H.3 SFRSYM    DATA     BIT       P13
      00000080H.4 SFRSYM    DATA     BIT       P04
      000000D8H.0 SFRSYM    DATA     BIT       P50
      000000A0H.3 SFRSYM    DATA     BIT       P23
      00000090H.4 SFRSYM    DATA     BIT       P14
      00000080H.5 SFRSYM    DATA     BIT       P05
      00000089H   SFRSYM    DATA     BYTE      TMOD
      00000088H   SFRSYM    DATA     BYTE      TCON
      000000D8H.1 SFRSYM    DATA     BIT       P51
      00000090H.5 SFRSYM    DATA     BIT       P15
      00000080H.6 SFRSYM    DATA     BIT       P06
      000000FAH   SFRSYM    DATA     BYTE      PCRCDH
      000000D8H.2 SFRSYM    DATA     BIT       P52
      00000090H.6 SFRSYM    DATA     BIT       P16
      00000080H.7 SFRSYM    DATA     BIT       P07
      000000D8H.3 SFRSYM    DATA     BIT       P53
      00000090H.7 SFRSYM    DATA     BIT       P17
      000000F2H   SFRSYM    DATA     BYTE      I2CSSR
      000000D8H.4 SFRSYM    DATA     BIT       P54
      000000ECH   SFRSYM    DATA     BYTE      SPCR
      000000DDH   SFRSYM    DATA     BYTE      ADRESH
      000000D8H.5 SFRSYM    DATA     BIT       P55
      000000F9H   SFRSYM    DATA     BYTE      PCRCDL
      000000EEH   SFRSYM    DATA     BYTE      SPDR
      000000EFH   SFRSYM    DATA     BYTE      SSCR
LX51 LINKER/LOCATER V4.66.93.0                                                        06/27/2023  19:17:35  PAGE 58


      000000D3H   SFRSYM    DATA     BYTE      ADDLYL
      000000DCH   SFRSYM    DATA     BYTE      ADRESL
      00000088H.1 SFRSYM    DATA     BIT       IE0
      00000088H.3 SFRSYM    DATA     BIT       IE1
      0000008FH   SFRSYM    DATA     BYTE      CLKDIV
      000000F0H   SFRSYM    DATA     BYTE      B
      00000091H   SFRSYM    DATA     BYTE      FUNCCR
      0000009AH   SFRSYM    DATA     BYTE      P0TRIS
      000000A1H   SFRSYM    DATA     BYTE      P1TRIS
      000000A2H   SFRSYM    DATA     BYTE      P2TRIS
      000000E0H   SFRSYM    DATA     BYTE      ACC
      000000D6H   SFRSYM    DATA     BYTE      SCKSEL
      000000A8H.4 SFRSYM    DATA     BIT       ES0
      000000A8H.1 SFRSYM    DATA     BIT       ET0
      000000A8H.6 SFRSYM    DATA     BIT       ES1
      000000EDH   SFRSYM    DATA     BYTE      SPSR
      000000A5H   SFRSYM    DATA     BYTE      P5TRIS
      000000A8H.3 SFRSYM    DATA     BIT       ET1
      00000088H.5 SFRSYM    DATA     BIT       TF0
      000000A8H.5 SFRSYM    DATA     BIT       ET2
      00000098H.0 SFRSYM    DATA     BIT       RI0
      00000088H.7 SFRSYM    DATA     BIT       TF1
      0000008CH   SFRSYM    DATA     BYTE      TH0
      000000A8H.0 SFRSYM    DATA     BIT       EX0
      00000098H.1 SFRSYM    DATA     BIT       TI0
      00000088H.0 SFRSYM    DATA     BIT       IT0
      0000008DH   SFRSYM    DATA     BYTE      TH1
      000000A8H.2 SFRSYM    DATA     BIT       EX1
      00000088H.2 SFRSYM    DATA     BIT       IT1
      000000CDH   SFRSYM    DATA     BYTE      TH2
      000000D0H.0 SFRSYM    DATA     BIT       P
      000000DBH   SFRSYM    DATA     BYTE      TH3
      000000E3H   SFRSYM    DATA     BYTE      TH4
      0000008AH   SFRSYM    DATA     BYTE      TL0
      000000F0H.0 SFRSYM    DATA     BIT       B_0
      0000008BH   SFRSYM    DATA     BYTE      TL1
      000000F0H.1 SFRSYM    DATA     BIT       B_1
      00000098H.2 SFRSYM    DATA     BIT       U0RB8
      000000CCH   SFRSYM    DATA     BYTE      TL2
      000000F0H.2 SFRSYM    DATA     BIT       B_2
      000000B8H.4 SFRSYM    DATA     BIT       PS0
      000000DAH   SFRSYM    DATA     BYTE      TL3
      000000BFH   SFRSYM    DATA     BYTE      BUZCON
      000000F0H.3 SFRSYM    DATA     BIT       B_3
      000000B8H.1 SFRSYM    DATA     BIT       PT0
      000000B8H.6 SFRSYM    DATA     BIT       PS1
      00000098H.3 SFRSYM    DATA     BIT       U0TB8
      000000E2H   SFRSYM    DATA     BYTE      TL4
      000000F0H.4 SFRSYM    DATA     BIT       B_4
      000000D0H.3 SFRSYM    DATA     BIT       RS0
      000000B8H.3 SFRSYM    DATA     BIT       PT1
      000000F0H.5 SFRSYM    DATA     BIT       B_5
      000000D0H.4 SFRSYM    DATA     BIT       RS1
      000000B8H.5 SFRSYM    DATA     BIT       PT2
      00000098H.7 SFRSYM    DATA     BIT       U0SM0
      00000088H.4 SFRSYM    DATA     BIT       TR0
      000000BEH   SFRSYM    DATA     BYTE      BUZDIV
      000000F0H.6 SFRSYM    DATA     BIT       B_6
      000000E0H.0 SFRSYM    DATA     BIT       ACC_0
      00000098H.6 SFRSYM    DATA     BIT       U0SM1
      00000088H.6 SFRSYM    DATA     BIT       TR1
      000000F0H.7 SFRSYM    DATA     BIT       B_7
      000000E0H.1 SFRSYM    DATA     BIT       ACC_1
      000000B8H.0 SFRSYM    DATA     BIT       PX0
      00000098H.5 SFRSYM    DATA     BIT       U0SM2
LX51 LINKER/LOCATER V4.66.93.0                                                        06/27/2023  19:17:35  PAGE 59


      000000E0H.2 SFRSYM    DATA     BIT       ACC_2
      000000B8H.2 SFRSYM    DATA     BIT       PX1
      000000E0H.3 SFRSYM    DATA     BIT       ACC_3
      000000E0H.4 SFRSYM    DATA     BIT       ACC_4
      000000E0H.5 SFRSYM    DATA     BIT       ACC_5
      000000E0H.6 SFRSYM    DATA     BIT       ACC_6
      000000E0H.7 SFRSYM    DATA     BIT       ACC_7
      000000BDH   SFRSYM    DATA     BYTE      WUTCRH
      00000099H   SFRSYM    DATA     BYTE      SBUF0
      000000EBH   SFRSYM    DATA     BYTE      SBUF1
      000000BCH   SFRSYM    DATA     BYTE      WUTCRL
      00000098H   SFRSYM    DATA     BYTE      SCON0
      000000EAH   SFRSYM    DATA     BYTE      SCON1
      000000C8H   SFRSYM    DATA     BYTE      T2CON
      00000086H   SFRSYM    DATA     BYTE      DPS
      000000FEH   SFRSYM    DATA     BYTE      MDATA
      000000F6H   SFRSYM    DATA     BYTE      I2CMBUF
      000000F1H   SFRSYM    DATA     BYTE      I2CSADR
      00000098H.4 SFRSYM    DATA     BIT       U0REN
      000000C8H.5 SFRSYM    DATA     BIT       CAPES
      000000FDH   SFRSYM    DATA     BYTE      MADRH
      0000008EH   SFRSYM    DATA     BYTE      CKCON
      000000F3H   SFRSYM    DATA     BYTE      I2CSBUF
      000000FCH   SFRSYM    DATA     BYTE      MADRL
      000000D0H.5 SFRSYM    DATA     BIT       F0
      000000FBH   SFRSYM    DATA     BYTE      MLOCK
      000000D0H   SFRSYM    DATA     BYTE      PSW
      00000097H   SFRSYM    DATA     BYTE      WDCON

      01002E9BH   BLOCK     CODE     ---       LVL=0
      01002E9BH   LINE      CODE     ---       #67
      01002E9BH   LINE      CODE     ---       #68
      01002E9BH   LINE      CODE     ---       #69
      01002E9EH   LINE      CODE     ---       #70
      ---         BLOCKEND  ---      ---       LVL=0

      01002E9FH   BLOCK     CODE     ---       LVL=0
      01002E9FH   LINE      CODE     ---       #78
      01002E9FH   LINE      CODE     ---       #79
      01002E9FH   LINE      CODE     ---       #80
      01002EA2H   LINE      CODE     ---       #81
      ---         BLOCKEND  ---      ---       LVL=0

      01002E3AH   BLOCK     CODE     ---       LVL=0
      00000007H   SYMBOL    DATA     BYTE      BuzCKS
      00000005H   SYMBOL    DATA     BYTE      CLKDiv
      01002E3AH   LINE      CODE     ---       #95
      01002E3AH   LINE      CODE     ---       #96
      01002E3AH   LINE      CODE     ---       #97
      01002E3DH   LINE      CODE     ---       #98
      01002E40H   LINE      CODE     ---       #99
      01002E42H   LINE      CODE     ---       #100
      ---         BLOCKEND  ---      ---       LVL=0

      ---         MODULE    ---      ---       CRC
      000000C8H.0 SFRSYM    DATA     BIT       T2I0
      000000C3H   SFRSYM    DATA     BYTE      CCH1
      00000080H   SFRSYM    DATA     BYTE      P0
      000000C8H.1 SFRSYM    DATA     BIT       T2I1
      000000C5H   SFRSYM    DATA     BYTE      CCH2
      00000090H   SFRSYM    DATA     BYTE      P1
      000000C7H   SFRSYM    DATA     BYTE      CCH3
      000000ACH   SFRSYM    DATA     BYTE      P0EXTIE
      000000A0H   SFRSYM    DATA     BYTE      P2
      000000B4H   SFRSYM    DATA     BYTE      P0EXTIF
LX51 LINKER/LOCATER V4.66.93.0                                                        06/27/2023  19:17:35  PAGE 60


      000000ADH   SFRSYM    DATA     BYTE      P1EXTIE
      000000D0H.6 SFRSYM    DATA     BIT       AC
      000000FFH   SFRSYM    DATA     BYTE      MCTRL
      000000C2H   SFRSYM    DATA     BYTE      CCL1
      000000B5H   SFRSYM    DATA     BYTE      P1EXTIF
      000000AEH   SFRSYM    DATA     BYTE      P2EXTIE
      000000D8H   SFRSYM    DATA     BYTE      P5
      000000C4H   SFRSYM    DATA     BYTE      CCL2
      000000B6H   SFRSYM    DATA     BYTE      P2EXTIF
      000000A8H.7 SFRSYM    DATA     BIT       EA
      000000C6H   SFRSYM    DATA     BYTE      CCL3
      000000AAH   SFRSYM    DATA     BYTE      EIE2
      000000B2H   SFRSYM    DATA     BYTE      EIF2
      0000009CH   SFRSYM    DATA     BYTE      P5EXTIE
      000000A7H   SFRSYM    DATA     BYTE      P5EXTIF
      000000C8H.3 SFRSYM    DATA     BIT       T2R0
      000000C8H.4 SFRSYM    DATA     BIT       T2R1
      00000083H   SFRSYM    DATA     BYTE      DPH0
      000000A8H   SFRSYM    DATA     BYTE      IE
      00000085H   SFRSYM    DATA     BYTE      DPH1
      00000080H.0 SFRSYM    DATA     BIT       P0_0
      000000B9H   SFRSYM    DATA     BYTE      EIP1
      00000090H.0 SFRSYM    DATA     BIT       P1_0
      00000080H.1 SFRSYM    DATA     BIT       P0_1
      000000BAH   SFRSYM    DATA     BYTE      EIP2
      00000082H   SFRSYM    DATA     BYTE      DPL0
      000000A0H.0 SFRSYM    DATA     BIT       P2_0
      00000090H.1 SFRSYM    DATA     BIT       P1_1
      00000080H.2 SFRSYM    DATA     BIT       P0_2
      000000BBH   SFRSYM    DATA     BYTE      EIP3
      00000084H   SFRSYM    DATA     BYTE      DPL1
      000000A0H.1 SFRSYM    DATA     BIT       P2_1
      00000090H.2 SFRSYM    DATA     BIT       P1_2
      00000080H.3 SFRSYM    DATA     BIT       P0_3
      000000A0H.2 SFRSYM    DATA     BIT       P2_2
      00000090H.3 SFRSYM    DATA     BIT       P1_3
      00000080H.4 SFRSYM    DATA     BIT       P0_4
      000000D8H.0 SFRSYM    DATA     BIT       P5_0
      000000C8H.6 SFRSYM    DATA     BIT       I3FR
      000000A0H.3 SFRSYM    DATA     BIT       P2_3
      00000090H.4 SFRSYM    DATA     BIT       P1_4
      00000080H.5 SFRSYM    DATA     BIT       P0_5
      000000CFH   SFRSYM    DATA     BYTE      T2IE
      00000096H   SFRSYM    DATA     BYTE      TA
      000000D8H.1 SFRSYM    DATA     BIT       P5_1
      000000A0H.4 SFRSYM    DATA     BIT       P2_4
      00000090H.5 SFRSYM    DATA     BIT       P1_5
      00000080H.6 SFRSYM    DATA     BIT       P0_6
      000000C9H   SFRSYM    DATA     BYTE      T2IF
      000000D8H.2 SFRSYM    DATA     BIT       P5_2
      000000C8H.2 SFRSYM    DATA     BIT       T2CM
      000000A0H.5 SFRSYM    DATA     BIT       P2_5
      00000090H.6 SFRSYM    DATA     BIT       P1_6
      00000080H.7 SFRSYM    DATA     BIT       P0_7
      000000DFH   SFRSYM    DATA     BYTE      ADCON0
      000000D8H.3 SFRSYM    DATA     BIT       P5_3
      000000A0H.6 SFRSYM    DATA     BIT       P2_6
      00000090H.7 SFRSYM    DATA     BIT       P1_7
      000000DEH   SFRSYM    DATA     BYTE      ADCON1
      000000D8H.4 SFRSYM    DATA     BIT       P5_4
      000000A0H.7 SFRSYM    DATA     BIT       P2_7
      000000E9H   SFRSYM    DATA     BYTE      ADCON2
      000000B8H   SFRSYM    DATA     BYTE      IP
      000000D8H.5 SFRSYM    DATA     BIT       P5_5
      000000CEH   SFRSYM    DATA     BYTE      CCEN
LX51 LINKER/LOCATER V4.66.93.0                                                        06/27/2023  19:17:35  PAGE 61


      000000D8H.6 SFRSYM    DATA     BIT       P5_6
      000000D8H.7 SFRSYM    DATA     BIT       P5_7
      000000D0H.7 SFRSYM    DATA     BIT       CY
      000000D2H   SFRSYM    DATA     BYTE      T34MOD
      000000F4H   SFRSYM    DATA     BYTE      I2CMSA
      000000D7H   SFRSYM    DATA     BYTE      SCKSTAU
      000000F5H   SFRSYM    DATA     BYTE      I2CMCR
      00000081H   SFRSYM    DATA     BYTE      SP
      000000D0H.2 SFRSYM    DATA     BIT       OV
      000000F2H   SFRSYM    DATA     BYTE      I2CSCR
      000000D9H   SFRSYM    DATA     BYTE      ADCCHS
      000000C8H.7 SFRSYM    DATA     BIT       T2PS
      000000D1H   SFRSYM    DATA     BYTE      ADCMPC
      000000CBH   SFRSYM    DATA     BYTE      RLDH
      000000D5H   SFRSYM    DATA     BYTE      ADCMPH
      000000CAH   SFRSYM    DATA     BYTE      RLDL
      00000080H.0 SFRSYM    DATA     BIT       P00
      00000090H.0 SFRSYM    DATA     BIT       P10
      00000080H.1 SFRSYM    DATA     BIT       P01
      000000F7H   SFRSYM    DATA     BYTE      I2CMTP
      00000087H   SFRSYM    DATA     BYTE      PCON
      000000A0H.0 SFRSYM    DATA     BIT       P20
      00000090H.1 SFRSYM    DATA     BIT       P11
      00000080H.2 SFRSYM    DATA     BIT       P02
      000000F5H   SFRSYM    DATA     BYTE      I2CMSR
      000000A0H.1 SFRSYM    DATA     BIT       P21
      00000090H.2 SFRSYM    DATA     BIT       P12
      00000080H.3 SFRSYM    DATA     BIT       P03
      000000D4H   SFRSYM    DATA     BYTE      ADCMPL
      000000A0H.2 SFRSYM    DATA     BIT       P22
      00000090H.3 SFRSYM    DATA     BIT       P13
      00000080H.4 SFRSYM    DATA     BIT       P04
      000000D8H.0 SFRSYM    DATA     BIT       P50
      000000A0H.3 SFRSYM    DATA     BIT       P23
      00000090H.4 SFRSYM    DATA     BIT       P14
      00000080H.5 SFRSYM    DATA     BIT       P05
      00000089H   SFRSYM    DATA     BYTE      TMOD
      00000088H   SFRSYM    DATA     BYTE      TCON
      000000D8H.1 SFRSYM    DATA     BIT       P51
      00000090H.5 SFRSYM    DATA     BIT       P15
      00000080H.6 SFRSYM    DATA     BIT       P06
      000000FAH   SFRSYM    DATA     BYTE      PCRCDH
      000000D8H.2 SFRSYM    DATA     BIT       P52
      00000090H.6 SFRSYM    DATA     BIT       P16
      00000080H.7 SFRSYM    DATA     BIT       P07
      000000D8H.3 SFRSYM    DATA     BIT       P53
      00000090H.7 SFRSYM    DATA     BIT       P17
      000000F2H   SFRSYM    DATA     BYTE      I2CSSR
      000000D8H.4 SFRSYM    DATA     BIT       P54
      000000ECH   SFRSYM    DATA     BYTE      SPCR
      000000DDH   SFRSYM    DATA     BYTE      ADRESH
      000000D8H.5 SFRSYM    DATA     BIT       P55
      000000F9H   SFRSYM    DATA     BYTE      PCRCDL
      000000EEH   SFRSYM    DATA     BYTE      SPDR
      000000EFH   SFRSYM    DATA     BYTE      SSCR
      000000D3H   SFRSYM    DATA     BYTE      ADDLYL
      000000DCH   SFRSYM    DATA     BYTE      ADRESL
      00000088H.1 SFRSYM    DATA     BIT       IE0
      00000088H.3 SFRSYM    DATA     BIT       IE1
      0000008FH   SFRSYM    DATA     BYTE      CLKDIV
      000000F0H   SFRSYM    DATA     BYTE      B
      00000091H   SFRSYM    DATA     BYTE      FUNCCR
      0000009AH   SFRSYM    DATA     BYTE      P0TRIS
      000000A1H   SFRSYM    DATA     BYTE      P1TRIS
      000000A2H   SFRSYM    DATA     BYTE      P2TRIS
LX51 LINKER/LOCATER V4.66.93.0                                                        06/27/2023  19:17:35  PAGE 62


      000000E0H   SFRSYM    DATA     BYTE      ACC
      000000D6H   SFRSYM    DATA     BYTE      SCKSEL
      000000A8H.4 SFRSYM    DATA     BIT       ES0
      000000A8H.1 SFRSYM    DATA     BIT       ET0
      000000A8H.6 SFRSYM    DATA     BIT       ES1
      000000EDH   SFRSYM    DATA     BYTE      SPSR
      000000A5H   SFRSYM    DATA     BYTE      P5TRIS
      000000A8H.3 SFRSYM    DATA     BIT       ET1
      00000088H.5 SFRSYM    DATA     BIT       TF0
      000000A8H.5 SFRSYM    DATA     BIT       ET2
      00000098H.0 SFRSYM    DATA     BIT       RI0
      00000088H.7 SFRSYM    DATA     BIT       TF1
      0000008CH   SFRSYM    DATA     BYTE      TH0
      000000A8H.0 SFRSYM    DATA     BIT       EX0
      00000098H.1 SFRSYM    DATA     BIT       TI0
      00000088H.0 SFRSYM    DATA     BIT       IT0
      0000008DH   SFRSYM    DATA     BYTE      TH1
      000000A8H.2 SFRSYM    DATA     BIT       EX1
      00000088H.2 SFRSYM    DATA     BIT       IT1
      000000CDH   SFRSYM    DATA     BYTE      TH2
      000000D0H.0 SFRSYM    DATA     BIT       P
      000000DBH   SFRSYM    DATA     BYTE      TH3
      000000E3H   SFRSYM    DATA     BYTE      TH4
      0000008AH   SFRSYM    DATA     BYTE      TL0
      000000F0H.0 SFRSYM    DATA     BIT       B_0
      0000008BH   SFRSYM    DATA     BYTE      TL1
      000000F0H.1 SFRSYM    DATA     BIT       B_1
      00000098H.2 SFRSYM    DATA     BIT       U0RB8
      000000CCH   SFRSYM    DATA     BYTE      TL2
      000000F0H.2 SFRSYM    DATA     BIT       B_2
      000000B8H.4 SFRSYM    DATA     BIT       PS0
      000000DAH   SFRSYM    DATA     BYTE      TL3
      000000BFH   SFRSYM    DATA     BYTE      BUZCON
      000000F0H.3 SFRSYM    DATA     BIT       B_3
      000000B8H.1 SFRSYM    DATA     BIT       PT0
      000000B8H.6 SFRSYM    DATA     BIT       PS1
      00000098H.3 SFRSYM    DATA     BIT       U0TB8
      000000E2H   SFRSYM    DATA     BYTE      TL4
      000000F0H.4 SFRSYM    DATA     BIT       B_4
      000000D0H.3 SFRSYM    DATA     BIT       RS0
      000000B8H.3 SFRSYM    DATA     BIT       PT1
      000000F0H.5 SFRSYM    DATA     BIT       B_5
      000000D0H.4 SFRSYM    DATA     BIT       RS1
      000000B8H.5 SFRSYM    DATA     BIT       PT2
      00000098H.7 SFRSYM    DATA     BIT       U0SM0
      00000088H.4 SFRSYM    DATA     BIT       TR0
      000000BEH   SFRSYM    DATA     BYTE      BUZDIV
      000000F0H.6 SFRSYM    DATA     BIT       B_6
      000000E0H.0 SFRSYM    DATA     BIT       ACC_0
      00000098H.6 SFRSYM    DATA     BIT       U0SM1
      00000088H.6 SFRSYM    DATA     BIT       TR1
      000000F0H.7 SFRSYM    DATA     BIT       B_7
      000000E0H.1 SFRSYM    DATA     BIT       ACC_1
      000000B8H.0 SFRSYM    DATA     BIT       PX0
      00000098H.5 SFRSYM    DATA     BIT       U0SM2
      000000E0H.2 SFRSYM    DATA     BIT       ACC_2
      000000B8H.2 SFRSYM    DATA     BIT       PX1
      000000E0H.3 SFRSYM    DATA     BIT       ACC_3
      000000E0H.4 SFRSYM    DATA     BIT       ACC_4
      000000E0H.5 SFRSYM    DATA     BIT       ACC_5
      000000E0H.6 SFRSYM    DATA     BIT       ACC_6
      000000E0H.7 SFRSYM    DATA     BIT       ACC_7
      000000BDH   SFRSYM    DATA     BYTE      WUTCRH
      00000099H   SFRSYM    DATA     BYTE      SBUF0
      000000EBH   SFRSYM    DATA     BYTE      SBUF1
LX51 LINKER/LOCATER V4.66.93.0                                                        06/27/2023  19:17:35  PAGE 63


      000000BCH   SFRSYM    DATA     BYTE      WUTCRL
      00000098H   SFRSYM    DATA     BYTE      SCON0
      000000EAH   SFRSYM    DATA     BYTE      SCON1
      000000C8H   SFRSYM    DATA     BYTE      T2CON
      00000086H   SFRSYM    DATA     BYTE      DPS
      000000FEH   SFRSYM    DATA     BYTE      MDATA
      000000F6H   SFRSYM    DATA     BYTE      I2CMBUF
      000000F1H   SFRSYM    DATA     BYTE      I2CSADR
      00000098H.4 SFRSYM    DATA     BIT       U0REN
      000000C8H.5 SFRSYM    DATA     BIT       CAPES
      000000FDH   SFRSYM    DATA     BYTE      MADRH
      0000008EH   SFRSYM    DATA     BYTE      CKCON
      000000F3H   SFRSYM    DATA     BYTE      I2CSBUF
      000000FCH   SFRSYM    DATA     BYTE      MADRL
      000000D0H.5 SFRSYM    DATA     BIT       F0
      000000FBH   SFRSYM    DATA     BYTE      MLOCK
      000000D0H   SFRSYM    DATA     BYTE      PSW
      00000097H   SFRSYM    DATA     BYTE      WDCON
      00000007H   SYMBOL    DATA     BYTE      CRCData

      ---         MODULE    ---      ---       EXTINT
      000000C8H.0 SFRSYM    DATA     BIT       T2I0
      000000C3H   SFRSYM    DATA     BYTE      CCH1
      00000080H   SFRSYM    DATA     BYTE      P0
      000000C8H.1 SFRSYM    DATA     BIT       T2I1
      000000C5H   SFRSYM    DATA     BYTE      CCH2
      00000090H   SFRSYM    DATA     BYTE      P1
      000000C7H   SFRSYM    DATA     BYTE      CCH3
      000000ACH   SFRSYM    DATA     BYTE      P0EXTIE
      000000A0H   SFRSYM    DATA     BYTE      P2
      000000B4H   SFRSYM    DATA     BYTE      P0EXTIF
      000000ADH   SFRSYM    DATA     BYTE      P1EXTIE
      000000D0H.6 SFRSYM    DATA     BIT       AC
      000000FFH   SFRSYM    DATA     BYTE      MCTRL
      000000C2H   SFRSYM    DATA     BYTE      CCL1
      000000B5H   SFRSYM    DATA     BYTE      P1EXTIF
      000000AEH   SFRSYM    DATA     BYTE      P2EXTIE
      000000D8H   SFRSYM    DATA     BYTE      P5
      000000C4H   SFRSYM    DATA     BYTE      CCL2
      000000B6H   SFRSYM    DATA     BYTE      P2EXTIF
      000000A8H.7 SFRSYM    DATA     BIT       EA
      000000C6H   SFRSYM    DATA     BYTE      CCL3
      000000AAH   SFRSYM    DATA     BYTE      EIE2
      000000B2H   SFRSYM    DATA     BYTE      EIF2
      0000009CH   SFRSYM    DATA     BYTE      P5EXTIE
      000000A7H   SFRSYM    DATA     BYTE      P5EXTIF
      000000C8H.3 SFRSYM    DATA     BIT       T2R0
      000000C8H.4 SFRSYM    DATA     BIT       T2R1
      00000083H   SFRSYM    DATA     BYTE      DPH0
      000000A8H   SFRSYM    DATA     BYTE      IE
      00000085H   SFRSYM    DATA     BYTE      DPH1
      00000080H.0 SFRSYM    DATA     BIT       P0_0
      000000B9H   SFRSYM    DATA     BYTE      EIP1
      00000090H.0 SFRSYM    DATA     BIT       P1_0
      00000080H.1 SFRSYM    DATA     BIT       P0_1
      000000BAH   SFRSYM    DATA     BYTE      EIP2
      00000082H   SFRSYM    DATA     BYTE      DPL0
      000000A0H.0 SFRSYM    DATA     BIT       P2_0
      00000090H.1 SFRSYM    DATA     BIT       P1_1
      00000080H.2 SFRSYM    DATA     BIT       P0_2
      000000BBH   SFRSYM    DATA     BYTE      EIP3
      00000084H   SFRSYM    DATA     BYTE      DPL1
      000000A0H.1 SFRSYM    DATA     BIT       P2_1
      00000090H.2 SFRSYM    DATA     BIT       P1_2
      00000080H.3 SFRSYM    DATA     BIT       P0_3
LX51 LINKER/LOCATER V4.66.93.0                                                        06/27/2023  19:17:35  PAGE 64


      000000A0H.2 SFRSYM    DATA     BIT       P2_2
      00000090H.3 SFRSYM    DATA     BIT       P1_3
      00000080H.4 SFRSYM    DATA     BIT       P0_4
      000000D8H.0 SFRSYM    DATA     BIT       P5_0
      000000C8H.6 SFRSYM    DATA     BIT       I3FR
      000000A0H.3 SFRSYM    DATA     BIT       P2_3
      00000090H.4 SFRSYM    DATA     BIT       P1_4
      00000080H.5 SFRSYM    DATA     BIT       P0_5
      000000CFH   SFRSYM    DATA     BYTE      T2IE
      00000096H   SFRSYM    DATA     BYTE      TA
      000000D8H.1 SFRSYM    DATA     BIT       P5_1
      000000A0H.4 SFRSYM    DATA     BIT       P2_4
      00000090H.5 SFRSYM    DATA     BIT       P1_5
      00000080H.6 SFRSYM    DATA     BIT       P0_6
      000000C9H   SFRSYM    DATA     BYTE      T2IF
      000000D8H.2 SFRSYM    DATA     BIT       P5_2
      000000C8H.2 SFRSYM    DATA     BIT       T2CM
      000000A0H.5 SFRSYM    DATA     BIT       P2_5
      00000090H.6 SFRSYM    DATA     BIT       P1_6
      00000080H.7 SFRSYM    DATA     BIT       P0_7
      000000DFH   SFRSYM    DATA     BYTE      ADCON0
      000000D8H.3 SFRSYM    DATA     BIT       P5_3
      000000A0H.6 SFRSYM    DATA     BIT       P2_6
      00000090H.7 SFRSYM    DATA     BIT       P1_7
      000000DEH   SFRSYM    DATA     BYTE      ADCON1
      000000D8H.4 SFRSYM    DATA     BIT       P5_4
      000000A0H.7 SFRSYM    DATA     BIT       P2_7
      000000E9H   SFRSYM    DATA     BYTE      ADCON2
      000000B8H   SFRSYM    DATA     BYTE      IP
      000000D8H.5 SFRSYM    DATA     BIT       P5_5
      000000CEH   SFRSYM    DATA     BYTE      CCEN
      000000D8H.6 SFRSYM    DATA     BIT       P5_6
      000000D8H.7 SFRSYM    DATA     BIT       P5_7
      000000D0H.7 SFRSYM    DATA     BIT       CY
      000000D2H   SFRSYM    DATA     BYTE      T34MOD
      000000F4H   SFRSYM    DATA     BYTE      I2CMSA
      000000D7H   SFRSYM    DATA     BYTE      SCKSTAU
      000000F5H   SFRSYM    DATA     BYTE      I2CMCR
      00000081H   SFRSYM    DATA     BYTE      SP
      000000D0H.2 SFRSYM    DATA     BIT       OV
      000000F2H   SFRSYM    DATA     BYTE      I2CSCR
      000000D9H   SFRSYM    DATA     BYTE      ADCCHS
      000000C8H.7 SFRSYM    DATA     BIT       T2PS
      000000D1H   SFRSYM    DATA     BYTE      ADCMPC
      000000CBH   SFRSYM    DATA     BYTE      RLDH
      000000D5H   SFRSYM    DATA     BYTE      ADCMPH
      000000CAH   SFRSYM    DATA     BYTE      RLDL
      00000080H.0 SFRSYM    DATA     BIT       P00
      00000090H.0 SFRSYM    DATA     BIT       P10
      00000080H.1 SFRSYM    DATA     BIT       P01
      000000F7H   SFRSYM    DATA     BYTE      I2CMTP
      00000087H   SFRSYM    DATA     BYTE      PCON
      000000A0H.0 SFRSYM    DATA     BIT       P20
      00000090H.1 SFRSYM    DATA     BIT       P11
      00000080H.2 SFRSYM    DATA     BIT       P02
      000000F5H   SFRSYM    DATA     BYTE      I2CMSR
      000000A0H.1 SFRSYM    DATA     BIT       P21
      00000090H.2 SFRSYM    DATA     BIT       P12
      00000080H.3 SFRSYM    DATA     BIT       P03
      000000D4H   SFRSYM    DATA     BYTE      ADCMPL
      000000A0H.2 SFRSYM    DATA     BIT       P22
      00000090H.3 SFRSYM    DATA     BIT       P13
      00000080H.4 SFRSYM    DATA     BIT       P04
      000000D8H.0 SFRSYM    DATA     BIT       P50
      000000A0H.3 SFRSYM    DATA     BIT       P23
LX51 LINKER/LOCATER V4.66.93.0                                                        06/27/2023  19:17:35  PAGE 65


      00000090H.4 SFRSYM    DATA     BIT       P14
      00000080H.5 SFRSYM    DATA     BIT       P05
      00000089H   SFRSYM    DATA     BYTE      TMOD
      00000088H   SFRSYM    DATA     BYTE      TCON
      000000D8H.1 SFRSYM    DATA     BIT       P51
      00000090H.5 SFRSYM    DATA     BIT       P15
      00000080H.6 SFRSYM    DATA     BIT       P06
      000000FAH   SFRSYM    DATA     BYTE      PCRCDH
      000000D8H.2 SFRSYM    DATA     BIT       P52
      00000090H.6 SFRSYM    DATA     BIT       P16
      00000080H.7 SFRSYM    DATA     BIT       P07
      000000D8H.3 SFRSYM    DATA     BIT       P53
      00000090H.7 SFRSYM    DATA     BIT       P17
      000000F2H   SFRSYM    DATA     BYTE      I2CSSR
      000000D8H.4 SFRSYM    DATA     BIT       P54
      000000ECH   SFRSYM    DATA     BYTE      SPCR
      000000DDH   SFRSYM    DATA     BYTE      ADRESH
      000000D8H.5 SFRSYM    DATA     BIT       P55
      000000F9H   SFRSYM    DATA     BYTE      PCRCDL
      000000EEH   SFRSYM    DATA     BYTE      SPDR
      000000EFH   SFRSYM    DATA     BYTE      SSCR
      000000D3H   SFRSYM    DATA     BYTE      ADDLYL
      000000DCH   SFRSYM    DATA     BYTE      ADRESL
      00000088H.1 SFRSYM    DATA     BIT       IE0
      00000088H.3 SFRSYM    DATA     BIT       IE1
      0000008FH   SFRSYM    DATA     BYTE      CLKDIV
      000000F0H   SFRSYM    DATA     BYTE      B
      00000091H   SFRSYM    DATA     BYTE      FUNCCR
      0000009AH   SFRSYM    DATA     BYTE      P0TRIS
      000000A1H   SFRSYM    DATA     BYTE      P1TRIS
      000000A2H   SFRSYM    DATA     BYTE      P2TRIS
      000000E0H   SFRSYM    DATA     BYTE      ACC
      000000D6H   SFRSYM    DATA     BYTE      SCKSEL
      000000A8H.4 SFRSYM    DATA     BIT       ES0
      000000A8H.1 SFRSYM    DATA     BIT       ET0
      000000A8H.6 SFRSYM    DATA     BIT       ES1
      000000EDH   SFRSYM    DATA     BYTE      SPSR
      000000A5H   SFRSYM    DATA     BYTE      P5TRIS
      000000A8H.3 SFRSYM    DATA     BIT       ET1
      00000088H.5 SFRSYM    DATA     BIT       TF0
      000000A8H.5 SFRSYM    DATA     BIT       ET2
      00000098H.0 SFRSYM    DATA     BIT       RI0
      00000088H.7 SFRSYM    DATA     BIT       TF1
      0000008CH   SFRSYM    DATA     BYTE      TH0
      000000A8H.0 SFRSYM    DATA     BIT       EX0
      00000098H.1 SFRSYM    DATA     BIT       TI0
      00000088H.0 SFRSYM    DATA     BIT       IT0
      0000008DH   SFRSYM    DATA     BYTE      TH1
      000000A8H.2 SFRSYM    DATA     BIT       EX1
      00000088H.2 SFRSYM    DATA     BIT       IT1
      000000CDH   SFRSYM    DATA     BYTE      TH2
      000000D0H.0 SFRSYM    DATA     BIT       P
      000000DBH   SFRSYM    DATA     BYTE      TH3
      000000E3H   SFRSYM    DATA     BYTE      TH4
      0000008AH   SFRSYM    DATA     BYTE      TL0
      000000F0H.0 SFRSYM    DATA     BIT       B_0
      0000008BH   SFRSYM    DATA     BYTE      TL1
      000000F0H.1 SFRSYM    DATA     BIT       B_1
      00000098H.2 SFRSYM    DATA     BIT       U0RB8
      000000CCH   SFRSYM    DATA     BYTE      TL2
      000000F0H.2 SFRSYM    DATA     BIT       B_2
      000000B8H.4 SFRSYM    DATA     BIT       PS0
      000000DAH   SFRSYM    DATA     BYTE      TL3
      000000BFH   SFRSYM    DATA     BYTE      BUZCON
      000000F0H.3 SFRSYM    DATA     BIT       B_3
LX51 LINKER/LOCATER V4.66.93.0                                                        06/27/2023  19:17:35  PAGE 66


      000000B8H.1 SFRSYM    DATA     BIT       PT0
      000000B8H.6 SFRSYM    DATA     BIT       PS1
      00000098H.3 SFRSYM    DATA     BIT       U0TB8
      000000E2H   SFRSYM    DATA     BYTE      TL4
      000000F0H.4 SFRSYM    DATA     BIT       B_4
      000000D0H.3 SFRSYM    DATA     BIT       RS0
      000000B8H.3 SFRSYM    DATA     BIT       PT1
      000000F0H.5 SFRSYM    DATA     BIT       B_5
      000000D0H.4 SFRSYM    DATA     BIT       RS1
      000000B8H.5 SFRSYM    DATA     BIT       PT2
      00000098H.7 SFRSYM    DATA     BIT       U0SM0
      00000088H.4 SFRSYM    DATA     BIT       TR0
      000000BEH   SFRSYM    DATA     BYTE      BUZDIV
      000000F0H.6 SFRSYM    DATA     BIT       B_6
      000000E0H.0 SFRSYM    DATA     BIT       ACC_0
      00000098H.6 SFRSYM    DATA     BIT       U0SM1
      00000088H.6 SFRSYM    DATA     BIT       TR1
      000000F0H.7 SFRSYM    DATA     BIT       B_7
      000000E0H.1 SFRSYM    DATA     BIT       ACC_1
      000000B8H.0 SFRSYM    DATA     BIT       PX0
      00000098H.5 SFRSYM    DATA     BIT       U0SM2
      000000E0H.2 SFRSYM    DATA     BIT       ACC_2
      000000B8H.2 SFRSYM    DATA     BIT       PX1
      000000E0H.3 SFRSYM    DATA     BIT       ACC_3
      000000E0H.4 SFRSYM    DATA     BIT       ACC_4
      000000E0H.5 SFRSYM    DATA     BIT       ACC_5
      000000E0H.6 SFRSYM    DATA     BIT       ACC_6
      000000E0H.7 SFRSYM    DATA     BIT       ACC_7
      000000BDH   SFRSYM    DATA     BYTE      WUTCRH
      00000099H   SFRSYM    DATA     BYTE      SBUF0
      000000EBH   SFRSYM    DATA     BYTE      SBUF1
      000000BCH   SFRSYM    DATA     BYTE      WUTCRL
      00000098H   SFRSYM    DATA     BYTE      SCON0
      000000EAH   SFRSYM    DATA     BYTE      SCON1
      000000C8H   SFRSYM    DATA     BYTE      T2CON
      00000086H   SFRSYM    DATA     BYTE      DPS
      000000FEH   SFRSYM    DATA     BYTE      MDATA
      000000F6H   SFRSYM    DATA     BYTE      I2CMBUF
      000000F1H   SFRSYM    DATA     BYTE      I2CSADR
      00000098H.4 SFRSYM    DATA     BIT       U0REN
      000000C8H.5 SFRSYM    DATA     BIT       CAPES
      000000FDH   SFRSYM    DATA     BYTE      MADRH
      0000008EH   SFRSYM    DATA     BYTE      CKCON
      000000F3H   SFRSYM    DATA     BYTE      I2CSBUF
      000000FCH   SFRSYM    DATA     BYTE      MADRL
      000000D0H.5 SFRSYM    DATA     BIT       F0
      000000FBH   SFRSYM    DATA     BYTE      MLOCK
      000000D0H   SFRSYM    DATA     BYTE      PSW
      00000097H   SFRSYM    DATA     BYTE      WDCON
      00000007H   SYMBOL    DATA     BYTE      Extintn
      00000005H   SYMBOL    DATA     BYTE      IntMode
      00000007H   SYMBOL    DATA     BYTE      Extintn
      00000007H   SYMBOL    DATA     BYTE      Extintn
      00000006H   SYMBOL    DATA     BYTE      Extintn
      00000007H   SYMBOL    DATA     BYTE      Extintn

      ---         MODULE    ---      ---       I2C
      000000C8H.0 SFRSYM    DATA     BIT       T2I0
      000000C3H   SFRSYM    DATA     BYTE      CCH1
      00000080H   SFRSYM    DATA     BYTE      P0
      000000C8H.1 SFRSYM    DATA     BIT       T2I1
      000000C5H   SFRSYM    DATA     BYTE      CCH2
      00000090H   SFRSYM    DATA     BYTE      P1
      000000C7H   SFRSYM    DATA     BYTE      CCH3
      000000ACH   SFRSYM    DATA     BYTE      P0EXTIE
LX51 LINKER/LOCATER V4.66.93.0                                                        06/27/2023  19:17:35  PAGE 67


      000000A0H   SFRSYM    DATA     BYTE      P2
      000000B4H   SFRSYM    DATA     BYTE      P0EXTIF
      000000ADH   SFRSYM    DATA     BYTE      P1EXTIE
      000000D0H.6 SFRSYM    DATA     BIT       AC
      000000FFH   SFRSYM    DATA     BYTE      MCTRL
      000000C2H   SFRSYM    DATA     BYTE      CCL1
      000000B5H   SFRSYM    DATA     BYTE      P1EXTIF
      000000AEH   SFRSYM    DATA     BYTE      P2EXTIE
      000000D8H   SFRSYM    DATA     BYTE      P5
      000000C4H   SFRSYM    DATA     BYTE      CCL2
      000000B6H   SFRSYM    DATA     BYTE      P2EXTIF
      000000A8H.7 SFRSYM    DATA     BIT       EA
      000000C6H   SFRSYM    DATA     BYTE      CCL3
      000000AAH   SFRSYM    DATA     BYTE      EIE2
      000000B2H   SFRSYM    DATA     BYTE      EIF2
      0000009CH   SFRSYM    DATA     BYTE      P5EXTIE
      000000A7H   SFRSYM    DATA     BYTE      P5EXTIF
      000000C8H.3 SFRSYM    DATA     BIT       T2R0
      000000C8H.4 SFRSYM    DATA     BIT       T2R1
      00000083H   SFRSYM    DATA     BYTE      DPH0
      000000A8H   SFRSYM    DATA     BYTE      IE
      00000085H   SFRSYM    DATA     BYTE      DPH1
      00000080H.0 SFRSYM    DATA     BIT       P0_0
      000000B9H   SFRSYM    DATA     BYTE      EIP1
      00000090H.0 SFRSYM    DATA     BIT       P1_0
      00000080H.1 SFRSYM    DATA     BIT       P0_1
      000000BAH   SFRSYM    DATA     BYTE      EIP2
      00000082H   SFRSYM    DATA     BYTE      DPL0
      000000A0H.0 SFRSYM    DATA     BIT       P2_0
      00000090H.1 SFRSYM    DATA     BIT       P1_1
      00000080H.2 SFRSYM    DATA     BIT       P0_2
      000000BBH   SFRSYM    DATA     BYTE      EIP3
      00000084H   SFRSYM    DATA     BYTE      DPL1
      000000A0H.1 SFRSYM    DATA     BIT       P2_1
      00000090H.2 SFRSYM    DATA     BIT       P1_2
      00000080H.3 SFRSYM    DATA     BIT       P0_3
      000000A0H.2 SFRSYM    DATA     BIT       P2_2
      00000090H.3 SFRSYM    DATA     BIT       P1_3
      00000080H.4 SFRSYM    DATA     BIT       P0_4
      000000D8H.0 SFRSYM    DATA     BIT       P5_0
      000000C8H.6 SFRSYM    DATA     BIT       I3FR
      000000A0H.3 SFRSYM    DATA     BIT       P2_3
      00000090H.4 SFRSYM    DATA     BIT       P1_4
      00000080H.5 SFRSYM    DATA     BIT       P0_5
      000000CFH   SFRSYM    DATA     BYTE      T2IE
      00000096H   SFRSYM    DATA     BYTE      TA
      000000D8H.1 SFRSYM    DATA     BIT       P5_1
      000000A0H.4 SFRSYM    DATA     BIT       P2_4
      00000090H.5 SFRSYM    DATA     BIT       P1_5
      00000080H.6 SFRSYM    DATA     BIT       P0_6
      000000C9H   SFRSYM    DATA     BYTE      T2IF
      000000D8H.2 SFRSYM    DATA     BIT       P5_2
      000000C8H.2 SFRSYM    DATA     BIT       T2CM
      000000A0H.5 SFRSYM    DATA     BIT       P2_5
      00000090H.6 SFRSYM    DATA     BIT       P1_6
      00000080H.7 SFRSYM    DATA     BIT       P0_7
      000000DFH   SFRSYM    DATA     BYTE      ADCON0
      000000D8H.3 SFRSYM    DATA     BIT       P5_3
      000000A0H.6 SFRSYM    DATA     BIT       P2_6
      00000090H.7 SFRSYM    DATA     BIT       P1_7
      000000DEH   SFRSYM    DATA     BYTE      ADCON1
      000000D8H.4 SFRSYM    DATA     BIT       P5_4
      000000A0H.7 SFRSYM    DATA     BIT       P2_7
      000000E9H   SFRSYM    DATA     BYTE      ADCON2
      000000B8H   SFRSYM    DATA     BYTE      IP
LX51 LINKER/LOCATER V4.66.93.0                                                        06/27/2023  19:17:35  PAGE 68


      000000D8H.5 SFRSYM    DATA     BIT       P5_5
      000000CEH   SFRSYM    DATA     BYTE      CCEN
      000000D8H.6 SFRSYM    DATA     BIT       P5_6
      000000D8H.7 SFRSYM    DATA     BIT       P5_7
      000000D0H.7 SFRSYM    DATA     BIT       CY
      000000D2H   SFRSYM    DATA     BYTE      T34MOD
      000000F4H   SFRSYM    DATA     BYTE      I2CMSA
      000000D7H   SFRSYM    DATA     BYTE      SCKSTAU
      000000F5H   SFRSYM    DATA     BYTE      I2CMCR
      00000081H   SFRSYM    DATA     BYTE      SP
      000000D0H.2 SFRSYM    DATA     BIT       OV
      000000F2H   SFRSYM    DATA     BYTE      I2CSCR
      000000D9H   SFRSYM    DATA     BYTE      ADCCHS
      000000C8H.7 SFRSYM    DATA     BIT       T2PS
      000000D1H   SFRSYM    DATA     BYTE      ADCMPC
      000000CBH   SFRSYM    DATA     BYTE      RLDH
      000000D5H   SFRSYM    DATA     BYTE      ADCMPH
      000000CAH   SFRSYM    DATA     BYTE      RLDL
      00000080H.0 SFRSYM    DATA     BIT       P00
      00000090H.0 SFRSYM    DATA     BIT       P10
      00000080H.1 SFRSYM    DATA     BIT       P01
      000000F7H   SFRSYM    DATA     BYTE      I2CMTP
      00000087H   SFRSYM    DATA     BYTE      PCON
      000000A0H.0 SFRSYM    DATA     BIT       P20
      00000090H.1 SFRSYM    DATA     BIT       P11
      00000080H.2 SFRSYM    DATA     BIT       P02
      000000F5H   SFRSYM    DATA     BYTE      I2CMSR
      000000A0H.1 SFRSYM    DATA     BIT       P21
      00000090H.2 SFRSYM    DATA     BIT       P12
      00000080H.3 SFRSYM    DATA     BIT       P03
      000000D4H   SFRSYM    DATA     BYTE      ADCMPL
      000000A0H.2 SFRSYM    DATA     BIT       P22
      00000090H.3 SFRSYM    DATA     BIT       P13
      00000080H.4 SFRSYM    DATA     BIT       P04
      000000D8H.0 SFRSYM    DATA     BIT       P50
      000000A0H.3 SFRSYM    DATA     BIT       P23
      00000090H.4 SFRSYM    DATA     BIT       P14
      00000080H.5 SFRSYM    DATA     BIT       P05
      00000089H   SFRSYM    DATA     BYTE      TMOD
      00000088H   SFRSYM    DATA     BYTE      TCON
      000000D8H.1 SFRSYM    DATA     BIT       P51
      00000090H.5 SFRSYM    DATA     BIT       P15
      00000080H.6 SFRSYM    DATA     BIT       P06
      000000FAH   SFRSYM    DATA     BYTE      PCRCDH
      000000D8H.2 SFRSYM    DATA     BIT       P52
      00000090H.6 SFRSYM    DATA     BIT       P16
      00000080H.7 SFRSYM    DATA     BIT       P07
      000000D8H.3 SFRSYM    DATA     BIT       P53
      00000090H.7 SFRSYM    DATA     BIT       P17
      000000F2H   SFRSYM    DATA     BYTE      I2CSSR
      000000D8H.4 SFRSYM    DATA     BIT       P54
      000000ECH   SFRSYM    DATA     BYTE      SPCR
      000000DDH   SFRSYM    DATA     BYTE      ADRESH
      000000D8H.5 SFRSYM    DATA     BIT       P55
      000000F9H   SFRSYM    DATA     BYTE      PCRCDL
      000000EEH   SFRSYM    DATA     BYTE      SPDR
      000000EFH   SFRSYM    DATA     BYTE      SSCR
      000000D3H   SFRSYM    DATA     BYTE      ADDLYL
      000000DCH   SFRSYM    DATA     BYTE      ADRESL
      00000088H.1 SFRSYM    DATA     BIT       IE0
      00000088H.3 SFRSYM    DATA     BIT       IE1
      0000008FH   SFRSYM    DATA     BYTE      CLKDIV
      000000F0H   SFRSYM    DATA     BYTE      B
      00000091H   SFRSYM    DATA     BYTE      FUNCCR
      0000009AH   SFRSYM    DATA     BYTE      P0TRIS
LX51 LINKER/LOCATER V4.66.93.0                                                        06/27/2023  19:17:35  PAGE 69


      000000A1H   SFRSYM    DATA     BYTE      P1TRIS
      000000A2H   SFRSYM    DATA     BYTE      P2TRIS
      000000E0H   SFRSYM    DATA     BYTE      ACC
      000000D6H   SFRSYM    DATA     BYTE      SCKSEL
      000000A8H.4 SFRSYM    DATA     BIT       ES0
      000000A8H.1 SFRSYM    DATA     BIT       ET0
      000000A8H.6 SFRSYM    DATA     BIT       ES1
      000000EDH   SFRSYM    DATA     BYTE      SPSR
      000000A5H   SFRSYM    DATA     BYTE      P5TRIS
      000000A8H.3 SFRSYM    DATA     BIT       ET1
      00000088H.5 SFRSYM    DATA     BIT       TF0
      000000A8H.5 SFRSYM    DATA     BIT       ET2
      00000098H.0 SFRSYM    DATA     BIT       RI0
      00000088H.7 SFRSYM    DATA     BIT       TF1
      0000008CH   SFRSYM    DATA     BYTE      TH0
      000000A8H.0 SFRSYM    DATA     BIT       EX0
      00000098H.1 SFRSYM    DATA     BIT       TI0
      00000088H.0 SFRSYM    DATA     BIT       IT0
      0000008DH   SFRSYM    DATA     BYTE      TH1
      000000A8H.2 SFRSYM    DATA     BIT       EX1
      00000088H.2 SFRSYM    DATA     BIT       IT1
      000000CDH   SFRSYM    DATA     BYTE      TH2
      000000D0H.0 SFRSYM    DATA     BIT       P
      000000DBH   SFRSYM    DATA     BYTE      TH3
      000000E3H   SFRSYM    DATA     BYTE      TH4
      0000008AH   SFRSYM    DATA     BYTE      TL0
      000000F0H.0 SFRSYM    DATA     BIT       B_0
      0000008BH   SFRSYM    DATA     BYTE      TL1
      000000F0H.1 SFRSYM    DATA     BIT       B_1
      00000098H.2 SFRSYM    DATA     BIT       U0RB8
      000000CCH   SFRSYM    DATA     BYTE      TL2
      000000F0H.2 SFRSYM    DATA     BIT       B_2
      000000B8H.4 SFRSYM    DATA     BIT       PS0
      000000DAH   SFRSYM    DATA     BYTE      TL3
      000000BFH   SFRSYM    DATA     BYTE      BUZCON
      000000F0H.3 SFRSYM    DATA     BIT       B_3
      000000B8H.1 SFRSYM    DATA     BIT       PT0
      000000B8H.6 SFRSYM    DATA     BIT       PS1
      00000098H.3 SFRSYM    DATA     BIT       U0TB8
      000000E2H   SFRSYM    DATA     BYTE      TL4
      000000F0H.4 SFRSYM    DATA     BIT       B_4
      000000D0H.3 SFRSYM    DATA     BIT       RS0
      000000B8H.3 SFRSYM    DATA     BIT       PT1
      000000F0H.5 SFRSYM    DATA     BIT       B_5
      000000D0H.4 SFRSYM    DATA     BIT       RS1
      000000B8H.5 SFRSYM    DATA     BIT       PT2
      00000098H.7 SFRSYM    DATA     BIT       U0SM0
      00000088H.4 SFRSYM    DATA     BIT       TR0
      000000BEH   SFRSYM    DATA     BYTE      BUZDIV
      000000F0H.6 SFRSYM    DATA     BIT       B_6
      000000E0H.0 SFRSYM    DATA     BIT       ACC_0
      00000098H.6 SFRSYM    DATA     BIT       U0SM1
      00000088H.6 SFRSYM    DATA     BIT       TR1
      000000F0H.7 SFRSYM    DATA     BIT       B_7
      000000E0H.1 SFRSYM    DATA     BIT       ACC_1
      000000B8H.0 SFRSYM    DATA     BIT       PX0
      00000098H.5 SFRSYM    DATA     BIT       U0SM2
      000000E0H.2 SFRSYM    DATA     BIT       ACC_2
      000000B8H.2 SFRSYM    DATA     BIT       PX1
      000000E0H.3 SFRSYM    DATA     BIT       ACC_3
      000000E0H.4 SFRSYM    DATA     BIT       ACC_4
      000000E0H.5 SFRSYM    DATA     BIT       ACC_5
      000000E0H.6 SFRSYM    DATA     BIT       ACC_6
      000000E0H.7 SFRSYM    DATA     BIT       ACC_7
      000000BDH   SFRSYM    DATA     BYTE      WUTCRH
LX51 LINKER/LOCATER V4.66.93.0                                                        06/27/2023  19:17:35  PAGE 70


      00000099H   SFRSYM    DATA     BYTE      SBUF0
      000000EBH   SFRSYM    DATA     BYTE      SBUF1
      000000BCH   SFRSYM    DATA     BYTE      WUTCRL
      00000098H   SFRSYM    DATA     BYTE      SCON0
      000000EAH   SFRSYM    DATA     BYTE      SCON1
      000000C8H   SFRSYM    DATA     BYTE      T2CON
      00000086H   SFRSYM    DATA     BYTE      DPS
      000000FEH   SFRSYM    DATA     BYTE      MDATA
      000000F6H   SFRSYM    DATA     BYTE      I2CMBUF
      000000F1H   SFRSYM    DATA     BYTE      I2CSADR
      00000098H.4 SFRSYM    DATA     BIT       U0REN
      000000C8H.5 SFRSYM    DATA     BIT       CAPES
      000000FDH   SFRSYM    DATA     BYTE      MADRH
      0000008EH   SFRSYM    DATA     BYTE      CKCON
      000000F3H   SFRSYM    DATA     BYTE      I2CSBUF
      000000FCH   SFRSYM    DATA     BYTE      MADRL
      000000D0H.5 SFRSYM    DATA     BIT       F0
      000000FBH   SFRSYM    DATA     BYTE      MLOCK
      000000D0H   SFRSYM    DATA     BYTE      PSW
      00000097H   SFRSYM    DATA     BYTE      WDCON
      00000007H   SYMBOL    DATA     BYTE      I2CMtp

      ---         MODULE    ---      ---       LSE
      000000C8H.0 SFRSYM    DATA     BIT       T2I0
      000000C3H   SFRSYM    DATA     BYTE      CCH1
      00000080H   SFRSYM    DATA     BYTE      P0
      000000C8H.1 SFRSYM    DATA     BIT       T2I1
      000000C5H   SFRSYM    DATA     BYTE      CCH2
      00000090H   SFRSYM    DATA     BYTE      P1
      000000C7H   SFRSYM    DATA     BYTE      CCH3
      000000ACH   SFRSYM    DATA     BYTE      P0EXTIE
      000000A0H   SFRSYM    DATA     BYTE      P2
      000000B4H   SFRSYM    DATA     BYTE      P0EXTIF
      000000ADH   SFRSYM    DATA     BYTE      P1EXTIE
      000000D0H.6 SFRSYM    DATA     BIT       AC
      000000FFH   SFRSYM    DATA     BYTE      MCTRL
      000000C2H   SFRSYM    DATA     BYTE      CCL1
      000000B5H   SFRSYM    DATA     BYTE      P1EXTIF
      000000AEH   SFRSYM    DATA     BYTE      P2EXTIE
      000000D8H   SFRSYM    DATA     BYTE      P5
      000000C4H   SFRSYM    DATA     BYTE      CCL2
      000000B6H   SFRSYM    DATA     BYTE      P2EXTIF
      000000A8H.7 SFRSYM    DATA     BIT       EA
      000000C6H   SFRSYM    DATA     BYTE      CCL3
      000000AAH   SFRSYM    DATA     BYTE      EIE2
      000000B2H   SFRSYM    DATA     BYTE      EIF2
      0000009CH   SFRSYM    DATA     BYTE      P5EXTIE
      000000A7H   SFRSYM    DATA     BYTE      P5EXTIF
      000000C8H.3 SFRSYM    DATA     BIT       T2R0
      000000C8H.4 SFRSYM    DATA     BIT       T2R1
      00000083H   SFRSYM    DATA     BYTE      DPH0
      000000A8H   SFRSYM    DATA     BYTE      IE
      00000085H   SFRSYM    DATA     BYTE      DPH1
      00000080H.0 SFRSYM    DATA     BIT       P0_0
      000000B9H   SFRSYM    DATA     BYTE      EIP1
      00000090H.0 SFRSYM    DATA     BIT       P1_0
      00000080H.1 SFRSYM    DATA     BIT       P0_1
      000000BAH   SFRSYM    DATA     BYTE      EIP2
      00000082H   SFRSYM    DATA     BYTE      DPL0
      000000A0H.0 SFRSYM    DATA     BIT       P2_0
      00000090H.1 SFRSYM    DATA     BIT       P1_1
      00000080H.2 SFRSYM    DATA     BIT       P0_2
      000000BBH   SFRSYM    DATA     BYTE      EIP3
      00000084H   SFRSYM    DATA     BYTE      DPL1
      000000A0H.1 SFRSYM    DATA     BIT       P2_1
LX51 LINKER/LOCATER V4.66.93.0                                                        06/27/2023  19:17:35  PAGE 71


      00000090H.2 SFRSYM    DATA     BIT       P1_2
      00000080H.3 SFRSYM    DATA     BIT       P0_3
      000000A0H.2 SFRSYM    DATA     BIT       P2_2
      00000090H.3 SFRSYM    DATA     BIT       P1_3
      00000080H.4 SFRSYM    DATA     BIT       P0_4
      000000D8H.0 SFRSYM    DATA     BIT       P5_0
      000000C8H.6 SFRSYM    DATA     BIT       I3FR
      000000A0H.3 SFRSYM    DATA     BIT       P2_3
      00000090H.4 SFRSYM    DATA     BIT       P1_4
      00000080H.5 SFRSYM    DATA     BIT       P0_5
      000000CFH   SFRSYM    DATA     BYTE      T2IE
      00000096H   SFRSYM    DATA     BYTE      TA
      000000D8H.1 SFRSYM    DATA     BIT       P5_1
      000000A0H.4 SFRSYM    DATA     BIT       P2_4
      00000090H.5 SFRSYM    DATA     BIT       P1_5
      00000080H.6 SFRSYM    DATA     BIT       P0_6
      000000C9H   SFRSYM    DATA     BYTE      T2IF
      000000D8H.2 SFRSYM    DATA     BIT       P5_2
      000000C8H.2 SFRSYM    DATA     BIT       T2CM
      000000A0H.5 SFRSYM    DATA     BIT       P2_5
      00000090H.6 SFRSYM    DATA     BIT       P1_6
      00000080H.7 SFRSYM    DATA     BIT       P0_7
      000000DFH   SFRSYM    DATA     BYTE      ADCON0
      000000D8H.3 SFRSYM    DATA     BIT       P5_3
      000000A0H.6 SFRSYM    DATA     BIT       P2_6
      00000090H.7 SFRSYM    DATA     BIT       P1_7
      000000DEH   SFRSYM    DATA     BYTE      ADCON1
      000000D8H.4 SFRSYM    DATA     BIT       P5_4
      000000A0H.7 SFRSYM    DATA     BIT       P2_7
      000000E9H   SFRSYM    DATA     BYTE      ADCON2
      000000B8H   SFRSYM    DATA     BYTE      IP
      000000D8H.5 SFRSYM    DATA     BIT       P5_5
      000000CEH   SFRSYM    DATA     BYTE      CCEN
      000000D8H.6 SFRSYM    DATA     BIT       P5_6
      000000D8H.7 SFRSYM    DATA     BIT       P5_7
      000000D0H.7 SFRSYM    DATA     BIT       CY
      000000D2H   SFRSYM    DATA     BYTE      T34MOD
      000000F4H   SFRSYM    DATA     BYTE      I2CMSA
      000000D7H   SFRSYM    DATA     BYTE      SCKSTAU
      000000F5H   SFRSYM    DATA     BYTE      I2CMCR
      00000081H   SFRSYM    DATA     BYTE      SP
      000000D0H.2 SFRSYM    DATA     BIT       OV
      000000F2H   SFRSYM    DATA     BYTE      I2CSCR
      000000D9H   SFRSYM    DATA     BYTE      ADCCHS
      000000C8H.7 SFRSYM    DATA     BIT       T2PS
      000000D1H   SFRSYM    DATA     BYTE      ADCMPC
      000000CBH   SFRSYM    DATA     BYTE      RLDH
      000000D5H   SFRSYM    DATA     BYTE      ADCMPH
      000000CAH   SFRSYM    DATA     BYTE      RLDL
      00000080H.0 SFRSYM    DATA     BIT       P00
      00000090H.0 SFRSYM    DATA     BIT       P10
      00000080H.1 SFRSYM    DATA     BIT       P01
      000000F7H   SFRSYM    DATA     BYTE      I2CMTP
      00000087H   SFRSYM    DATA     BYTE      PCON
      000000A0H.0 SFRSYM    DATA     BIT       P20
      00000090H.1 SFRSYM    DATA     BIT       P11
      00000080H.2 SFRSYM    DATA     BIT       P02
      000000F5H   SFRSYM    DATA     BYTE      I2CMSR
      000000A0H.1 SFRSYM    DATA     BIT       P21
      00000090H.2 SFRSYM    DATA     BIT       P12
      00000080H.3 SFRSYM    DATA     BIT       P03
      000000D4H   SFRSYM    DATA     BYTE      ADCMPL
      000000A0H.2 SFRSYM    DATA     BIT       P22
      00000090H.3 SFRSYM    DATA     BIT       P13
      00000080H.4 SFRSYM    DATA     BIT       P04
LX51 LINKER/LOCATER V4.66.93.0                                                        06/27/2023  19:17:35  PAGE 72


      000000D8H.0 SFRSYM    DATA     BIT       P50
      000000A0H.3 SFRSYM    DATA     BIT       P23
      00000090H.4 SFRSYM    DATA     BIT       P14
      00000080H.5 SFRSYM    DATA     BIT       P05
      00000089H   SFRSYM    DATA     BYTE      TMOD
      00000088H   SFRSYM    DATA     BYTE      TCON
      000000D8H.1 SFRSYM    DATA     BIT       P51
      00000090H.5 SFRSYM    DATA     BIT       P15
      00000080H.6 SFRSYM    DATA     BIT       P06
      000000FAH   SFRSYM    DATA     BYTE      PCRCDH
      000000D8H.2 SFRSYM    DATA     BIT       P52
      00000090H.6 SFRSYM    DATA     BIT       P16
      00000080H.7 SFRSYM    DATA     BIT       P07
      000000D8H.3 SFRSYM    DATA     BIT       P53
      00000090H.7 SFRSYM    DATA     BIT       P17
      000000F2H   SFRSYM    DATA     BYTE      I2CSSR
      000000D8H.4 SFRSYM    DATA     BIT       P54
      000000ECH   SFRSYM    DATA     BYTE      SPCR
      000000DDH   SFRSYM    DATA     BYTE      ADRESH
      000000D8H.5 SFRSYM    DATA     BIT       P55
      000000F9H   SFRSYM    DATA     BYTE      PCRCDL
      000000EEH   SFRSYM    DATA     BYTE      SPDR
      000000EFH   SFRSYM    DATA     BYTE      SSCR
      000000D3H   SFRSYM    DATA     BYTE      ADDLYL
      000000DCH   SFRSYM    DATA     BYTE      ADRESL
      00000088H.1 SFRSYM    DATA     BIT       IE0
      00000088H.3 SFRSYM    DATA     BIT       IE1
      0000008FH   SFRSYM    DATA     BYTE      CLKDIV
      000000F0H   SFRSYM    DATA     BYTE      B
      00000091H   SFRSYM    DATA     BYTE      FUNCCR
      0000009AH   SFRSYM    DATA     BYTE      P0TRIS
      000000A1H   SFRSYM    DATA     BYTE      P1TRIS
      000000A2H   SFRSYM    DATA     BYTE      P2TRIS
      000000E0H   SFRSYM    DATA     BYTE      ACC
      000000D6H   SFRSYM    DATA     BYTE      SCKSEL
      000000A8H.4 SFRSYM    DATA     BIT       ES0
      000000A8H.1 SFRSYM    DATA     BIT       ET0
      000000A8H.6 SFRSYM    DATA     BIT       ES1
      000000EDH   SFRSYM    DATA     BYTE      SPSR
      000000A5H   SFRSYM    DATA     BYTE      P5TRIS
      000000A8H.3 SFRSYM    DATA     BIT       ET1
      00000088H.5 SFRSYM    DATA     BIT       TF0
      000000A8H.5 SFRSYM    DATA     BIT       ET2
      00000098H.0 SFRSYM    DATA     BIT       RI0
      00000088H.7 SFRSYM    DATA     BIT       TF1
      0000008CH   SFRSYM    DATA     BYTE      TH0
      000000A8H.0 SFRSYM    DATA     BIT       EX0
      00000098H.1 SFRSYM    DATA     BIT       TI0
      00000088H.0 SFRSYM    DATA     BIT       IT0
      0000008DH   SFRSYM    DATA     BYTE      TH1
      000000A8H.2 SFRSYM    DATA     BIT       EX1
      00000088H.2 SFRSYM    DATA     BIT       IT1
      000000CDH   SFRSYM    DATA     BYTE      TH2
      000000D0H.0 SFRSYM    DATA     BIT       P
      000000DBH   SFRSYM    DATA     BYTE      TH3
      000000E3H   SFRSYM    DATA     BYTE      TH4
      0000008AH   SFRSYM    DATA     BYTE      TL0
      000000F0H.0 SFRSYM    DATA     BIT       B_0
      0000008BH   SFRSYM    DATA     BYTE      TL1
      000000F0H.1 SFRSYM    DATA     BIT       B_1
      00000098H.2 SFRSYM    DATA     BIT       U0RB8
      000000CCH   SFRSYM    DATA     BYTE      TL2
      000000F0H.2 SFRSYM    DATA     BIT       B_2
      000000B8H.4 SFRSYM    DATA     BIT       PS0
      000000DAH   SFRSYM    DATA     BYTE      TL3
LX51 LINKER/LOCATER V4.66.93.0                                                        06/27/2023  19:17:35  PAGE 73


      000000BFH   SFRSYM    DATA     BYTE      BUZCON
      000000F0H.3 SFRSYM    DATA     BIT       B_3
      000000B8H.1 SFRSYM    DATA     BIT       PT0
      000000B8H.6 SFRSYM    DATA     BIT       PS1
      00000098H.3 SFRSYM    DATA     BIT       U0TB8
      000000E2H   SFRSYM    DATA     BYTE      TL4
      000000F0H.4 SFRSYM    DATA     BIT       B_4
      000000D0H.3 SFRSYM    DATA     BIT       RS0
      000000B8H.3 SFRSYM    DATA     BIT       PT1
      000000F0H.5 SFRSYM    DATA     BIT       B_5
      000000D0H.4 SFRSYM    DATA     BIT       RS1
      000000B8H.5 SFRSYM    DATA     BIT       PT2
      00000098H.7 SFRSYM    DATA     BIT       U0SM0
      00000088H.4 SFRSYM    DATA     BIT       TR0
      000000BEH   SFRSYM    DATA     BYTE      BUZDIV
      000000F0H.6 SFRSYM    DATA     BIT       B_6
      000000E0H.0 SFRSYM    DATA     BIT       ACC_0
      00000098H.6 SFRSYM    DATA     BIT       U0SM1
      00000088H.6 SFRSYM    DATA     BIT       TR1
      000000F0H.7 SFRSYM    DATA     BIT       B_7
      000000E0H.1 SFRSYM    DATA     BIT       ACC_1
      000000B8H.0 SFRSYM    DATA     BIT       PX0
      00000098H.5 SFRSYM    DATA     BIT       U0SM2
      000000E0H.2 SFRSYM    DATA     BIT       ACC_2
      000000B8H.2 SFRSYM    DATA     BIT       PX1
      000000E0H.3 SFRSYM    DATA     BIT       ACC_3
      000000E0H.4 SFRSYM    DATA     BIT       ACC_4
      000000E0H.5 SFRSYM    DATA     BIT       ACC_5
      000000E0H.6 SFRSYM    DATA     BIT       ACC_6
      000000E0H.7 SFRSYM    DATA     BIT       ACC_7
      000000BDH   SFRSYM    DATA     BYTE      WUTCRH
      00000099H   SFRSYM    DATA     BYTE      SBUF0
      000000EBH   SFRSYM    DATA     BYTE      SBUF1
      000000BCH   SFRSYM    DATA     BYTE      WUTCRL
      00000098H   SFRSYM    DATA     BYTE      SCON0
      000000EAH   SFRSYM    DATA     BYTE      SCON1
      000000C8H   SFRSYM    DATA     BYTE      T2CON
      00000086H   SFRSYM    DATA     BYTE      DPS
      000000FEH   SFRSYM    DATA     BYTE      MDATA
      000000F6H   SFRSYM    DATA     BYTE      I2CMBUF
      000000F1H   SFRSYM    DATA     BYTE      I2CSADR
      00000098H.4 SFRSYM    DATA     BIT       U0REN
      000000C8H.5 SFRSYM    DATA     BIT       CAPES
      000000FDH   SFRSYM    DATA     BYTE      MADRH
      0000008EH   SFRSYM    DATA     BYTE      CKCON
      000000F3H   SFRSYM    DATA     BYTE      I2CSBUF
      000000FCH   SFRSYM    DATA     BYTE      MADRL
      000000D0H.5 SFRSYM    DATA     BIT       F0
      000000FBH   SFRSYM    DATA     BYTE      MLOCK
      000000D0H   SFRSYM    DATA     BYTE      PSW
      00000097H   SFRSYM    DATA     BYTE      WDCON
      00000004H   SYMBOL    DATA     WORD      Time

      ---         MODULE    ---      ---       PWM
      01002E18H   PUBLIC    CODE     ---       _PWM_DisableReverseOutput
      01002A25H   PUBLIC    CODE     ---       _PWM_DisableDeadZone
      01002E63H   PUBLIC    CODE     ---       _PWM_EnableOutput
      01002E5CH   PUBLIC    CODE     ---       _PWM_Start
      01002E55H   PUBLIC    CODE     ---       _PWM_EnableAutoLoadMode
      01002177H   PUBLIC    CODE     ---       _PWM_ConfigChannelDuty
      010020F7H   PUBLIC    CODE     ---       _PWM_ConfigChannelPeriod
      010024BBH   PUBLIC    CODE     ---       _PWM_ConfigChannelClk
      01002E8DH   PUBLIC    CODE     ---       _PWM_ConfigRunMode
      000000C8H.0 SFRSYM    DATA     BIT       T2I0
      000000C3H   SFRSYM    DATA     BYTE      CCH1
LX51 LINKER/LOCATER V4.66.93.0                                                        06/27/2023  19:17:35  PAGE 74


      00000080H   SFRSYM    DATA     BYTE      P0
      000000C8H.1 SFRSYM    DATA     BIT       T2I1
      000000C5H   SFRSYM    DATA     BYTE      CCH2
      00000090H   SFRSYM    DATA     BYTE      P1
      000000C7H   SFRSYM    DATA     BYTE      CCH3
      000000ACH   SFRSYM    DATA     BYTE      P0EXTIE
      000000A0H   SFRSYM    DATA     BYTE      P2
      000000B4H   SFRSYM    DATA     BYTE      P0EXTIF
      000000ADH   SFRSYM    DATA     BYTE      P1EXTIE
      000000D0H.6 SFRSYM    DATA     BIT       AC
      000000FFH   SFRSYM    DATA     BYTE      MCTRL
      000000C2H   SFRSYM    DATA     BYTE      CCL1
      000000B5H   SFRSYM    DATA     BYTE      P1EXTIF
      000000AEH   SFRSYM    DATA     BYTE      P2EXTIE
      000000D8H   SFRSYM    DATA     BYTE      P5
      000000C4H   SFRSYM    DATA     BYTE      CCL2
      000000B6H   SFRSYM    DATA     BYTE      P2EXTIF
      000000A8H.7 SFRSYM    DATA     BIT       EA
      000000C6H   SFRSYM    DATA     BYTE      CCL3
      000000AAH   SFRSYM    DATA     BYTE      EIE2
      000000B2H   SFRSYM    DATA     BYTE      EIF2
      0000009CH   SFRSYM    DATA     BYTE      P5EXTIE
      000000A7H   SFRSYM    DATA     BYTE      P5EXTIF
      000000C8H.3 SFRSYM    DATA     BIT       T2R0
      000000C8H.4 SFRSYM    DATA     BIT       T2R1
      00000083H   SFRSYM    DATA     BYTE      DPH0
      000000A8H   SFRSYM    DATA     BYTE      IE
      00000085H   SFRSYM    DATA     BYTE      DPH1
      00000080H.0 SFRSYM    DATA     BIT       P0_0
      000000B9H   SFRSYM    DATA     BYTE      EIP1
      00000090H.0 SFRSYM    DATA     BIT       P1_0
      00000080H.1 SFRSYM    DATA     BIT       P0_1
      000000BAH   SFRSYM    DATA     BYTE      EIP2
      00000082H   SFRSYM    DATA     BYTE      DPL0
      000000A0H.0 SFRSYM    DATA     BIT       P2_0
      00000090H.1 SFRSYM    DATA     BIT       P1_1
      00000080H.2 SFRSYM    DATA     BIT       P0_2
      000000BBH   SFRSYM    DATA     BYTE      EIP3
      00000084H   SFRSYM    DATA     BYTE      DPL1
      000000A0H.1 SFRSYM    DATA     BIT       P2_1
      00000090H.2 SFRSYM    DATA     BIT       P1_2
      00000080H.3 SFRSYM    DATA     BIT       P0_3
      000000A0H.2 SFRSYM    DATA     BIT       P2_2
      00000090H.3 SFRSYM    DATA     BIT       P1_3
      00000080H.4 SFRSYM    DATA     BIT       P0_4
      000000D8H.0 SFRSYM    DATA     BIT       P5_0
      000000C8H.6 SFRSYM    DATA     BIT       I3FR
      000000A0H.3 SFRSYM    DATA     BIT       P2_3
      00000090H.4 SFRSYM    DATA     BIT       P1_4
      00000080H.5 SFRSYM    DATA     BIT       P0_5
      000000CFH   SFRSYM    DATA     BYTE      T2IE
      00000096H   SFRSYM    DATA     BYTE      TA
      000000D8H.1 SFRSYM    DATA     BIT       P5_1
      000000A0H.4 SFRSYM    DATA     BIT       P2_4
      00000090H.5 SFRSYM    DATA     BIT       P1_5
      00000080H.6 SFRSYM    DATA     BIT       P0_6
      000000C9H   SFRSYM    DATA     BYTE      T2IF
      000000D8H.2 SFRSYM    DATA     BIT       P5_2
      000000C8H.2 SFRSYM    DATA     BIT       T2CM
      000000A0H.5 SFRSYM    DATA     BIT       P2_5
      00000090H.6 SFRSYM    DATA     BIT       P1_6
      00000080H.7 SFRSYM    DATA     BIT       P0_7
      000000DFH   SFRSYM    DATA     BYTE      ADCON0
      000000D8H.3 SFRSYM    DATA     BIT       P5_3
      000000A0H.6 SFRSYM    DATA     BIT       P2_6
LX51 LINKER/LOCATER V4.66.93.0                                                        06/27/2023  19:17:35  PAGE 75


      00000090H.7 SFRSYM    DATA     BIT       P1_7
      000000DEH   SFRSYM    DATA     BYTE      ADCON1
      000000D8H.4 SFRSYM    DATA     BIT       P5_4
      000000A0H.7 SFRSYM    DATA     BIT       P2_7
      000000E9H   SFRSYM    DATA     BYTE      ADCON2
      000000B8H   SFRSYM    DATA     BYTE      IP
      000000D8H.5 SFRSYM    DATA     BIT       P5_5
      000000CEH   SFRSYM    DATA     BYTE      CCEN
      000000D8H.6 SFRSYM    DATA     BIT       P5_6
      000000D8H.7 SFRSYM    DATA     BIT       P5_7
      000000D0H.7 SFRSYM    DATA     BIT       CY
      000000D2H   SFRSYM    DATA     BYTE      T34MOD
      000000F4H   SFRSYM    DATA     BYTE      I2CMSA
      000000D7H   SFRSYM    DATA     BYTE      SCKSTAU
      000000F5H   SFRSYM    DATA     BYTE      I2CMCR
      00000081H   SFRSYM    DATA     BYTE      SP
      000000D0H.2 SFRSYM    DATA     BIT       OV
      000000F2H   SFRSYM    DATA     BYTE      I2CSCR
      000000D9H   SFRSYM    DATA     BYTE      ADCCHS
      000000C8H.7 SFRSYM    DATA     BIT       T2PS
      000000D1H   SFRSYM    DATA     BYTE      ADCMPC
      000000CBH   SFRSYM    DATA     BYTE      RLDH
      000000D5H   SFRSYM    DATA     BYTE      ADCMPH
      000000CAH   SFRSYM    DATA     BYTE      RLDL
      00000080H.0 SFRSYM    DATA     BIT       P00
      00000090H.0 SFRSYM    DATA     BIT       P10
      00000080H.1 SFRSYM    DATA     BIT       P01
      000000F7H   SFRSYM    DATA     BYTE      I2CMTP
      00000087H   SFRSYM    DATA     BYTE      PCON
      000000A0H.0 SFRSYM    DATA     BIT       P20
      00000090H.1 SFRSYM    DATA     BIT       P11
      00000080H.2 SFRSYM    DATA     BIT       P02
      000000F5H   SFRSYM    DATA     BYTE      I2CMSR
      000000A0H.1 SFRSYM    DATA     BIT       P21
      00000090H.2 SFRSYM    DATA     BIT       P12
      00000080H.3 SFRSYM    DATA     BIT       P03
      000000D4H   SFRSYM    DATA     BYTE      ADCMPL
      000000A0H.2 SFRSYM    DATA     BIT       P22
      00000090H.3 SFRSYM    DATA     BIT       P13
      00000080H.4 SFRSYM    DATA     BIT       P04
      000000D8H.0 SFRSYM    DATA     BIT       P50
      000000A0H.3 SFRSYM    DATA     BIT       P23
      00000090H.4 SFRSYM    DATA     BIT       P14
      00000080H.5 SFRSYM    DATA     BIT       P05
      00000089H   SFRSYM    DATA     BYTE      TMOD
      00000088H   SFRSYM    DATA     BYTE      TCON
      000000D8H.1 SFRSYM    DATA     BIT       P51
      00000090H.5 SFRSYM    DATA     BIT       P15
      00000080H.6 SFRSYM    DATA     BIT       P06
      000000FAH   SFRSYM    DATA     BYTE      PCRCDH
      000000D8H.2 SFRSYM    DATA     BIT       P52
      00000090H.6 SFRSYM    DATA     BIT       P16
      00000080H.7 SFRSYM    DATA     BIT       P07
      000000D8H.3 SFRSYM    DATA     BIT       P53
      00000090H.7 SFRSYM    DATA     BIT       P17
      000000F2H   SFRSYM    DATA     BYTE      I2CSSR
      000000D8H.4 SFRSYM    DATA     BIT       P54
      000000ECH   SFRSYM    DATA     BYTE      SPCR
      000000DDH   SFRSYM    DATA     BYTE      ADRESH
      000000D8H.5 SFRSYM    DATA     BIT       P55
      000000F9H   SFRSYM    DATA     BYTE      PCRCDL
      000000EEH   SFRSYM    DATA     BYTE      SPDR
      000000EFH   SFRSYM    DATA     BYTE      SSCR
      000000D3H   SFRSYM    DATA     BYTE      ADDLYL
      000000DCH   SFRSYM    DATA     BYTE      ADRESL
LX51 LINKER/LOCATER V4.66.93.0                                                        06/27/2023  19:17:35  PAGE 76


      00000088H.1 SFRSYM    DATA     BIT       IE0
      00000088H.3 SFRSYM    DATA     BIT       IE1
      0000008FH   SFRSYM    DATA     BYTE      CLKDIV
      000000F0H   SFRSYM    DATA     BYTE      B
      00000091H   SFRSYM    DATA     BYTE      FUNCCR
      0000009AH   SFRSYM    DATA     BYTE      P0TRIS
      000000A1H   SFRSYM    DATA     BYTE      P1TRIS
      000000A2H   SFRSYM    DATA     BYTE      P2TRIS
      000000E0H   SFRSYM    DATA     BYTE      ACC
      000000D6H   SFRSYM    DATA     BYTE      SCKSEL
      000000A8H.4 SFRSYM    DATA     BIT       ES0
      000000A8H.1 SFRSYM    DATA     BIT       ET0
      000000A8H.6 SFRSYM    DATA     BIT       ES1
      000000EDH   SFRSYM    DATA     BYTE      SPSR
      000000A5H   SFRSYM    DATA     BYTE      P5TRIS
      000000A8H.3 SFRSYM    DATA     BIT       ET1
      00000088H.5 SFRSYM    DATA     BIT       TF0
      000000A8H.5 SFRSYM    DATA     BIT       ET2
      00000098H.0 SFRSYM    DATA     BIT       RI0
      00000088H.7 SFRSYM    DATA     BIT       TF1
      0000008CH   SFRSYM    DATA     BYTE      TH0
      000000A8H.0 SFRSYM    DATA     BIT       EX0
      00000098H.1 SFRSYM    DATA     BIT       TI0
      00000088H.0 SFRSYM    DATA     BIT       IT0
      0000008DH   SFRSYM    DATA     BYTE      TH1
      000000A8H.2 SFRSYM    DATA     BIT       EX1
      00000088H.2 SFRSYM    DATA     BIT       IT1
      000000CDH   SFRSYM    DATA     BYTE      TH2
      000000D0H.0 SFRSYM    DATA     BIT       P
      000000DBH   SFRSYM    DATA     BYTE      TH3
      000000E3H   SFRSYM    DATA     BYTE      TH4
      0000008AH   SFRSYM    DATA     BYTE      TL0
      000000F0H.0 SFRSYM    DATA     BIT       B_0
      0000008BH   SFRSYM    DATA     BYTE      TL1
      000000F0H.1 SFRSYM    DATA     BIT       B_1
      00000098H.2 SFRSYM    DATA     BIT       U0RB8
      000000CCH   SFRSYM    DATA     BYTE      TL2
      000000F0H.2 SFRSYM    DATA     BIT       B_2
      000000B8H.4 SFRSYM    DATA     BIT       PS0
      000000DAH   SFRSYM    DATA     BYTE      TL3
      000000BFH   SFRSYM    DATA     BYTE      BUZCON
      000000F0H.3 SFRSYM    DATA     BIT       B_3
      000000B8H.1 SFRSYM    DATA     BIT       PT0
      000000B8H.6 SFRSYM    DATA     BIT       PS1
      00000098H.3 SFRSYM    DATA     BIT       U0TB8
      000000E2H   SFRSYM    DATA     BYTE      TL4
      000000F0H.4 SFRSYM    DATA     BIT       B_4
      000000D0H.3 SFRSYM    DATA     BIT       RS0
      000000B8H.3 SFRSYM    DATA     BIT       PT1
      000000F0H.5 SFRSYM    DATA     BIT       B_5
      000000D0H.4 SFRSYM    DATA     BIT       RS1
      000000B8H.5 SFRSYM    DATA     BIT       PT2
      00000098H.7 SFRSYM    DATA     BIT       U0SM0
      00000088H.4 SFRSYM    DATA     BIT       TR0
      000000BEH   SFRSYM    DATA     BYTE      BUZDIV
      000000F0H.6 SFRSYM    DATA     BIT       B_6
      000000E0H.0 SFRSYM    DATA     BIT       ACC_0
      00000098H.6 SFRSYM    DATA     BIT       U0SM1
      00000088H.6 SFRSYM    DATA     BIT       TR1
      000000F0H.7 SFRSYM    DATA     BIT       B_7
      000000E0H.1 SFRSYM    DATA     BIT       ACC_1
      000000B8H.0 SFRSYM    DATA     BIT       PX0
      00000098H.5 SFRSYM    DATA     BIT       U0SM2
      000000E0H.2 SFRSYM    DATA     BIT       ACC_2
      000000B8H.2 SFRSYM    DATA     BIT       PX1
LX51 LINKER/LOCATER V4.66.93.0                                                        06/27/2023  19:17:35  PAGE 77


      000000E0H.3 SFRSYM    DATA     BIT       ACC_3
      000000E0H.4 SFRSYM    DATA     BIT       ACC_4
      000000E0H.5 SFRSYM    DATA     BIT       ACC_5
      000000E0H.6 SFRSYM    DATA     BIT       ACC_6
      000000E0H.7 SFRSYM    DATA     BIT       ACC_7
      000000BDH   SFRSYM    DATA     BYTE      WUTCRH
      00000099H   SFRSYM    DATA     BYTE      SBUF0
      000000EBH   SFRSYM    DATA     BYTE      SBUF1
      000000BCH   SFRSYM    DATA     BYTE      WUTCRL
      00000098H   SFRSYM    DATA     BYTE      SCON0
      000000EAH   SFRSYM    DATA     BYTE      SCON1
      000000C8H   SFRSYM    DATA     BYTE      T2CON
      00000086H   SFRSYM    DATA     BYTE      DPS
      000000FEH   SFRSYM    DATA     BYTE      MDATA
      000000F6H   SFRSYM    DATA     BYTE      I2CMBUF
      000000F1H   SFRSYM    DATA     BYTE      I2CSADR
      00000098H.4 SFRSYM    DATA     BIT       U0REN
      000000C8H.5 SFRSYM    DATA     BIT       CAPES
      000000FDH   SFRSYM    DATA     BYTE      MADRH
      0000008EH   SFRSYM    DATA     BYTE      CKCON
      000000F3H   SFRSYM    DATA     BYTE      I2CSBUF
      000000FCH   SFRSYM    DATA     BYTE      MADRL
      000000D0H.5 SFRSYM    DATA     BIT       F0
      000000FBH   SFRSYM    DATA     BYTE      MLOCK
      000000D0H   SFRSYM    DATA     BYTE      PSW
      00000097H   SFRSYM    DATA     BYTE      WDCON

      01002E8DH   BLOCK     CODE     ---       LVL=0
      00000007H   SYMBOL    DATA     BYTE      PWMRunModeMask
      01002E8DH   LINE      CODE     ---       #71
      01002E8DH   LINE      CODE     ---       #72
      01002E8DH   LINE      CODE     ---       #73
      01002E92H   LINE      CODE     ---       #74
      ---         BLOCKEND  ---      ---       LVL=0

      010024BBH   BLOCK     CODE     ---       LVL=0
      00000007H   SYMBOL    DATA     BYTE      ChannelNum
      00000005H   SYMBOL    DATA     BYTE      ClkDiv
      010024BBH   LINE      CODE     ---       #94
      010024BBH   LINE      CODE     ---       #95
      010024BBH   LINE      CODE     ---       #96
      010024CFH   LINE      CODE     ---       #97
      010024CFH   LINE      CODE     ---       #98
      010024CFH   LINE      CODE     ---       #99
      010024D5H   LINE      CODE     ---       #100
      010024DAH   LINE      CODE     ---       #101
      010024DBH   LINE      CODE     ---       #102
      010024DBH   LINE      CODE     ---       #103
      010024E1H   LINE      CODE     ---       #104
      010024E6H   LINE      CODE     ---       #105
      010024E7H   LINE      CODE     ---       #106
      010024E7H   LINE      CODE     ---       #107
      010024EDH   LINE      CODE     ---       #108
      010024F2H   LINE      CODE     ---       #109
      010024F3H   LINE      CODE     ---       #110
      010024F3H   LINE      CODE     ---       #111
      010024F9H   LINE      CODE     ---       #112
      010024FEH   LINE      CODE     ---       #113
      010024FFH   LINE      CODE     ---       #114
      010024FFH   LINE      CODE     ---       #115
      01002505H   LINE      CODE     ---       #116
      0100250AH   LINE      CODE     ---       #117
      0100250BH   LINE      CODE     ---       #118
      0100250BH   LINE      CODE     ---       #119
      01002511H   LINE      CODE     ---       #120
LX51 LINKER/LOCATER V4.66.93.0                                                        06/27/2023  19:17:35  PAGE 78


      01002516H   LINE      CODE     ---       #121
      01002516H   LINE      CODE     ---       #122
      01002516H   LINE      CODE     ---       #123
      01002516H   LINE      CODE     ---       #124
      01002516H   LINE      CODE     ---       #125
      ---         BLOCKEND  ---      ---       LVL=0

      010020F7H   BLOCK     CODE     ---       LVL=0
      00000007H   SYMBOL    DATA     BYTE      ChannelNum
      00000004H   SYMBOL    DATA     WORD      Period
      010020F7H   LINE      CODE     ---       #134
      010020F7H   LINE      CODE     ---       #135
      010020F7H   LINE      CODE     ---       #136
      0100210BH   LINE      CODE     ---       #137
      0100210BH   LINE      CODE     ---       #138
      0100210BH   LINE      CODE     ---       #139
      01002110H   LINE      CODE     ---       #140
      01002115H   LINE      CODE     ---       #141
      0100211CH   LINE      CODE     ---       #142
      0100211DH   LINE      CODE     ---       #143
      0100211DH   LINE      CODE     ---       #144
      01002122H   LINE      CODE     ---       #145
      01002127H   LINE      CODE     ---       #146
      0100212EH   LINE      CODE     ---       #147
      0100212FH   LINE      CODE     ---       #148
      0100212FH   LINE      CODE     ---       #149
      01002134H   LINE      CODE     ---       #150
      01002139H   LINE      CODE     ---       #151
      01002140H   LINE      CODE     ---       #152
      01002141H   LINE      CODE     ---       #153
      01002141H   LINE      CODE     ---       #154
      01002146H   LINE      CODE     ---       #155
      0100214BH   LINE      CODE     ---       #156
      01002152H   LINE      CODE     ---       #157
      01002153H   LINE      CODE     ---       #158
      01002153H   LINE      CODE     ---       #159
      01002158H   LINE      CODE     ---       #160
      0100215DH   LINE      CODE     ---       #161
      01002164H   LINE      CODE     ---       #162
      01002165H   LINE      CODE     ---       #163
      01002165H   LINE      CODE     ---       #164
      0100216AH   LINE      CODE     ---       #165
      0100216FH   LINE      CODE     ---       #166
      01002176H   LINE      CODE     ---       #167
      01002176H   LINE      CODE     ---       #168
      01002176H   LINE      CODE     ---       #169
      01002176H   LINE      CODE     ---       #170
      01002176H   LINE      CODE     ---       #171
      ---         BLOCKEND  ---      ---       LVL=0

      01002177H   BLOCK     CODE     ---       LVL=0
      00000007H   SYMBOL    DATA     BYTE      ChannelNum
      00000004H   SYMBOL    DATA     WORD      Duty
      01002177H   LINE      CODE     ---       #180
      01002177H   LINE      CODE     ---       #181
      01002177H   LINE      CODE     ---       #182
      0100218BH   LINE      CODE     ---       #183
      0100218BH   LINE      CODE     ---       #184
      0100218BH   LINE      CODE     ---       #185
      01002190H   LINE      CODE     ---       #186
      01002195H   LINE      CODE     ---       #187
      0100219CH   LINE      CODE     ---       #188
      0100219DH   LINE      CODE     ---       #189
      0100219DH   LINE      CODE     ---       #190
      010021A2H   LINE      CODE     ---       #191
LX51 LINKER/LOCATER V4.66.93.0                                                        06/27/2023  19:17:35  PAGE 79


      010021A7H   LINE      CODE     ---       #192
      010021AEH   LINE      CODE     ---       #193
      010021AFH   LINE      CODE     ---       #194
      010021AFH   LINE      CODE     ---       #195
      010021B4H   LINE      CODE     ---       #196
      010021B9H   LINE      CODE     ---       #197
      010021C0H   LINE      CODE     ---       #198
      010021C1H   LINE      CODE     ---       #199
      010021C1H   LINE      CODE     ---       #200
      010021C6H   LINE      CODE     ---       #201
      010021CBH   LINE      CODE     ---       #202
      010021D2H   LINE      CODE     ---       #203
      010021D3H   LINE      CODE     ---       #204
      010021D3H   LINE      CODE     ---       #205
      010021D8H   LINE      CODE     ---       #206
      010021DDH   LINE      CODE     ---       #207
      010021E4H   LINE      CODE     ---       #208
      010021E5H   LINE      CODE     ---       #209
      010021E5H   LINE      CODE     ---       #210
      010021EAH   LINE      CODE     ---       #211
      010021EFH   LINE      CODE     ---       #212
      010021F6H   LINE      CODE     ---       #213
      010021F6H   LINE      CODE     ---       #214
      010021F6H   LINE      CODE     ---       #215
      010021F6H   LINE      CODE     ---       #216
      010021F6H   LINE      CODE     ---       #217
      ---         BLOCKEND  ---      ---       LVL=0
      00000007H   SYMBOL    DATA     BYTE      ChannelMask

      01002E55H   BLOCK     CODE     ---       LVL=0
      00000007H   SYMBOL    DATA     BYTE      ChannelMask
      01002E55H   LINE      CODE     ---       #237
      01002E55H   LINE      CODE     ---       #238
      01002E55H   LINE      CODE     ---       #239
      01002E5BH   LINE      CODE     ---       #240
      ---         BLOCKEND  ---      ---       LVL=0

      01002E5CH   BLOCK     CODE     ---       LVL=0
      00000007H   SYMBOL    DATA     BYTE      ChannelMask
      01002E5CH   LINE      CODE     ---       #266
      01002E5CH   LINE      CODE     ---       #267
      01002E5CH   LINE      CODE     ---       #268
      01002E62H   LINE      CODE     ---       #269
      ---         BLOCKEND  ---      ---       LVL=0
      00000007H   SYMBOL    DATA     BYTE      ChannelMask

      01002E63H   BLOCK     CODE     ---       LVL=0
      00000007H   SYMBOL    DATA     BYTE      ChannelMask
      01002E63H   LINE      CODE     ---       #289
      01002E63H   LINE      CODE     ---       #290
      01002E63H   LINE      CODE     ---       #291
      01002E69H   LINE      CODE     ---       #292
      ---         BLOCKEND  ---      ---       LVL=0
      00000007H   SYMBOL    DATA     BYTE      ChannelMask
      00000007H   SYMBOL    DATA     BYTE      Channel
      00000005H   SYMBOL    DATA     BYTE      DeadTime

      01002A25H   BLOCK     CODE     ---       LVL=0
      00000007H   SYMBOL    DATA     BYTE      Channel
      01002A25H   LINE      CODE     ---       #343
      01002A25H   LINE      CODE     ---       #344
      01002A25H   LINE      CODE     ---       #345
      01002A39H   LINE      CODE     ---       #346
      01002A39H   LINE      CODE     ---       #347
      01002A39H   LINE      CODE     ---       #348
LX51 LINKER/LOCATER V4.66.93.0                                                        06/27/2023  19:17:35  PAGE 80


      01002A39H   LINE      CODE     ---       #349
      01002A40H   LINE      CODE     ---       #350
      01002A41H   LINE      CODE     ---       #351
      01002A41H   LINE      CODE     ---       #352
      01002A41H   LINE      CODE     ---       #353
      01002A48H   LINE      CODE     ---       #354
      01002A49H   LINE      CODE     ---       #355
      01002A49H   LINE      CODE     ---       #356
      01002A49H   LINE      CODE     ---       #357
      01002A50H   LINE      CODE     ---       #358
      01002A50H   LINE      CODE     ---       #359
      01002A50H   LINE      CODE     ---       #360
      01002A50H   LINE      CODE     ---       #361
      01002A50H   LINE      CODE     ---       #362
      ---         BLOCKEND  ---      ---       LVL=0
      00000007H   SYMBOL    DATA     BYTE      ChannelMask
      00000007H   SYMBOL    DATA     BYTE      ChannelMask
      00000007H   SYMBOL    DATA     BYTE      ChannelNum
      00000007H   SYMBOL    DATA     BYTE      ChannelNum
      00000007H   SYMBOL    DATA     BYTE      ChannelMask
      00000007H   SYMBOL    DATA     BYTE      ChannelMask
      00000007H   SYMBOL    DATA     BYTE      ChannelNum
      00000007H   SYMBOL    DATA     BYTE      ChannelNum
      00000007H   SYMBOL    DATA     BYTE      ChannelMask

      01002E18H   BLOCK     CODE     ---       LVL=0
      00000007H   SYMBOL    DATA     BYTE      ChannelMask
      01002E18H   LINE      CODE     ---       #474
      01002E18H   LINE      CODE     ---       #475
      01002E18H   LINE      CODE     ---       #476
      01002E23H   LINE      CODE     ---       #477
      ---         BLOCKEND  ---      ---       LVL=0

      ---         MODULE    ---      ---       SPI
      000000C8H.0 SFRSYM    DATA     BIT       T2I0
      000000C3H   SFRSYM    DATA     BYTE      CCH1
      00000080H   SFRSYM    DATA     BYTE      P0
      000000C8H.1 SFRSYM    DATA     BIT       T2I1
      000000C5H   SFRSYM    DATA     BYTE      CCH2
      00000090H   SFRSYM    DATA     BYTE      P1
      000000C7H   SFRSYM    DATA     BYTE      CCH3
      000000ACH   SFRSYM    DATA     BYTE      P0EXTIE
      000000A0H   SFRSYM    DATA     BYTE      P2
      000000B4H   SFRSYM    DATA     BYTE      P0EXTIF
      000000ADH   SFRSYM    DATA     BYTE      P1EXTIE
      000000D0H.6 SFRSYM    DATA     BIT       AC
      000000FFH   SFRSYM    DATA     BYTE      MCTRL
      000000C2H   SFRSYM    DATA     BYTE      CCL1
      000000B5H   SFRSYM    DATA     BYTE      P1EXTIF
      000000AEH   SFRSYM    DATA     BYTE      P2EXTIE
      000000D8H   SFRSYM    DATA     BYTE      P5
      000000C4H   SFRSYM    DATA     BYTE      CCL2
      000000B6H   SFRSYM    DATA     BYTE      P2EXTIF
      000000A8H.7 SFRSYM    DATA     BIT       EA
      000000C6H   SFRSYM    DATA     BYTE      CCL3
      000000AAH   SFRSYM    DATA     BYTE      EIE2
      000000B2H   SFRSYM    DATA     BYTE      EIF2
      0000009CH   SFRSYM    DATA     BYTE      P5EXTIE
      000000A7H   SFRSYM    DATA     BYTE      P5EXTIF
      000000C8H.3 SFRSYM    DATA     BIT       T2R0
      000000C8H.4 SFRSYM    DATA     BIT       T2R1
      00000083H   SFRSYM    DATA     BYTE      DPH0
      000000A8H   SFRSYM    DATA     BYTE      IE
      00000085H   SFRSYM    DATA     BYTE      DPH1
      00000080H.0 SFRSYM    DATA     BIT       P0_0
LX51 LINKER/LOCATER V4.66.93.0                                                        06/27/2023  19:17:35  PAGE 81


      000000B9H   SFRSYM    DATA     BYTE      EIP1
      00000090H.0 SFRSYM    DATA     BIT       P1_0
      00000080H.1 SFRSYM    DATA     BIT       P0_1
      000000BAH   SFRSYM    DATA     BYTE      EIP2
      00000082H   SFRSYM    DATA     BYTE      DPL0
      000000A0H.0 SFRSYM    DATA     BIT       P2_0
      00000090H.1 SFRSYM    DATA     BIT       P1_1
      00000080H.2 SFRSYM    DATA     BIT       P0_2
      000000BBH   SFRSYM    DATA     BYTE      EIP3
      00000084H   SFRSYM    DATA     BYTE      DPL1
      000000A0H.1 SFRSYM    DATA     BIT       P2_1
      00000090H.2 SFRSYM    DATA     BIT       P1_2
      00000080H.3 SFRSYM    DATA     BIT       P0_3
      000000A0H.2 SFRSYM    DATA     BIT       P2_2
      00000090H.3 SFRSYM    DATA     BIT       P1_3
      00000080H.4 SFRSYM    DATA     BIT       P0_4
      000000D8H.0 SFRSYM    DATA     BIT       P5_0
      000000C8H.6 SFRSYM    DATA     BIT       I3FR
      000000A0H.3 SFRSYM    DATA     BIT       P2_3
      00000090H.4 SFRSYM    DATA     BIT       P1_4
      00000080H.5 SFRSYM    DATA     BIT       P0_5
      000000CFH   SFRSYM    DATA     BYTE      T2IE
      00000096H   SFRSYM    DATA     BYTE      TA
      000000D8H.1 SFRSYM    DATA     BIT       P5_1
      000000A0H.4 SFRSYM    DATA     BIT       P2_4
      00000090H.5 SFRSYM    DATA     BIT       P1_5
      00000080H.6 SFRSYM    DATA     BIT       P0_6
      000000C9H   SFRSYM    DATA     BYTE      T2IF
      000000D8H.2 SFRSYM    DATA     BIT       P5_2
      000000C8H.2 SFRSYM    DATA     BIT       T2CM
      000000A0H.5 SFRSYM    DATA     BIT       P2_5
      00000090H.6 SFRSYM    DATA     BIT       P1_6
      00000080H.7 SFRSYM    DATA     BIT       P0_7
      000000DFH   SFRSYM    DATA     BYTE      ADCON0
      000000D8H.3 SFRSYM    DATA     BIT       P5_3
      000000A0H.6 SFRSYM    DATA     BIT       P2_6
      00000090H.7 SFRSYM    DATA     BIT       P1_7
      000000DEH   SFRSYM    DATA     BYTE      ADCON1
      000000D8H.4 SFRSYM    DATA     BIT       P5_4
      000000A0H.7 SFRSYM    DATA     BIT       P2_7
      000000E9H   SFRSYM    DATA     BYTE      ADCON2
      000000B8H   SFRSYM    DATA     BYTE      IP
      000000D8H.5 SFRSYM    DATA     BIT       P5_5
      000000CEH   SFRSYM    DATA     BYTE      CCEN
      000000D8H.6 SFRSYM    DATA     BIT       P5_6
      000000D8H.7 SFRSYM    DATA     BIT       P5_7
      000000D0H.7 SFRSYM    DATA     BIT       CY
      000000D2H   SFRSYM    DATA     BYTE      T34MOD
      000000F4H   SFRSYM    DATA     BYTE      I2CMSA
      000000D7H   SFRSYM    DATA     BYTE      SCKSTAU
      000000F5H   SFRSYM    DATA     BYTE      I2CMCR
      00000081H   SFRSYM    DATA     BYTE      SP
      000000D0H.2 SFRSYM    DATA     BIT       OV
      000000F2H   SFRSYM    DATA     BYTE      I2CSCR
      000000D9H   SFRSYM    DATA     BYTE      ADCCHS
      000000C8H.7 SFRSYM    DATA     BIT       T2PS
      000000D1H   SFRSYM    DATA     BYTE      ADCMPC
      000000CBH   SFRSYM    DATA     BYTE      RLDH
      000000D5H   SFRSYM    DATA     BYTE      ADCMPH
      000000CAH   SFRSYM    DATA     BYTE      RLDL
      00000080H.0 SFRSYM    DATA     BIT       P00
      00000090H.0 SFRSYM    DATA     BIT       P10
      00000080H.1 SFRSYM    DATA     BIT       P01
      000000F7H   SFRSYM    DATA     BYTE      I2CMTP
      00000087H   SFRSYM    DATA     BYTE      PCON
LX51 LINKER/LOCATER V4.66.93.0                                                        06/27/2023  19:17:35  PAGE 82


      000000A0H.0 SFRSYM    DATA     BIT       P20
      00000090H.1 SFRSYM    DATA     BIT       P11
      00000080H.2 SFRSYM    DATA     BIT       P02
      000000F5H   SFRSYM    DATA     BYTE      I2CMSR
      000000A0H.1 SFRSYM    DATA     BIT       P21
      00000090H.2 SFRSYM    DATA     BIT       P12
      00000080H.3 SFRSYM    DATA     BIT       P03
      000000D4H   SFRSYM    DATA     BYTE      ADCMPL
      000000A0H.2 SFRSYM    DATA     BIT       P22
      00000090H.3 SFRSYM    DATA     BIT       P13
      00000080H.4 SFRSYM    DATA     BIT       P04
      000000D8H.0 SFRSYM    DATA     BIT       P50
      000000A0H.3 SFRSYM    DATA     BIT       P23
      00000090H.4 SFRSYM    DATA     BIT       P14
      00000080H.5 SFRSYM    DATA     BIT       P05
      00000089H   SFRSYM    DATA     BYTE      TMOD
      00000088H   SFRSYM    DATA     BYTE      TCON
      000000D8H.1 SFRSYM    DATA     BIT       P51
      00000090H.5 SFRSYM    DATA     BIT       P15
      00000080H.6 SFRSYM    DATA     BIT       P06
      000000FAH   SFRSYM    DATA     BYTE      PCRCDH
      000000D8H.2 SFRSYM    DATA     BIT       P52
      00000090H.6 SFRSYM    DATA     BIT       P16
      00000080H.7 SFRSYM    DATA     BIT       P07
      000000D8H.3 SFRSYM    DATA     BIT       P53
      00000090H.7 SFRSYM    DATA     BIT       P17
      000000F2H   SFRSYM    DATA     BYTE      I2CSSR
      000000D8H.4 SFRSYM    DATA     BIT       P54
      000000ECH   SFRSYM    DATA     BYTE      SPCR
      000000DDH   SFRSYM    DATA     BYTE      ADRESH
      000000D8H.5 SFRSYM    DATA     BIT       P55
      000000F9H   SFRSYM    DATA     BYTE      PCRCDL
      000000EEH   SFRSYM    DATA     BYTE      SPDR
      000000EFH   SFRSYM    DATA     BYTE      SSCR
      000000D3H   SFRSYM    DATA     BYTE      ADDLYL
      000000DCH   SFRSYM    DATA     BYTE      ADRESL
      00000088H.1 SFRSYM    DATA     BIT       IE0
      00000088H.3 SFRSYM    DATA     BIT       IE1
      0000008FH   SFRSYM    DATA     BYTE      CLKDIV
      000000F0H   SFRSYM    DATA     BYTE      B
      00000091H   SFRSYM    DATA     BYTE      FUNCCR
      0000009AH   SFRSYM    DATA     BYTE      P0TRIS
      000000A1H   SFRSYM    DATA     BYTE      P1TRIS
      000000A2H   SFRSYM    DATA     BYTE      P2TRIS
      000000E0H   SFRSYM    DATA     BYTE      ACC
      000000D6H   SFRSYM    DATA     BYTE      SCKSEL
      000000A8H.4 SFRSYM    DATA     BIT       ES0
      000000A8H.1 SFRSYM    DATA     BIT       ET0
      000000A8H.6 SFRSYM    DATA     BIT       ES1
      000000EDH   SFRSYM    DATA     BYTE      SPSR
      000000A5H   SFRSYM    DATA     BYTE      P5TRIS
      000000A8H.3 SFRSYM    DATA     BIT       ET1
      00000088H.5 SFRSYM    DATA     BIT       TF0
      000000A8H.5 SFRSYM    DATA     BIT       ET2
      00000098H.0 SFRSYM    DATA     BIT       RI0
      00000088H.7 SFRSYM    DATA     BIT       TF1
      0000008CH   SFRSYM    DATA     BYTE      TH0
      000000A8H.0 SFRSYM    DATA     BIT       EX0
      00000098H.1 SFRSYM    DATA     BIT       TI0
      00000088H.0 SFRSYM    DATA     BIT       IT0
      0000008DH   SFRSYM    DATA     BYTE      TH1
      000000A8H.2 SFRSYM    DATA     BIT       EX1
      00000088H.2 SFRSYM    DATA     BIT       IT1
      000000CDH   SFRSYM    DATA     BYTE      TH2
      000000D0H.0 SFRSYM    DATA     BIT       P
LX51 LINKER/LOCATER V4.66.93.0                                                        06/27/2023  19:17:35  PAGE 83


      000000DBH   SFRSYM    DATA     BYTE      TH3
      000000E3H   SFRSYM    DATA     BYTE      TH4
      0000008AH   SFRSYM    DATA     BYTE      TL0
      000000F0H.0 SFRSYM    DATA     BIT       B_0
      0000008BH   SFRSYM    DATA     BYTE      TL1
      000000F0H.1 SFRSYM    DATA     BIT       B_1
      00000098H.2 SFRSYM    DATA     BIT       U0RB8
      000000CCH   SFRSYM    DATA     BYTE      TL2
      000000F0H.2 SFRSYM    DATA     BIT       B_2
      000000B8H.4 SFRSYM    DATA     BIT       PS0
      000000DAH   SFRSYM    DATA     BYTE      TL3
      000000BFH   SFRSYM    DATA     BYTE      BUZCON
      000000F0H.3 SFRSYM    DATA     BIT       B_3
      000000B8H.1 SFRSYM    DATA     BIT       PT0
      000000B8H.6 SFRSYM    DATA     BIT       PS1
      00000098H.3 SFRSYM    DATA     BIT       U0TB8
      000000E2H   SFRSYM    DATA     BYTE      TL4
      000000F0H.4 SFRSYM    DATA     BIT       B_4
      000000D0H.3 SFRSYM    DATA     BIT       RS0
      000000B8H.3 SFRSYM    DATA     BIT       PT1
      000000F0H.5 SFRSYM    DATA     BIT       B_5
      000000D0H.4 SFRSYM    DATA     BIT       RS1
      000000B8H.5 SFRSYM    DATA     BIT       PT2
      00000098H.7 SFRSYM    DATA     BIT       U0SM0
      00000088H.4 SFRSYM    DATA     BIT       TR0
      000000BEH   SFRSYM    DATA     BYTE      BUZDIV
      000000F0H.6 SFRSYM    DATA     BIT       B_6
      000000E0H.0 SFRSYM    DATA     BIT       ACC_0
      00000098H.6 SFRSYM    DATA     BIT       U0SM1
      00000088H.6 SFRSYM    DATA     BIT       TR1
      000000F0H.7 SFRSYM    DATA     BIT       B_7
      000000E0H.1 SFRSYM    DATA     BIT       ACC_1
      000000B8H.0 SFRSYM    DATA     BIT       PX0
      00000098H.5 SFRSYM    DATA     BIT       U0SM2
      000000E0H.2 SFRSYM    DATA     BIT       ACC_2
      000000B8H.2 SFRSYM    DATA     BIT       PX1
      000000E0H.3 SFRSYM    DATA     BIT       ACC_3
      000000E0H.4 SFRSYM    DATA     BIT       ACC_4
      000000E0H.5 SFRSYM    DATA     BIT       ACC_5
      000000E0H.6 SFRSYM    DATA     BIT       ACC_6
      000000E0H.7 SFRSYM    DATA     BIT       ACC_7
      000000BDH   SFRSYM    DATA     BYTE      WUTCRH
      00000099H   SFRSYM    DATA     BYTE      SBUF0
      000000EBH   SFRSYM    DATA     BYTE      SBUF1
      000000BCH   SFRSYM    DATA     BYTE      WUTCRL
      00000098H   SFRSYM    DATA     BYTE      SCON0
      000000EAH   SFRSYM    DATA     BYTE      SCON1
      000000C8H   SFRSYM    DATA     BYTE      T2CON
      00000086H   SFRSYM    DATA     BYTE      DPS
      000000FEH   SFRSYM    DATA     BYTE      MDATA
      000000F6H   SFRSYM    DATA     BYTE      I2CMBUF
      000000F1H   SFRSYM    DATA     BYTE      I2CSADR
      00000098H.4 SFRSYM    DATA     BIT       U0REN
      000000C8H.5 SFRSYM    DATA     BIT       CAPES
      000000FDH   SFRSYM    DATA     BYTE      MADRH
      0000008EH   SFRSYM    DATA     BYTE      CKCON
      000000F3H   SFRSYM    DATA     BYTE      I2CSBUF
      000000FCH   SFRSYM    DATA     BYTE      MADRL
      000000D0H.5 SFRSYM    DATA     BIT       F0
      000000FBH   SFRSYM    DATA     BYTE      MLOCK
      000000D0H   SFRSYM    DATA     BYTE      PSW
      00000097H   SFRSYM    DATA     BYTE      WDCON
      00000007H   SYMBOL    DATA     BYTE      SPIClkDiv
      00000007H   SYMBOL    DATA     BYTE      ClkPositive
      00000005H   SYMBOL    DATA     BYTE      ClkPhash
LX51 LINKER/LOCATER V4.66.93.0                                                        06/27/2023  19:17:35  PAGE 84


      00000003H   SYMBOL    DATA     BYTE      NSSMode
      00000007H   SYMBOL    DATA     BYTE      temp
      00000007H   SYMBOL    DATA     BYTE      temp

      ---         MODULE    ---      ---       UART
      000000C8H.0 SFRSYM    DATA     BIT       T2I0
      000000C3H   SFRSYM    DATA     BYTE      CCH1
      00000080H   SFRSYM    DATA     BYTE      P0
      000000C8H.1 SFRSYM    DATA     BIT       T2I1
      000000C5H   SFRSYM    DATA     BYTE      CCH2
      00000090H   SFRSYM    DATA     BYTE      P1
      000000C7H   SFRSYM    DATA     BYTE      CCH3
      000000ACH   SFRSYM    DATA     BYTE      P0EXTIE
      000000A0H   SFRSYM    DATA     BYTE      P2
      000000B4H   SFRSYM    DATA     BYTE      P0EXTIF
      000000ADH   SFRSYM    DATA     BYTE      P1EXTIE
      000000D0H.6 SFRSYM    DATA     BIT       AC
      000000FFH   SFRSYM    DATA     BYTE      MCTRL
      000000C2H   SFRSYM    DATA     BYTE      CCL1
      000000B5H   SFRSYM    DATA     BYTE      P1EXTIF
      000000AEH   SFRSYM    DATA     BYTE      P2EXTIE
      000000D8H   SFRSYM    DATA     BYTE      P5
      000000C4H   SFRSYM    DATA     BYTE      CCL2
      000000B6H   SFRSYM    DATA     BYTE      P2EXTIF
      000000A8H.7 SFRSYM    DATA     BIT       EA
      000000C6H   SFRSYM    DATA     BYTE      CCL3
      000000AAH   SFRSYM    DATA     BYTE      EIE2
      000000B2H   SFRSYM    DATA     BYTE      EIF2
      0000009CH   SFRSYM    DATA     BYTE      P5EXTIE
      000000A7H   SFRSYM    DATA     BYTE      P5EXTIF
      000000C8H.3 SFRSYM    DATA     BIT       T2R0
      000000C8H.4 SFRSYM    DATA     BIT       T2R1
      00000083H   SFRSYM    DATA     BYTE      DPH0
      000000A8H   SFRSYM    DATA     BYTE      IE
      00000085H   SFRSYM    DATA     BYTE      DPH1
      00000080H.0 SFRSYM    DATA     BIT       P0_0
      000000B9H   SFRSYM    DATA     BYTE      EIP1
      00000090H.0 SFRSYM    DATA     BIT       P1_0
      00000080H.1 SFRSYM    DATA     BIT       P0_1
      000000BAH   SFRSYM    DATA     BYTE      EIP2
      00000082H   SFRSYM    DATA     BYTE      DPL0
      000000A0H.0 SFRSYM    DATA     BIT       P2_0
      00000090H.1 SFRSYM    DATA     BIT       P1_1
      00000080H.2 SFRSYM    DATA     BIT       P0_2
      000000BBH   SFRSYM    DATA     BYTE      EIP3
      00000084H   SFRSYM    DATA     BYTE      DPL1
      000000A0H.1 SFRSYM    DATA     BIT       P2_1
      00000090H.2 SFRSYM    DATA     BIT       P1_2
      00000080H.3 SFRSYM    DATA     BIT       P0_3
      000000A0H.2 SFRSYM    DATA     BIT       P2_2
      00000090H.3 SFRSYM    DATA     BIT       P1_3
      00000080H.4 SFRSYM    DATA     BIT       P0_4
      000000D8H.0 SFRSYM    DATA     BIT       P5_0
      000000C8H.6 SFRSYM    DATA     BIT       I3FR
      000000A0H.3 SFRSYM    DATA     BIT       P2_3
      00000090H.4 SFRSYM    DATA     BIT       P1_4
      00000080H.5 SFRSYM    DATA     BIT       P0_5
      000000CFH   SFRSYM    DATA     BYTE      T2IE
      00000096H   SFRSYM    DATA     BYTE      TA
      000000D8H.1 SFRSYM    DATA     BIT       P5_1
      000000A0H.4 SFRSYM    DATA     BIT       P2_4
      00000090H.5 SFRSYM    DATA     BIT       P1_5
      00000080H.6 SFRSYM    DATA     BIT       P0_6
      000000C9H   SFRSYM    DATA     BYTE      T2IF
      000000D8H.2 SFRSYM    DATA     BIT       P5_2
LX51 LINKER/LOCATER V4.66.93.0                                                        06/27/2023  19:17:35  PAGE 85


      000000C8H.2 SFRSYM    DATA     BIT       T2CM
      000000A0H.5 SFRSYM    DATA     BIT       P2_5
      00000090H.6 SFRSYM    DATA     BIT       P1_6
      00000080H.7 SFRSYM    DATA     BIT       P0_7
      000000DFH   SFRSYM    DATA     BYTE      ADCON0
      000000D8H.3 SFRSYM    DATA     BIT       P5_3
      000000A0H.6 SFRSYM    DATA     BIT       P2_6
      00000090H.7 SFRSYM    DATA     BIT       P1_7
      000000DEH   SFRSYM    DATA     BYTE      ADCON1
      000000D8H.4 SFRSYM    DATA     BIT       P5_4
      000000A0H.7 SFRSYM    DATA     BIT       P2_7
      000000E9H   SFRSYM    DATA     BYTE      ADCON2
      000000B8H   SFRSYM    DATA     BYTE      IP
      000000D8H.5 SFRSYM    DATA     BIT       P5_5
      000000CEH   SFRSYM    DATA     BYTE      CCEN
      000000D8H.6 SFRSYM    DATA     BIT       P5_6
      000000D8H.7 SFRSYM    DATA     BIT       P5_7
      000000D0H.7 SFRSYM    DATA     BIT       CY
      000000D2H   SFRSYM    DATA     BYTE      T34MOD
      000000F4H   SFRSYM    DATA     BYTE      I2CMSA
      000000D7H   SFRSYM    DATA     BYTE      SCKSTAU
      000000F5H   SFRSYM    DATA     BYTE      I2CMCR
      00000081H   SFRSYM    DATA     BYTE      SP
      000000D0H.2 SFRSYM    DATA     BIT       OV
      000000F2H   SFRSYM    DATA     BYTE      I2CSCR
      000000D9H   SFRSYM    DATA     BYTE      ADCCHS
      000000C8H.7 SFRSYM    DATA     BIT       T2PS
      000000D1H   SFRSYM    DATA     BYTE      ADCMPC
      000000CBH   SFRSYM    DATA     BYTE      RLDH
      000000D5H   SFRSYM    DATA     BYTE      ADCMPH
      000000CAH   SFRSYM    DATA     BYTE      RLDL
      00000080H.0 SFRSYM    DATA     BIT       P00
      00000090H.0 SFRSYM    DATA     BIT       P10
      00000080H.1 SFRSYM    DATA     BIT       P01
      000000F7H   SFRSYM    DATA     BYTE      I2CMTP
      00000087H   SFRSYM    DATA     BYTE      PCON
      000000A0H.0 SFRSYM    DATA     BIT       P20
      00000090H.1 SFRSYM    DATA     BIT       P11
      00000080H.2 SFRSYM    DATA     BIT       P02
      000000F5H   SFRSYM    DATA     BYTE      I2CMSR
      000000A0H.1 SFRSYM    DATA     BIT       P21
      00000090H.2 SFRSYM    DATA     BIT       P12
      00000080H.3 SFRSYM    DATA     BIT       P03
      000000D4H   SFRSYM    DATA     BYTE      ADCMPL
      000000A0H.2 SFRSYM    DATA     BIT       P22
      00000090H.3 SFRSYM    DATA     BIT       P13
      00000080H.4 SFRSYM    DATA     BIT       P04
      000000D8H.0 SFRSYM    DATA     BIT       P50
      000000A0H.3 SFRSYM    DATA     BIT       P23
      00000090H.4 SFRSYM    DATA     BIT       P14
      00000080H.5 SFRSYM    DATA     BIT       P05
      00000089H   SFRSYM    DATA     BYTE      TMOD
      00000088H   SFRSYM    DATA     BYTE      TCON
      000000D8H.1 SFRSYM    DATA     BIT       P51
      00000090H.5 SFRSYM    DATA     BIT       P15
      00000080H.6 SFRSYM    DATA     BIT       P06
      000000FAH   SFRSYM    DATA     BYTE      PCRCDH
      000000D8H.2 SFRSYM    DATA     BIT       P52
      00000090H.6 SFRSYM    DATA     BIT       P16
      00000080H.7 SFRSYM    DATA     BIT       P07
      000000D8H.3 SFRSYM    DATA     BIT       P53
      00000090H.7 SFRSYM    DATA     BIT       P17
      000000F2H   SFRSYM    DATA     BYTE      I2CSSR
      000000D8H.4 SFRSYM    DATA     BIT       P54
      000000ECH   SFRSYM    DATA     BYTE      SPCR
LX51 LINKER/LOCATER V4.66.93.0                                                        06/27/2023  19:17:35  PAGE 86


      000000DDH   SFRSYM    DATA     BYTE      ADRESH
      000000D8H.5 SFRSYM    DATA     BIT       P55
      000000F9H   SFRSYM    DATA     BYTE      PCRCDL
      000000EEH   SFRSYM    DATA     BYTE      SPDR
      000000EFH   SFRSYM    DATA     BYTE      SSCR
      000000D3H   SFRSYM    DATA     BYTE      ADDLYL
      000000DCH   SFRSYM    DATA     BYTE      ADRESL
      00000088H.1 SFRSYM    DATA     BIT       IE0
      00000088H.3 SFRSYM    DATA     BIT       IE1
      0000008FH   SFRSYM    DATA     BYTE      CLKDIV
      000000F0H   SFRSYM    DATA     BYTE      B
      00000091H   SFRSYM    DATA     BYTE      FUNCCR
      0000009AH   SFRSYM    DATA     BYTE      P0TRIS
      000000A1H   SFRSYM    DATA     BYTE      P1TRIS
      000000A2H   SFRSYM    DATA     BYTE      P2TRIS
      000000E0H   SFRSYM    DATA     BYTE      ACC
      000000D6H   SFRSYM    DATA     BYTE      SCKSEL
      000000A8H.4 SFRSYM    DATA     BIT       ES0
      000000A8H.1 SFRSYM    DATA     BIT       ET0
      000000A8H.6 SFRSYM    DATA     BIT       ES1
      000000EDH   SFRSYM    DATA     BYTE      SPSR
      000000A5H   SFRSYM    DATA     BYTE      P5TRIS
      000000A8H.3 SFRSYM    DATA     BIT       ET1
      00000088H.5 SFRSYM    DATA     BIT       TF0
      000000A8H.5 SFRSYM    DATA     BIT       ET2
      00000098H.0 SFRSYM    DATA     BIT       RI0
      00000088H.7 SFRSYM    DATA     BIT       TF1
      0000008CH   SFRSYM    DATA     BYTE      TH0
      000000A8H.0 SFRSYM    DATA     BIT       EX0
      00000098H.1 SFRSYM    DATA     BIT       TI0
      00000088H.0 SFRSYM    DATA     BIT       IT0
      0000008DH   SFRSYM    DATA     BYTE      TH1
      000000A8H.2 SFRSYM    DATA     BIT       EX1
      00000088H.2 SFRSYM    DATA     BIT       IT1
      000000CDH   SFRSYM    DATA     BYTE      TH2
      000000D0H.0 SFRSYM    DATA     BIT       P
      000000DBH   SFRSYM    DATA     BYTE      TH3
      000000E3H   SFRSYM    DATA     BYTE      TH4
      0000008AH   SFRSYM    DATA     BYTE      TL0
      000000F0H.0 SFRSYM    DATA     BIT       B_0
      0000008BH   SFRSYM    DATA     BYTE      TL1
      000000F0H.1 SFRSYM    DATA     BIT       B_1
      00000098H.2 SFRSYM    DATA     BIT       U0RB8
      000000CCH   SFRSYM    DATA     BYTE      TL2
      000000F0H.2 SFRSYM    DATA     BIT       B_2
      000000B8H.4 SFRSYM    DATA     BIT       PS0
      000000DAH   SFRSYM    DATA     BYTE      TL3
      000000BFH   SFRSYM    DATA     BYTE      BUZCON
      000000F0H.3 SFRSYM    DATA     BIT       B_3
      000000B8H.1 SFRSYM    DATA     BIT       PT0
      000000B8H.6 SFRSYM    DATA     BIT       PS1
      00000098H.3 SFRSYM    DATA     BIT       U0TB8
      000000E2H   SFRSYM    DATA     BYTE      TL4
      000000F0H.4 SFRSYM    DATA     BIT       B_4
      000000D0H.3 SFRSYM    DATA     BIT       RS0
      000000B8H.3 SFRSYM    DATA     BIT       PT1
      000000F0H.5 SFRSYM    DATA     BIT       B_5
      000000D0H.4 SFRSYM    DATA     BIT       RS1
      000000B8H.5 SFRSYM    DATA     BIT       PT2
      00000098H.7 SFRSYM    DATA     BIT       U0SM0
      00000088H.4 SFRSYM    DATA     BIT       TR0
      000000BEH   SFRSYM    DATA     BYTE      BUZDIV
      000000F0H.6 SFRSYM    DATA     BIT       B_6
      000000E0H.0 SFRSYM    DATA     BIT       ACC_0
      00000098H.6 SFRSYM    DATA     BIT       U0SM1
LX51 LINKER/LOCATER V4.66.93.0                                                        06/27/2023  19:17:35  PAGE 87


      00000088H.6 SFRSYM    DATA     BIT       TR1
      000000F0H.7 SFRSYM    DATA     BIT       B_7
      000000E0H.1 SFRSYM    DATA     BIT       ACC_1
      000000B8H.0 SFRSYM    DATA     BIT       PX0
      00000098H.5 SFRSYM    DATA     BIT       U0SM2
      000000E0H.2 SFRSYM    DATA     BIT       ACC_2
      000000B8H.2 SFRSYM    DATA     BIT       PX1
      000000E0H.3 SFRSYM    DATA     BIT       ACC_3
      000000E0H.4 SFRSYM    DATA     BIT       ACC_4
      000000E0H.5 SFRSYM    DATA     BIT       ACC_5
      000000E0H.6 SFRSYM    DATA     BIT       ACC_6
      000000E0H.7 SFRSYM    DATA     BIT       ACC_7
      000000BDH   SFRSYM    DATA     BYTE      WUTCRH
      00000099H   SFRSYM    DATA     BYTE      SBUF0
      000000EBH   SFRSYM    DATA     BYTE      SBUF1
      000000BCH   SFRSYM    DATA     BYTE      WUTCRL
      00000098H   SFRSYM    DATA     BYTE      SCON0
      000000EAH   SFRSYM    DATA     BYTE      SCON1
      000000C8H   SFRSYM    DATA     BYTE      T2CON
      00000086H   SFRSYM    DATA     BYTE      DPS
      000000FEH   SFRSYM    DATA     BYTE      MDATA
      000000F6H   SFRSYM    DATA     BYTE      I2CMBUF
      000000F1H   SFRSYM    DATA     BYTE      I2CSADR
      00000098H.4 SFRSYM    DATA     BIT       U0REN
      000000C8H.5 SFRSYM    DATA     BIT       CAPES
      000000FDH   SFRSYM    DATA     BYTE      MADRH
      0000008EH   SFRSYM    DATA     BYTE      CKCON
      000000F3H   SFRSYM    DATA     BYTE      I2CSBUF
      000000FCH   SFRSYM    DATA     BYTE      MADRL
      000000D0H.5 SFRSYM    DATA     BIT       F0
      000000FBH   SFRSYM    DATA     BYTE      MLOCK
      000000D0H   SFRSYM    DATA     BYTE      PSW
      00000097H   SFRSYM    DATA     BYTE      WDCON
      00000007H   SYMBOL    DATA     BYTE      UARTn
      00000005H   SYMBOL    DATA     BYTE      UARTMode
      00000003H   SYMBOL    DATA     BYTE      UARTBaudTimer
      00000007H   SYMBOL    DATA     BYTE      UARTn
      00000007H   SYMBOL    DATA     BYTE      UARTn
      00000007H   SYMBOL    DATA     BYTE      UARTn
      00000007H   SYMBOL    DATA     BYTE      UARTn
      00000007H   SYMBOL    DATA     BYTE      UARTn
      00000007H   SYMBOL    DATA     BYTE      UARTn
      00000007H   SYMBOL    DATA     BYTE      UARTn
      00000007H   SYMBOL    DATA     BYTE      UARTn
      00000006H   SYMBOL    DATA     BYTE      uartFlag
      00000007H   SYMBOL    DATA     BYTE      UARTn
      00000006H   SYMBOL    DATA     BYTE      temp
      00000006H   SYMBOL    DATA     BYTE      UARTn
      00000005H   SYMBOL    DATA     BYTE      uartFlag
      00000007H   SYMBOL    DATA     BYTE      UARTn
      00000006H   SYMBOL    DATA     BYTE      temp
      00000007H   SYMBOL    DATA     BYTE      UARTn
      00000006H   SYMBOL    DATA     BYTE      uartbuf
      00000007H   SYMBOL    DATA     BYTE      UARTn
      00000005H   SYMBOL    DATA     BYTE      UARTSendValue
      00000007H   SYMBOL    DATA     BYTE      UARTn
      00000005H   SYMBOL    DATA     BYTE      UARTSendValue
      00000007H   SYMBOL    DATA     BYTE      UARTn
      00000006H   SYMBOL    DATA     BYTE      ninthbit
      00000007H   SYMBOL    DATA     BYTE      BRTClkDiv
      00000006H   SYMBOL    DATA     WORD      BRTPeriod

      ---         MODULE    ---      ---       WUT
      000000C8H.0 SFRSYM    DATA     BIT       T2I0
      000000C3H   SFRSYM    DATA     BYTE      CCH1
LX51 LINKER/LOCATER V4.66.93.0                                                        06/27/2023  19:17:35  PAGE 88


      00000080H   SFRSYM    DATA     BYTE      P0
      000000C8H.1 SFRSYM    DATA     BIT       T2I1
      000000C5H   SFRSYM    DATA     BYTE      CCH2
      00000090H   SFRSYM    DATA     BYTE      P1
      000000C7H   SFRSYM    DATA     BYTE      CCH3
      000000ACH   SFRSYM    DATA     BYTE      P0EXTIE
      000000A0H   SFRSYM    DATA     BYTE      P2
      000000B4H   SFRSYM    DATA     BYTE      P0EXTIF
      000000ADH   SFRSYM    DATA     BYTE      P1EXTIE
      000000D0H.6 SFRSYM    DATA     BIT       AC
      000000FFH   SFRSYM    DATA     BYTE      MCTRL
      000000C2H   SFRSYM    DATA     BYTE      CCL1
      000000B5H   SFRSYM    DATA     BYTE      P1EXTIF
      000000AEH   SFRSYM    DATA     BYTE      P2EXTIE
      000000D8H   SFRSYM    DATA     BYTE      P5
      000000C4H   SFRSYM    DATA     BYTE      CCL2
      000000B6H   SFRSYM    DATA     BYTE      P2EXTIF
      000000A8H.7 SFRSYM    DATA     BIT       EA
      000000C6H   SFRSYM    DATA     BYTE      CCL3
      000000AAH   SFRSYM    DATA     BYTE      EIE2
      000000B2H   SFRSYM    DATA     BYTE      EIF2
      0000009CH   SFRSYM    DATA     BYTE      P5EXTIE
      000000A7H   SFRSYM    DATA     BYTE      P5EXTIF
      000000C8H.3 SFRSYM    DATA     BIT       T2R0
      000000C8H.4 SFRSYM    DATA     BIT       T2R1
      00000083H   SFRSYM    DATA     BYTE      DPH0
      000000A8H   SFRSYM    DATA     BYTE      IE
      00000085H   SFRSYM    DATA     BYTE      DPH1
      00000080H.0 SFRSYM    DATA     BIT       P0_0
      000000B9H   SFRSYM    DATA     BYTE      EIP1
      00000090H.0 SFRSYM    DATA     BIT       P1_0
      00000080H.1 SFRSYM    DATA     BIT       P0_1
      000000BAH   SFRSYM    DATA     BYTE      EIP2
      00000082H   SFRSYM    DATA     BYTE      DPL0
      000000A0H.0 SFRSYM    DATA     BIT       P2_0
      00000090H.1 SFRSYM    DATA     BIT       P1_1
      00000080H.2 SFRSYM    DATA     BIT       P0_2
      000000BBH   SFRSYM    DATA     BYTE      EIP3
      00000084H   SFRSYM    DATA     BYTE      DPL1
      000000A0H.1 SFRSYM    DATA     BIT       P2_1
      00000090H.2 SFRSYM    DATA     BIT       P1_2
      00000080H.3 SFRSYM    DATA     BIT       P0_3
      000000A0H.2 SFRSYM    DATA     BIT       P2_2
      00000090H.3 SFRSYM    DATA     BIT       P1_3
      00000080H.4 SFRSYM    DATA     BIT       P0_4
      000000D8H.0 SFRSYM    DATA     BIT       P5_0
      000000C8H.6 SFRSYM    DATA     BIT       I3FR
      000000A0H.3 SFRSYM    DATA     BIT       P2_3
      00000090H.4 SFRSYM    DATA     BIT       P1_4
      00000080H.5 SFRSYM    DATA     BIT       P0_5
      000000CFH   SFRSYM    DATA     BYTE      T2IE
      00000096H   SFRSYM    DATA     BYTE      TA
      000000D8H.1 SFRSYM    DATA     BIT       P5_1
      000000A0H.4 SFRSYM    DATA     BIT       P2_4
      00000090H.5 SFRSYM    DATA     BIT       P1_5
      00000080H.6 SFRSYM    DATA     BIT       P0_6
      000000C9H   SFRSYM    DATA     BYTE      T2IF
      000000D8H.2 SFRSYM    DATA     BIT       P5_2
      000000C8H.2 SFRSYM    DATA     BIT       T2CM
      000000A0H.5 SFRSYM    DATA     BIT       P2_5
      00000090H.6 SFRSYM    DATA     BIT       P1_6
      00000080H.7 SFRSYM    DATA     BIT       P0_7
      000000DFH   SFRSYM    DATA     BYTE      ADCON0
      000000D8H.3 SFRSYM    DATA     BIT       P5_3
      000000A0H.6 SFRSYM    DATA     BIT       P2_6
LX51 LINKER/LOCATER V4.66.93.0                                                        06/27/2023  19:17:35  PAGE 89


      00000090H.7 SFRSYM    DATA     BIT       P1_7
      000000DEH   SFRSYM    DATA     BYTE      ADCON1
      000000D8H.4 SFRSYM    DATA     BIT       P5_4
      000000A0H.7 SFRSYM    DATA     BIT       P2_7
      000000E9H   SFRSYM    DATA     BYTE      ADCON2
      000000B8H   SFRSYM    DATA     BYTE      IP
      000000D8H.5 SFRSYM    DATA     BIT       P5_5
      000000CEH   SFRSYM    DATA     BYTE      CCEN
      000000D8H.6 SFRSYM    DATA     BIT       P5_6
      000000D8H.7 SFRSYM    DATA     BIT       P5_7
      000000D0H.7 SFRSYM    DATA     BIT       CY
      000000D2H   SFRSYM    DATA     BYTE      T34MOD
      000000F4H   SFRSYM    DATA     BYTE      I2CMSA
      000000D7H   SFRSYM    DATA     BYTE      SCKSTAU
      000000F5H   SFRSYM    DATA     BYTE      I2CMCR
      00000081H   SFRSYM    DATA     BYTE      SP
      000000D0H.2 SFRSYM    DATA     BIT       OV
      000000F2H   SFRSYM    DATA     BYTE      I2CSCR
      000000D9H   SFRSYM    DATA     BYTE      ADCCHS
      000000C8H.7 SFRSYM    DATA     BIT       T2PS
      000000D1H   SFRSYM    DATA     BYTE      ADCMPC
      000000CBH   SFRSYM    DATA     BYTE      RLDH
      000000D5H   SFRSYM    DATA     BYTE      ADCMPH
      000000CAH   SFRSYM    DATA     BYTE      RLDL
      00000080H.0 SFRSYM    DATA     BIT       P00
      00000090H.0 SFRSYM    DATA     BIT       P10
      00000080H.1 SFRSYM    DATA     BIT       P01
      000000F7H   SFRSYM    DATA     BYTE      I2CMTP
      00000087H   SFRSYM    DATA     BYTE      PCON
      000000A0H.0 SFRSYM    DATA     BIT       P20
      00000090H.1 SFRSYM    DATA     BIT       P11
      00000080H.2 SFRSYM    DATA     BIT       P02
      000000F5H   SFRSYM    DATA     BYTE      I2CMSR
      000000A0H.1 SFRSYM    DATA     BIT       P21
      00000090H.2 SFRSYM    DATA     BIT       P12
      00000080H.3 SFRSYM    DATA     BIT       P03
      000000D4H   SFRSYM    DATA     BYTE      ADCMPL
      000000A0H.2 SFRSYM    DATA     BIT       P22
      00000090H.3 SFRSYM    DATA     BIT       P13
      00000080H.4 SFRSYM    DATA     BIT       P04
      000000D8H.0 SFRSYM    DATA     BIT       P50
      000000A0H.3 SFRSYM    DATA     BIT       P23
      00000090H.4 SFRSYM    DATA     BIT       P14
      00000080H.5 SFRSYM    DATA     BIT       P05
      00000089H   SFRSYM    DATA     BYTE      TMOD
      00000088H   SFRSYM    DATA     BYTE      TCON
      000000D8H.1 SFRSYM    DATA     BIT       P51
      00000090H.5 SFRSYM    DATA     BIT       P15
      00000080H.6 SFRSYM    DATA     BIT       P06
      000000FAH   SFRSYM    DATA     BYTE      PCRCDH
      000000D8H.2 SFRSYM    DATA     BIT       P52
      00000090H.6 SFRSYM    DATA     BIT       P16
      00000080H.7 SFRSYM    DATA     BIT       P07
      000000D8H.3 SFRSYM    DATA     BIT       P53
      00000090H.7 SFRSYM    DATA     BIT       P17
      000000F2H   SFRSYM    DATA     BYTE      I2CSSR
      000000D8H.4 SFRSYM    DATA     BIT       P54
      000000ECH   SFRSYM    DATA     BYTE      SPCR
      000000DDH   SFRSYM    DATA     BYTE      ADRESH
      000000D8H.5 SFRSYM    DATA     BIT       P55
      000000F9H   SFRSYM    DATA     BYTE      PCRCDL
      000000EEH   SFRSYM    DATA     BYTE      SPDR
      000000EFH   SFRSYM    DATA     BYTE      SSCR
      000000D3H   SFRSYM    DATA     BYTE      ADDLYL
      000000DCH   SFRSYM    DATA     BYTE      ADRESL
LX51 LINKER/LOCATER V4.66.93.0                                                        06/27/2023  19:17:35  PAGE 90


      00000088H.1 SFRSYM    DATA     BIT       IE0
      00000088H.3 SFRSYM    DATA     BIT       IE1
      0000008FH   SFRSYM    DATA     BYTE      CLKDIV
      000000F0H   SFRSYM    DATA     BYTE      B
      00000091H   SFRSYM    DATA     BYTE      FUNCCR
      0000009AH   SFRSYM    DATA     BYTE      P0TRIS
      000000A1H   SFRSYM    DATA     BYTE      P1TRIS
      000000A2H   SFRSYM    DATA     BYTE      P2TRIS
      000000E0H   SFRSYM    DATA     BYTE      ACC
      000000D6H   SFRSYM    DATA     BYTE      SCKSEL
      000000A8H.4 SFRSYM    DATA     BIT       ES0
      000000A8H.1 SFRSYM    DATA     BIT       ET0
      000000A8H.6 SFRSYM    DATA     BIT       ES1
      000000EDH   SFRSYM    DATA     BYTE      SPSR
      000000A5H   SFRSYM    DATA     BYTE      P5TRIS
      000000A8H.3 SFRSYM    DATA     BIT       ET1
      00000088H.5 SFRSYM    DATA     BIT       TF0
      000000A8H.5 SFRSYM    DATA     BIT       ET2
      00000098H.0 SFRSYM    DATA     BIT       RI0
      00000088H.7 SFRSYM    DATA     BIT       TF1
      0000008CH   SFRSYM    DATA     BYTE      TH0
      000000A8H.0 SFRSYM    DATA     BIT       EX0
      00000098H.1 SFRSYM    DATA     BIT       TI0
      00000088H.0 SFRSYM    DATA     BIT       IT0
      0000008DH   SFRSYM    DATA     BYTE      TH1
      000000A8H.2 SFRSYM    DATA     BIT       EX1
      00000088H.2 SFRSYM    DATA     BIT       IT1
      000000CDH   SFRSYM    DATA     BYTE      TH2
      000000D0H.0 SFRSYM    DATA     BIT       P
      000000DBH   SFRSYM    DATA     BYTE      TH3
      000000E3H   SFRSYM    DATA     BYTE      TH4
      0000008AH   SFRSYM    DATA     BYTE      TL0
      000000F0H.0 SFRSYM    DATA     BIT       B_0
      0000008BH   SFRSYM    DATA     BYTE      TL1
      000000F0H.1 SFRSYM    DATA     BIT       B_1
      00000098H.2 SFRSYM    DATA     BIT       U0RB8
      000000CCH   SFRSYM    DATA     BYTE      TL2
      000000F0H.2 SFRSYM    DATA     BIT       B_2
      000000B8H.4 SFRSYM    DATA     BIT       PS0
      000000DAH   SFRSYM    DATA     BYTE      TL3
      000000BFH   SFRSYM    DATA     BYTE      BUZCON
      000000F0H.3 SFRSYM    DATA     BIT       B_3
      000000B8H.1 SFRSYM    DATA     BIT       PT0
      000000B8H.6 SFRSYM    DATA     BIT       PS1
      00000098H.3 SFRSYM    DATA     BIT       U0TB8
      000000E2H   SFRSYM    DATA     BYTE      TL4
      000000F0H.4 SFRSYM    DATA     BIT       B_4
      000000D0H.3 SFRSYM    DATA     BIT       RS0
      000000B8H.3 SFRSYM    DATA     BIT       PT1
      000000F0H.5 SFRSYM    DATA     BIT       B_5
      000000D0H.4 SFRSYM    DATA     BIT       RS1
      000000B8H.5 SFRSYM    DATA     BIT       PT2
      00000098H.7 SFRSYM    DATA     BIT       U0SM0
      00000088H.4 SFRSYM    DATA     BIT       TR0
      000000BEH   SFRSYM    DATA     BYTE      BUZDIV
      000000F0H.6 SFRSYM    DATA     BIT       B_6
      000000E0H.0 SFRSYM    DATA     BIT       ACC_0
      00000098H.6 SFRSYM    DATA     BIT       U0SM1
      00000088H.6 SFRSYM    DATA     BIT       TR1
      000000F0H.7 SFRSYM    DATA     BIT       B_7
      000000E0H.1 SFRSYM    DATA     BIT       ACC_1
      000000B8H.0 SFRSYM    DATA     BIT       PX0
      00000098H.5 SFRSYM    DATA     BIT       U0SM2
      000000E0H.2 SFRSYM    DATA     BIT       ACC_2
      000000B8H.2 SFRSYM    DATA     BIT       PX1
LX51 LINKER/LOCATER V4.66.93.0                                                        06/27/2023  19:17:35  PAGE 91


      000000E0H.3 SFRSYM    DATA     BIT       ACC_3
      000000E0H.4 SFRSYM    DATA     BIT       ACC_4
      000000E0H.5 SFRSYM    DATA     BIT       ACC_5
      000000E0H.6 SFRSYM    DATA     BIT       ACC_6
      000000E0H.7 SFRSYM    DATA     BIT       ACC_7
      000000BDH   SFRSYM    DATA     BYTE      WUTCRH
      00000099H   SFRSYM    DATA     BYTE      SBUF0
      000000EBH   SFRSYM    DATA     BYTE      SBUF1
      000000BCH   SFRSYM    DATA     BYTE      WUTCRL
      00000098H   SFRSYM    DATA     BYTE      SCON0
      000000EAH   SFRSYM    DATA     BYTE      SCON1
      000000C8H   SFRSYM    DATA     BYTE      T2CON
      00000086H   SFRSYM    DATA     BYTE      DPS
      000000FEH   SFRSYM    DATA     BYTE      MDATA
      000000F6H   SFRSYM    DATA     BYTE      I2CMBUF
      000000F1H   SFRSYM    DATA     BYTE      I2CSADR
      00000098H.4 SFRSYM    DATA     BIT       U0REN
      000000C8H.5 SFRSYM    DATA     BIT       CAPES
      000000FDH   SFRSYM    DATA     BYTE      MADRH
      0000008EH   SFRSYM    DATA     BYTE      CKCON
      000000F3H   SFRSYM    DATA     BYTE      I2CSBUF
      000000FCH   SFRSYM    DATA     BYTE      MADRL
      000000D0H.5 SFRSYM    DATA     BIT       F0
      000000FBH   SFRSYM    DATA     BYTE      MLOCK
      000000D0H   SFRSYM    DATA     BYTE      PSW
      00000097H   SFRSYM    DATA     BYTE      WDCON
      00000007H   SYMBOL    DATA     BYTE      clkdiv
      00000006H   SYMBOL    DATA     BYTE      temp
      00000004H   SYMBOL    DATA     WORD      time
      00000003H   SYMBOL    DATA     BYTE      temp

      ---         MODULE    ---      ---       CHECKTOUCHKEY_SET
      020000F8H   PUBLIC    XDATA    ---       g_CMS_RAM15
      020000F6H   PUBLIC    XDATA    ---       g_CMS_RAM14
      020000F4H   PUBLIC    XDATA    ---       g_CMS_RAM13
      020000F2H   PUBLIC    XDATA    ---       g_CMS_RAM12
      020000F0H   PUBLIC    XDATA    ---       g_CMS_RAM11
      020000EEH   PUBLIC    XDATA    ---       g_CMS_RAM10
      020000ECH   PUBLIC    XDATA    ---       g_CMS_RAM9
      020000EAH   PUBLIC    XDATA    ---       g_CMS_RAM8
      020000E8H   PUBLIC    XDATA    ---       g_CMS_RAM7
      020000E4H   PUBLIC    XDATA    ---       g_CMS_RAM6
      020000E0H   PUBLIC    XDATA    ---       g_CMS_RAM5
      020000DCH   PUBLIC    XDATA    ---       g_CMS_RAM4
      020000D8H   PUBLIC    XDATA    ---       g_CMS_RAM3
      020000D4H   PUBLIC    XDATA    ---       g_CMS_RAM2
      020000D0H   PUBLIC    XDATA    ---       g_CMS_RAM1
      020000CCH   PUBLIC    XDATA    ---       g_CMS_RAM0
      010030C7H   PUBLIC    CONST    BYTE      g__CMS_Key_Disp
      010030C6H   PUBLIC    CONST    BYTE      g__WaterMode
      010030C5H   PUBLIC    CONST    BYTE      g__Key_En1kres
      010030C4H   PUBLIC    CONST    BYTE      g__Key_LDOSel
      010030C3H   PUBLIC    CONST    BYTE      g__LMDValue
      010030C2H   PUBLIC    CONST    BYTE      g__UnNol_Times
      010030C1H   PUBLIC    CONST    BYTE      g__UnNol_Check
      010030C0H   PUBLIC    CONST    BYTE      g__KeyUNTime
      010030BCH   PUBLIC    CONST    DWORD     g__KeyValidTime
      010030BBH   PUBLIC    CONST    BYTE      g__KeyValidNumber
      010030BAH   PUBLIC    CONST    BYTE      g__CmBase
      010030B9H   PUBLIC    CONST    BYTE      g__SluValue
      010030B8H   PUBLIC    CONST    BYTE      g__VolValue
      010030B7H   PUBLIC    CONST    BYTE      g__KeyShakeCounter
      010030B6H   PUBLIC    CONST    BYTE      g__KeyTotalNumber
      010030B4H   PUBLIC    CONST    ---       Table_KeyCap
      010030B0H   PUBLIC    CONST    ---       Table_KeyDown
LX51 LINKER/LOCATER V4.66.93.0                                                        06/27/2023  19:17:35  PAGE 92


      010030AEH   PUBLIC    CONST    ---       Table_KeyChannel
      000000C8H.0 SFRSYM    DATA     BIT       T2I0
      000000C3H   SFRSYM    DATA     BYTE      CCH1
      00000080H   SFRSYM    DATA     BYTE      P0
      000000C8H.1 SFRSYM    DATA     BIT       T2I1
      000000C5H   SFRSYM    DATA     BYTE      CCH2
      00000090H   SFRSYM    DATA     BYTE      P1
      000000C7H   SFRSYM    DATA     BYTE      CCH3
      000000ACH   SFRSYM    DATA     BYTE      P0EXTIE
      000000A0H   SFRSYM    DATA     BYTE      P2
      000000B4H   SFRSYM    DATA     BYTE      P0EXTIF
      000000ADH   SFRSYM    DATA     BYTE      P1EXTIE
      000000D0H.6 SFRSYM    DATA     BIT       AC
      000000FFH   SFRSYM    DATA     BYTE      MCTRL
      000000C2H   SFRSYM    DATA     BYTE      CCL1
      000000B5H   SFRSYM    DATA     BYTE      P1EXTIF
      000000AEH   SFRSYM    DATA     BYTE      P2EXTIE
      000000D8H   SFRSYM    DATA     BYTE      P5
      000000C4H   SFRSYM    DATA     BYTE      CCL2
      000000B6H   SFRSYM    DATA     BYTE      P2EXTIF
      000000A8H.7 SFRSYM    DATA     BIT       EA
      000000C6H   SFRSYM    DATA     BYTE      CCL3
      000000AAH   SFRSYM    DATA     BYTE      EIE2
      000000B2H   SFRSYM    DATA     BYTE      EIF2
      0000009CH   SFRSYM    DATA     BYTE      P5EXTIE
      000000A7H   SFRSYM    DATA     BYTE      P5EXTIF
      000000C8H.3 SFRSYM    DATA     BIT       T2R0
      000000C8H.4 SFRSYM    DATA     BIT       T2R1
      00000083H   SFRSYM    DATA     BYTE      DPH0
      000000A8H   SFRSYM    DATA     BYTE      IE
      00000085H   SFRSYM    DATA     BYTE      DPH1
      00000080H.0 SFRSYM    DATA     BIT       P0_0
      000000B9H   SFRSYM    DATA     BYTE      EIP1
      00000090H.0 SFRSYM    DATA     BIT       P1_0
      00000080H.1 SFRSYM    DATA     BIT       P0_1
      000000BAH   SFRSYM    DATA     BYTE      EIP2
      00000082H   SFRSYM    DATA     BYTE      DPL0
      000000A0H.0 SFRSYM    DATA     BIT       P2_0
      00000090H.1 SFRSYM    DATA     BIT       P1_1
      00000080H.2 SFRSYM    DATA     BIT       P0_2
      000000BBH   SFRSYM    DATA     BYTE      EIP3
      00000084H   SFRSYM    DATA     BYTE      DPL1
      000000A0H.1 SFRSYM    DATA     BIT       P2_1
      00000090H.2 SFRSYM    DATA     BIT       P1_2
      00000080H.3 SFRSYM    DATA     BIT       P0_3
      000000A0H.2 SFRSYM    DATA     BIT       P2_2
      00000090H.3 SFRSYM    DATA     BIT       P1_3
      00000080H.4 SFRSYM    DATA     BIT       P0_4
      000000D8H.0 SFRSYM    DATA     BIT       P5_0
      000000C8H.6 SFRSYM    DATA     BIT       I3FR
      000000A0H.3 SFRSYM    DATA     BIT       P2_3
      00000090H.4 SFRSYM    DATA     BIT       P1_4
      00000080H.5 SFRSYM    DATA     BIT       P0_5
      000000CFH   SFRSYM    DATA     BYTE      T2IE
      00000096H   SFRSYM    DATA     BYTE      TA
      000000D8H.1 SFRSYM    DATA     BIT       P5_1
      000000A0H.4 SFRSYM    DATA     BIT       P2_4
      00000090H.5 SFRSYM    DATA     BIT       P1_5
      00000080H.6 SFRSYM    DATA     BIT       P0_6
      000000C9H   SFRSYM    DATA     BYTE      T2IF
      000000D8H.2 SFRSYM    DATA     BIT       P5_2
      000000C8H.2 SFRSYM    DATA     BIT       T2CM
      000000A0H.5 SFRSYM    DATA     BIT       P2_5
      00000090H.6 SFRSYM    DATA     BIT       P1_6
      00000080H.7 SFRSYM    DATA     BIT       P0_7
LX51 LINKER/LOCATER V4.66.93.0                                                        06/27/2023  19:17:35  PAGE 93


      000000DFH   SFRSYM    DATA     BYTE      ADCON0
      000000D8H.3 SFRSYM    DATA     BIT       P5_3
      000000A0H.6 SFRSYM    DATA     BIT       P2_6
      00000090H.7 SFRSYM    DATA     BIT       P1_7
      000000DEH   SFRSYM    DATA     BYTE      ADCON1
      000000D8H.4 SFRSYM    DATA     BIT       P5_4
      000000A0H.7 SFRSYM    DATA     BIT       P2_7
      000000E9H   SFRSYM    DATA     BYTE      ADCON2
      000000B8H   SFRSYM    DATA     BYTE      IP
      000000D8H.5 SFRSYM    DATA     BIT       P5_5
      000000CEH   SFRSYM    DATA     BYTE      CCEN
      000000D8H.6 SFRSYM    DATA     BIT       P5_6
      000000D8H.7 SFRSYM    DATA     BIT       P5_7
      000000D0H.7 SFRSYM    DATA     BIT       CY
      000000D2H   SFRSYM    DATA     BYTE      T34MOD
      000000F4H   SFRSYM    DATA     BYTE      I2CMSA
      000000D7H   SFRSYM    DATA     BYTE      SCKSTAU
      000000F5H   SFRSYM    DATA     BYTE      I2CMCR
      00000081H   SFRSYM    DATA     BYTE      SP
      000000D0H.2 SFRSYM    DATA     BIT       OV
      000000F2H   SFRSYM    DATA     BYTE      I2CSCR
      000000D9H   SFRSYM    DATA     BYTE      ADCCHS
      000000C8H.7 SFRSYM    DATA     BIT       T2PS
      000000D1H   SFRSYM    DATA     BYTE      ADCMPC
      000000CBH   SFRSYM    DATA     BYTE      RLDH
      000000D5H   SFRSYM    DATA     BYTE      ADCMPH
      000000CAH   SFRSYM    DATA     BYTE      RLDL
      00000080H.0 SFRSYM    DATA     BIT       P00
      00000090H.0 SFRSYM    DATA     BIT       P10
      00000080H.1 SFRSYM    DATA     BIT       P01
      000000F7H   SFRSYM    DATA     BYTE      I2CMTP
      00000087H   SFRSYM    DATA     BYTE      PCON
      000000A0H.0 SFRSYM    DATA     BIT       P20
      00000090H.1 SFRSYM    DATA     BIT       P11
      00000080H.2 SFRSYM    DATA     BIT       P02
      000000F5H   SFRSYM    DATA     BYTE      I2CMSR
      000000A0H.1 SFRSYM    DATA     BIT       P21
      00000090H.2 SFRSYM    DATA     BIT       P12
      00000080H.3 SFRSYM    DATA     BIT       P03
      000000D4H   SFRSYM    DATA     BYTE      ADCMPL
      000000A0H.2 SFRSYM    DATA     BIT       P22
      00000090H.3 SFRSYM    DATA     BIT       P13
      00000080H.4 SFRSYM    DATA     BIT       P04
      000000D8H.0 SFRSYM    DATA     BIT       P50
      000000A0H.3 SFRSYM    DATA     BIT       P23
      00000090H.4 SFRSYM    DATA     BIT       P14
      00000080H.5 SFRSYM    DATA     BIT       P05
      00000089H   SFRSYM    DATA     BYTE      TMOD
      00000088H   SFRSYM    DATA     BYTE      TCON
      000000D8H.1 SFRSYM    DATA     BIT       P51
      00000090H.5 SFRSYM    DATA     BIT       P15
      00000080H.6 SFRSYM    DATA     BIT       P06
      000000FAH   SFRSYM    DATA     BYTE      PCRCDH
      000000D8H.2 SFRSYM    DATA     BIT       P52
      00000090H.6 SFRSYM    DATA     BIT       P16
      00000080H.7 SFRSYM    DATA     BIT       P07
      000000D8H.3 SFRSYM    DATA     BIT       P53
      00000090H.7 SFRSYM    DATA     BIT       P17
      000000F2H   SFRSYM    DATA     BYTE      I2CSSR
      000000D8H.4 SFRSYM    DATA     BIT       P54
      000000ECH   SFRSYM    DATA     BYTE      SPCR
      000000DDH   SFRSYM    DATA     BYTE      ADRESH
      000000D8H.5 SFRSYM    DATA     BIT       P55
      000000F9H   SFRSYM    DATA     BYTE      PCRCDL
      000000EEH   SFRSYM    DATA     BYTE      SPDR
LX51 LINKER/LOCATER V4.66.93.0                                                        06/27/2023  19:17:35  PAGE 94


      000000EFH   SFRSYM    DATA     BYTE      SSCR
      000000D3H   SFRSYM    DATA     BYTE      ADDLYL
      000000DCH   SFRSYM    DATA     BYTE      ADRESL
      00000088H.1 SFRSYM    DATA     BIT       IE0
      00000088H.3 SFRSYM    DATA     BIT       IE1
      0000008FH   SFRSYM    DATA     BYTE      CLKDIV
      000000F0H   SFRSYM    DATA     BYTE      B
      00000091H   SFRSYM    DATA     BYTE      FUNCCR
      0000009AH   SFRSYM    DATA     BYTE      P0TRIS
      000000A1H   SFRSYM    DATA     BYTE      P1TRIS
      000000A2H   SFRSYM    DATA     BYTE      P2TRIS
      000000E0H   SFRSYM    DATA     BYTE      ACC
      000000D6H   SFRSYM    DATA     BYTE      SCKSEL
      000000A8H.4 SFRSYM    DATA     BIT       ES0
      000000A8H.1 SFRSYM    DATA     BIT       ET0
      000000A8H.6 SFRSYM    DATA     BIT       ES1
      000000EDH   SFRSYM    DATA     BYTE      SPSR
      000000A5H   SFRSYM    DATA     BYTE      P5TRIS
      000000A8H.3 SFRSYM    DATA     BIT       ET1
      00000088H.5 SFRSYM    DATA     BIT       TF0
      000000A8H.5 SFRSYM    DATA     BIT       ET2
      00000098H.0 SFRSYM    DATA     BIT       RI0
      00000088H.7 SFRSYM    DATA     BIT       TF1
      0000008CH   SFRSYM    DATA     BYTE      TH0
      000000A8H.0 SFRSYM    DATA     BIT       EX0
      00000098H.1 SFRSYM    DATA     BIT       TI0
      00000088H.0 SFRSYM    DATA     BIT       IT0
      0000008DH   SFRSYM    DATA     BYTE      TH1
      000000A8H.2 SFRSYM    DATA     BIT       EX1
      00000088H.2 SFRSYM    DATA     BIT       IT1
      000000CDH   SFRSYM    DATA     BYTE      TH2
      000000D0H.0 SFRSYM    DATA     BIT       P
      000000DBH   SFRSYM    DATA     BYTE      TH3
      000000E3H   SFRSYM    DATA     BYTE      TH4
      0000008AH   SFRSYM    DATA     BYTE      TL0
      000000F0H.0 SFRSYM    DATA     BIT       B_0
      0000008BH   SFRSYM    DATA     BYTE      TL1
      000000F0H.1 SFRSYM    DATA     BIT       B_1
      00000098H.2 SFRSYM    DATA     BIT       U0RB8
      000000CCH   SFRSYM    DATA     BYTE      TL2
      000000F0H.2 SFRSYM    DATA     BIT       B_2
      000000B8H.4 SFRSYM    DATA     BIT       PS0
      000000DAH   SFRSYM    DATA     BYTE      TL3
      000000BFH   SFRSYM    DATA     BYTE      BUZCON
      000000F0H.3 SFRSYM    DATA     BIT       B_3
      000000B8H.1 SFRSYM    DATA     BIT       PT0
      000000B8H.6 SFRSYM    DATA     BIT       PS1
      00000098H.3 SFRSYM    DATA     BIT       U0TB8
      000000E2H   SFRSYM    DATA     BYTE      TL4
      000000F0H.4 SFRSYM    DATA     BIT       B_4
      000000D0H.3 SFRSYM    DATA     BIT       RS0
      000000B8H.3 SFRSYM    DATA     BIT       PT1
      000000F0H.5 SFRSYM    DATA     BIT       B_5
      000000D0H.4 SFRSYM    DATA     BIT       RS1
      000000B8H.5 SFRSYM    DATA     BIT       PT2
      00000098H.7 SFRSYM    DATA     BIT       U0SM0
      00000088H.4 SFRSYM    DATA     BIT       TR0
      000000BEH   SFRSYM    DATA     BYTE      BUZDIV
      000000F0H.6 SFRSYM    DATA     BIT       B_6
      000000E0H.0 SFRSYM    DATA     BIT       ACC_0
      00000098H.6 SFRSYM    DATA     BIT       U0SM1
      00000088H.6 SFRSYM    DATA     BIT       TR1
      000000F0H.7 SFRSYM    DATA     BIT       B_7
      000000E0H.1 SFRSYM    DATA     BIT       ACC_1
      000000B8H.0 SFRSYM    DATA     BIT       PX0
LX51 LINKER/LOCATER V4.66.93.0                                                        06/27/2023  19:17:35  PAGE 95


      00000098H.5 SFRSYM    DATA     BIT       U0SM2
      000000E0H.2 SFRSYM    DATA     BIT       ACC_2
      000000B8H.2 SFRSYM    DATA     BIT       PX1
      000000E0H.3 SFRSYM    DATA     BIT       ACC_3
      000000E0H.4 SFRSYM    DATA     BIT       ACC_4
      000000E0H.5 SFRSYM    DATA     BIT       ACC_5
      000000E0H.6 SFRSYM    DATA     BIT       ACC_6
      000000E0H.7 SFRSYM    DATA     BIT       ACC_7
      000000BDH   SFRSYM    DATA     BYTE      WUTCRH
      00000099H   SFRSYM    DATA     BYTE      SBUF0
      000000EBH   SFRSYM    DATA     BYTE      SBUF1
      000000BCH   SFRSYM    DATA     BYTE      WUTCRL
      00000098H   SFRSYM    DATA     BYTE      SCON0
      000000EAH   SFRSYM    DATA     BYTE      SCON1
      000000C8H   SFRSYM    DATA     BYTE      T2CON
      00000086H   SFRSYM    DATA     BYTE      DPS
      000000FEH   SFRSYM    DATA     BYTE      MDATA
      000000F6H   SFRSYM    DATA     BYTE      I2CMBUF
      000000F1H   SFRSYM    DATA     BYTE      I2CSADR
      00000098H.4 SFRSYM    DATA     BIT       U0REN
      000000C8H.5 SFRSYM    DATA     BIT       CAPES
      000000FDH   SFRSYM    DATA     BYTE      MADRH
      0000008EH   SFRSYM    DATA     BYTE      CKCON
      000000F3H   SFRSYM    DATA     BYTE      I2CSBUF
      000000FCH   SFRSYM    DATA     BYTE      MADRL
      000000D0H.5 SFRSYM    DATA     BIT       F0
      000000FBH   SFRSYM    DATA     BYTE      MLOCK
      000000D0H   SFRSYM    DATA     BYTE      PSW
      00000097H   SFRSYM    DATA     BYTE      WDCON

      ---         MODULE    ---      ---       REL_PROTOCOL
      000000C8H.0 SFRSYM    DATA     BIT       T2I0
      000000C3H   SFRSYM    DATA     BYTE      CCH1
      00000080H   SFRSYM    DATA     BYTE      P0
      000000C8H.1 SFRSYM    DATA     BIT       T2I1
      000000C5H   SFRSYM    DATA     BYTE      CCH2
      00000090H   SFRSYM    DATA     BYTE      P1
      000000C7H   SFRSYM    DATA     BYTE      CCH3
      000000ACH   SFRSYM    DATA     BYTE      P0EXTIE
      000000A0H   SFRSYM    DATA     BYTE      P2
      000000B4H   SFRSYM    DATA     BYTE      P0EXTIF
      000000ADH   SFRSYM    DATA     BYTE      P1EXTIE
      000000D0H.6 SFRSYM    DATA     BIT       AC
      000000FFH   SFRSYM    DATA     BYTE      MCTRL
      000000C2H   SFRSYM    DATA     BYTE      CCL1
      000000B5H   SFRSYM    DATA     BYTE      P1EXTIF
      000000AEH   SFRSYM    DATA     BYTE      P2EXTIE
      000000D8H   SFRSYM    DATA     BYTE      P5
      000000C4H   SFRSYM    DATA     BYTE      CCL2
      000000B6H   SFRSYM    DATA     BYTE      P2EXTIF
      000000A8H.7 SFRSYM    DATA     BIT       EA
      000000C6H   SFRSYM    DATA     BYTE      CCL3
      000000AAH   SFRSYM    DATA     BYTE      EIE2
      000000B2H   SFRSYM    DATA     BYTE      EIF2
      0000009CH   SFRSYM    DATA     BYTE      P5EXTIE
      000000A7H   SFRSYM    DATA     BYTE      P5EXTIF
      000000C8H.3 SFRSYM    DATA     BIT       T2R0
      000000C8H.4 SFRSYM    DATA     BIT       T2R1
      00000083H   SFRSYM    DATA     BYTE      DPH0
      000000A8H   SFRSYM    DATA     BYTE      IE
      00000085H   SFRSYM    DATA     BYTE      DPH1
      00000080H.0 SFRSYM    DATA     BIT       P0_0
      000000B9H   SFRSYM    DATA     BYTE      EIP1
      00000090H.0 SFRSYM    DATA     BIT       P1_0
      00000080H.1 SFRSYM    DATA     BIT       P0_1
LX51 LINKER/LOCATER V4.66.93.0                                                        06/27/2023  19:17:35  PAGE 96


      000000BAH   SFRSYM    DATA     BYTE      EIP2
      00000082H   SFRSYM    DATA     BYTE      DPL0
      000000A0H.0 SFRSYM    DATA     BIT       P2_0
      00000090H.1 SFRSYM    DATA     BIT       P1_1
      00000080H.2 SFRSYM    DATA     BIT       P0_2
      000000BBH   SFRSYM    DATA     BYTE      EIP3
      00000084H   SFRSYM    DATA     BYTE      DPL1
      000000A0H.1 SFRSYM    DATA     BIT       P2_1
      00000090H.2 SFRSYM    DATA     BIT       P1_2
      00000080H.3 SFRSYM    DATA     BIT       P0_3
      000000A0H.2 SFRSYM    DATA     BIT       P2_2
      00000090H.3 SFRSYM    DATA     BIT       P1_3
      00000080H.4 SFRSYM    DATA     BIT       P0_4
      000000D8H.0 SFRSYM    DATA     BIT       P5_0
      000000C8H.6 SFRSYM    DATA     BIT       I3FR
      000000A0H.3 SFRSYM    DATA     BIT       P2_3
      00000090H.4 SFRSYM    DATA     BIT       P1_4
      00000080H.5 SFRSYM    DATA     BIT       P0_5
      000000CFH   SFRSYM    DATA     BYTE      T2IE
      00000096H   SFRSYM    DATA     BYTE      TA
      000000D8H.1 SFRSYM    DATA     BIT       P5_1
      000000A0H.4 SFRSYM    DATA     BIT       P2_4
      00000090H.5 SFRSYM    DATA     BIT       P1_5
      00000080H.6 SFRSYM    DATA     BIT       P0_6
      000000C9H   SFRSYM    DATA     BYTE      T2IF
      000000D8H.2 SFRSYM    DATA     BIT       P5_2
      000000C8H.2 SFRSYM    DATA     BIT       T2CM
      000000A0H.5 SFRSYM    DATA     BIT       P2_5
      00000090H.6 SFRSYM    DATA     BIT       P1_6
      00000080H.7 SFRSYM    DATA     BIT       P0_7
      000000DFH   SFRSYM    DATA     BYTE      ADCON0
      000000D8H.3 SFRSYM    DATA     BIT       P5_3
      000000A0H.6 SFRSYM    DATA     BIT       P2_6
      00000090H.7 SFRSYM    DATA     BIT       P1_7
      000000DEH   SFRSYM    DATA     BYTE      ADCON1
      000000D8H.4 SFRSYM    DATA     BIT       P5_4
      000000A0H.7 SFRSYM    DATA     BIT       P2_7
      000000E9H   SFRSYM    DATA     BYTE      ADCON2
      000000B8H   SFRSYM    DATA     BYTE      IP
      000000D8H.5 SFRSYM    DATA     BIT       P5_5
      000000CEH   SFRSYM    DATA     BYTE      CCEN
      000000D8H.6 SFRSYM    DATA     BIT       P5_6
      000000D8H.7 SFRSYM    DATA     BIT       P5_7
      000000D0H.7 SFRSYM    DATA     BIT       CY
      000000D2H   SFRSYM    DATA     BYTE      T34MOD
      000000F4H   SFRSYM    DATA     BYTE      I2CMSA
      000000D7H   SFRSYM    DATA     BYTE      SCKSTAU
      000000F5H   SFRSYM    DATA     BYTE      I2CMCR
      00000081H   SFRSYM    DATA     BYTE      SP
      000000D0H.2 SFRSYM    DATA     BIT       OV
      000000F2H   SFRSYM    DATA     BYTE      I2CSCR
      000000D9H   SFRSYM    DATA     BYTE      ADCCHS
      000000C8H.7 SFRSYM    DATA     BIT       T2PS
      000000D1H   SFRSYM    DATA     BYTE      ADCMPC
      000000CBH   SFRSYM    DATA     BYTE      RLDH
      000000D5H   SFRSYM    DATA     BYTE      ADCMPH
      000000CAH   SFRSYM    DATA     BYTE      RLDL
      00000080H.0 SFRSYM    DATA     BIT       P00
      00000090H.0 SFRSYM    DATA     BIT       P10
      00000080H.1 SFRSYM    DATA     BIT       P01
      000000F7H   SFRSYM    DATA     BYTE      I2CMTP
      00000087H   SFRSYM    DATA     BYTE      PCON
      000000A0H.0 SFRSYM    DATA     BIT       P20
      00000090H.1 SFRSYM    DATA     BIT       P11
      00000080H.2 SFRSYM    DATA     BIT       P02
LX51 LINKER/LOCATER V4.66.93.0                                                        06/27/2023  19:17:35  PAGE 97


      000000F5H   SFRSYM    DATA     BYTE      I2CMSR
      000000A0H.1 SFRSYM    DATA     BIT       P21
      00000090H.2 SFRSYM    DATA     BIT       P12
      00000080H.3 SFRSYM    DATA     BIT       P03
      000000D4H   SFRSYM    DATA     BYTE      ADCMPL
      000000A0H.2 SFRSYM    DATA     BIT       P22
      00000090H.3 SFRSYM    DATA     BIT       P13
      00000080H.4 SFRSYM    DATA     BIT       P04
      000000D8H.0 SFRSYM    DATA     BIT       P50
      000000A0H.3 SFRSYM    DATA     BIT       P23
      00000090H.4 SFRSYM    DATA     BIT       P14
      00000080H.5 SFRSYM    DATA     BIT       P05
      00000089H   SFRSYM    DATA     BYTE      TMOD
      00000088H   SFRSYM    DATA     BYTE      TCON
      000000D8H.1 SFRSYM    DATA     BIT       P51
      00000090H.5 SFRSYM    DATA     BIT       P15
      00000080H.6 SFRSYM    DATA     BIT       P06
      000000FAH   SFRSYM    DATA     BYTE      PCRCDH
      000000D8H.2 SFRSYM    DATA     BIT       P52
      00000090H.6 SFRSYM    DATA     BIT       P16
      00000080H.7 SFRSYM    DATA     BIT       P07
      000000D8H.3 SFRSYM    DATA     BIT       P53
      00000090H.7 SFRSYM    DATA     BIT       P17
      000000F2H   SFRSYM    DATA     BYTE      I2CSSR
      000000D8H.4 SFRSYM    DATA     BIT       P54
      000000ECH   SFRSYM    DATA     BYTE      SPCR
      000000DDH   SFRSYM    DATA     BYTE      ADRESH
      000000D8H.5 SFRSYM    DATA     BIT       P55
      000000F9H   SFRSYM    DATA     BYTE      PCRCDL
      000000EEH   SFRSYM    DATA     BYTE      SPDR
      000000EFH   SFRSYM    DATA     BYTE      SSCR
      000000D3H   SFRSYM    DATA     BYTE      ADDLYL
      000000DCH   SFRSYM    DATA     BYTE      ADRESL
      00000088H.1 SFRSYM    DATA     BIT       IE0
      00000088H.3 SFRSYM    DATA     BIT       IE1
      0000008FH   SFRSYM    DATA     BYTE      CLKDIV
      000000F0H   SFRSYM    DATA     BYTE      B
      00000091H   SFRSYM    DATA     BYTE      FUNCCR
      0000009AH   SFRSYM    DATA     BYTE      P0TRIS
      000000A1H   SFRSYM    DATA     BYTE      P1TRIS
      000000A2H   SFRSYM    DATA     BYTE      P2TRIS
      000000E0H   SFRSYM    DATA     BYTE      ACC
      000000D6H   SFRSYM    DATA     BYTE      SCKSEL
      000000A8H.4 SFRSYM    DATA     BIT       ES0
      000000A8H.1 SFRSYM    DATA     BIT       ET0
      000000A8H.6 SFRSYM    DATA     BIT       ES1
      000000EDH   SFRSYM    DATA     BYTE      SPSR
      000000A5H   SFRSYM    DATA     BYTE      P5TRIS
      000000A8H.3 SFRSYM    DATA     BIT       ET1
      00000088H.5 SFRSYM    DATA     BIT       TF0
      000000A8H.5 SFRSYM    DATA     BIT       ET2
      00000098H.0 SFRSYM    DATA     BIT       RI0
      00000088H.7 SFRSYM    DATA     BIT       TF1
      0000008CH   SFRSYM    DATA     BYTE      TH0
      000000A8H.0 SFRSYM    DATA     BIT       EX0
      00000098H.1 SFRSYM    DATA     BIT       TI0
      00000088H.0 SFRSYM    DATA     BIT       IT0
      0000008DH   SFRSYM    DATA     BYTE      TH1
      000000A8H.2 SFRSYM    DATA     BIT       EX1
      00000088H.2 SFRSYM    DATA     BIT       IT1
      000000CDH   SFRSYM    DATA     BYTE      TH2
      000000D0H.0 SFRSYM    DATA     BIT       P
      000000DBH   SFRSYM    DATA     BYTE      TH3
      000000E3H   SFRSYM    DATA     BYTE      TH4
      0000008AH   SFRSYM    DATA     BYTE      TL0
LX51 LINKER/LOCATER V4.66.93.0                                                        06/27/2023  19:17:35  PAGE 98


      000000F0H.0 SFRSYM    DATA     BIT       B_0
      0000008BH   SFRSYM    DATA     BYTE      TL1
      000000F0H.1 SFRSYM    DATA     BIT       B_1
      00000098H.2 SFRSYM    DATA     BIT       U0RB8
      000000CCH   SFRSYM    DATA     BYTE      TL2
      000000F0H.2 SFRSYM    DATA     BIT       B_2
      000000B8H.4 SFRSYM    DATA     BIT       PS0
      000000DAH   SFRSYM    DATA     BYTE      TL3
      000000BFH   SFRSYM    DATA     BYTE      BUZCON
      000000F0H.3 SFRSYM    DATA     BIT       B_3
      000000B8H.1 SFRSYM    DATA     BIT       PT0
      000000B8H.6 SFRSYM    DATA     BIT       PS1
      00000098H.3 SFRSYM    DATA     BIT       U0TB8
      000000E2H   SFRSYM    DATA     BYTE      TL4
      000000F0H.4 SFRSYM    DATA     BIT       B_4
      000000D0H.3 SFRSYM    DATA     BIT       RS0
      000000B8H.3 SFRSYM    DATA     BIT       PT1
      000000F0H.5 SFRSYM    DATA     BIT       B_5
      000000D0H.4 SFRSYM    DATA     BIT       RS1
      000000B8H.5 SFRSYM    DATA     BIT       PT2
      00000098H.7 SFRSYM    DATA     BIT       U0SM0
      00000088H.4 SFRSYM    DATA     BIT       TR0
      000000BEH   SFRSYM    DATA     BYTE      BUZDIV
      000000F0H.6 SFRSYM    DATA     BIT       B_6
      000000E0H.0 SFRSYM    DATA     BIT       ACC_0
      00000098H.6 SFRSYM    DATA     BIT       U0SM1
      00000088H.6 SFRSYM    DATA     BIT       TR1
      000000F0H.7 SFRSYM    DATA     BIT       B_7
      000000E0H.1 SFRSYM    DATA     BIT       ACC_1
      000000B8H.0 SFRSYM    DATA     BIT       PX0
      00000098H.5 SFRSYM    DATA     BIT       U0SM2
      000000E0H.2 SFRSYM    DATA     BIT       ACC_2
      000000B8H.2 SFRSYM    DATA     BIT       PX1
      000000E0H.3 SFRSYM    DATA     BIT       ACC_3
      000000E0H.4 SFRSYM    DATA     BIT       ACC_4
      000000E0H.5 SFRSYM    DATA     BIT       ACC_5
      000000E0H.6 SFRSYM    DATA     BIT       ACC_6
      000000E0H.7 SFRSYM    DATA     BIT       ACC_7
      000000BDH   SFRSYM    DATA     BYTE      WUTCRH
      00000099H   SFRSYM    DATA     BYTE      SBUF0
      000000EBH   SFRSYM    DATA     BYTE      SBUF1
      000000BCH   SFRSYM    DATA     BYTE      WUTCRL
      00000098H   SFRSYM    DATA     BYTE      SCON0
      000000EAH   SFRSYM    DATA     BYTE      SCON1
      000000C8H   SFRSYM    DATA     BYTE      T2CON
      00000086H   SFRSYM    DATA     BYTE      DPS
      000000FEH   SFRSYM    DATA     BYTE      MDATA
      000000F6H   SFRSYM    DATA     BYTE      I2CMBUF
      000000F1H   SFRSYM    DATA     BYTE      I2CSADR
      00000098H.4 SFRSYM    DATA     BIT       U0REN
      000000C8H.5 SFRSYM    DATA     BIT       CAPES
      000000FDH   SFRSYM    DATA     BYTE      MADRH
      0000008EH   SFRSYM    DATA     BYTE      CKCON
      000000F3H   SFRSYM    DATA     BYTE      I2CSBUF
      000000FCH   SFRSYM    DATA     BYTE      MADRL
      000000D0H.5 SFRSYM    DATA     BIT       F0
      000000FBH   SFRSYM    DATA     BYTE      MLOCK
      000000D0H   SFRSYM    DATA     BYTE      PSW
      00000097H   SFRSYM    DATA     BYTE      WDCON
      00000044H   SYMBOL    DATA     BYTE      curIdx
      00000045H   SYMBOL    DATA     BYTE      packIdx
      00000007H   SYMBOL    DATA     BYTE      thisSendCount

      ---         MODULE    ---      ---       SYSTIME
      00000036H   PUBLIC    DATA     DWORD     sysTotalTick
LX51 LINKER/LOCATER V4.66.93.0                                                        06/27/2023  19:17:35  PAGE 99


      00000020H.6 PUBLIC    BIT      BIT       bTime500ms
      00000020H.5 PUBLIC    BIT      BIT       bTime200ms
      00000020H.4 PUBLIC    BIT      BIT       bTime100ms
      00000020H.3 PUBLIC    BIT      BIT       bTime10ms
      00000020H.2 PUBLIC    BIT      BIT       bTime1s
      00000020H.1 PUBLIC    BIT      BIT       bTime5ms
      00000020H.0 PUBLIC    BIT      BIT       bTime1ms
      01001E07H   PUBLIC    CODE     ---       Timer0_IRQHandler
      0100265EH   PUBLIC    CODE     ---       SysTime_Config
      000000C8H.0 SFRSYM    DATA     BIT       T2I0
      000000C3H   SFRSYM    DATA     BYTE      CCH1
      00000080H   SFRSYM    DATA     BYTE      P0
      000000C8H.1 SFRSYM    DATA     BIT       T2I1
      000000C5H   SFRSYM    DATA     BYTE      CCH2
      00000090H   SFRSYM    DATA     BYTE      P1
      000000C7H   SFRSYM    DATA     BYTE      CCH3
      000000ACH   SFRSYM    DATA     BYTE      P0EXTIE
      000000A0H   SFRSYM    DATA     BYTE      P2
      000000B4H   SFRSYM    DATA     BYTE      P0EXTIF
      000000ADH   SFRSYM    DATA     BYTE      P1EXTIE
      000000D0H.6 SFRSYM    DATA     BIT       AC
      000000FFH   SFRSYM    DATA     BYTE      MCTRL
      000000C2H   SFRSYM    DATA     BYTE      CCL1
      000000B5H   SFRSYM    DATA     BYTE      P1EXTIF
      000000AEH   SFRSYM    DATA     BYTE      P2EXTIE
      000000D8H   SFRSYM    DATA     BYTE      P5
      000000C4H   SFRSYM    DATA     BYTE      CCL2
      000000B6H   SFRSYM    DATA     BYTE      P2EXTIF
      000000A8H.7 SFRSYM    DATA     BIT       EA
      000000C6H   SFRSYM    DATA     BYTE      CCL3
      000000AAH   SFRSYM    DATA     BYTE      EIE2
      000000B2H   SFRSYM    DATA     BYTE      EIF2
      0000009CH   SFRSYM    DATA     BYTE      P5EXTIE
      000000A7H   SFRSYM    DATA     BYTE      P5EXTIF
      000000C8H.3 SFRSYM    DATA     BIT       T2R0
      000000C8H.4 SFRSYM    DATA     BIT       T2R1
      00000083H   SFRSYM    DATA     BYTE      DPH0
      000000A8H   SFRSYM    DATA     BYTE      IE
      00000085H   SFRSYM    DATA     BYTE      DPH1
      00000080H.0 SFRSYM    DATA     BIT       P0_0
      000000B9H   SFRSYM    DATA     BYTE      EIP1
      00000090H.0 SFRSYM    DATA     BIT       P1_0
      00000080H.1 SFRSYM    DATA     BIT       P0_1
      000000BAH   SFRSYM    DATA     BYTE      EIP2
      00000082H   SFRSYM    DATA     BYTE      DPL0
      000000A0H.0 SFRSYM    DATA     BIT       P2_0
      00000090H.1 SFRSYM    DATA     BIT       P1_1
      00000080H.2 SFRSYM    DATA     BIT       P0_2
      000000BBH   SFRSYM    DATA     BYTE      EIP3
      00000084H   SFRSYM    DATA     BYTE      DPL1
      000000A0H.1 SFRSYM    DATA     BIT       P2_1
      00000090H.2 SFRSYM    DATA     BIT       P1_2
      00000080H.3 SFRSYM    DATA     BIT       P0_3
      000000A0H.2 SFRSYM    DATA     BIT       P2_2
      00000090H.3 SFRSYM    DATA     BIT       P1_3
      00000080H.4 SFRSYM    DATA     BIT       P0_4
      000000D8H.0 SFRSYM    DATA     BIT       P5_0
      000000C8H.6 SFRSYM    DATA     BIT       I3FR
      000000A0H.3 SFRSYM    DATA     BIT       P2_3
      00000090H.4 SFRSYM    DATA     BIT       P1_4
      00000080H.5 SFRSYM    DATA     BIT       P0_5
      000000CFH   SFRSYM    DATA     BYTE      T2IE
      00000096H   SFRSYM    DATA     BYTE      TA
      000000D8H.1 SFRSYM    DATA     BIT       P5_1
      000000A0H.4 SFRSYM    DATA     BIT       P2_4
LX51 LINKER/LOCATER V4.66.93.0                                                        06/27/2023  19:17:35  PAGE 100


      00000090H.5 SFRSYM    DATA     BIT       P1_5
      00000080H.6 SFRSYM    DATA     BIT       P0_6
      000000C9H   SFRSYM    DATA     BYTE      T2IF
      000000D8H.2 SFRSYM    DATA     BIT       P5_2
      000000C8H.2 SFRSYM    DATA     BIT       T2CM
      000000A0H.5 SFRSYM    DATA     BIT       P2_5
      00000090H.6 SFRSYM    DATA     BIT       P1_6
      00000080H.7 SFRSYM    DATA     BIT       P0_7
      000000DFH   SFRSYM    DATA     BYTE      ADCON0
      000000D8H.3 SFRSYM    DATA     BIT       P5_3
      000000A0H.6 SFRSYM    DATA     BIT       P2_6
      00000090H.7 SFRSYM    DATA     BIT       P1_7
      000000DEH   SFRSYM    DATA     BYTE      ADCON1
      000000D8H.4 SFRSYM    DATA     BIT       P5_4
      000000A0H.7 SFRSYM    DATA     BIT       P2_7
      000000E9H   SFRSYM    DATA     BYTE      ADCON2
      000000B8H   SFRSYM    DATA     BYTE      IP
      000000D8H.5 SFRSYM    DATA     BIT       P5_5
      000000CEH   SFRSYM    DATA     BYTE      CCEN
      000000D8H.6 SFRSYM    DATA     BIT       P5_6
      000000D8H.7 SFRSYM    DATA     BIT       P5_7
      000000D0H.7 SFRSYM    DATA     BIT       CY
      000000D2H   SFRSYM    DATA     BYTE      T34MOD
      000000F4H   SFRSYM    DATA     BYTE      I2CMSA
      000000D7H   SFRSYM    DATA     BYTE      SCKSTAU
      000000F5H   SFRSYM    DATA     BYTE      I2CMCR
      00000081H   SFRSYM    DATA     BYTE      SP
      000000D0H.2 SFRSYM    DATA     BIT       OV
      000000F2H   SFRSYM    DATA     BYTE      I2CSCR
      000000D9H   SFRSYM    DATA     BYTE      ADCCHS
      000000C8H.7 SFRSYM    DATA     BIT       T2PS
      000000D1H   SFRSYM    DATA     BYTE      ADCMPC
      000000CBH   SFRSYM    DATA     BYTE      RLDH
      000000D5H   SFRSYM    DATA     BYTE      ADCMPH
      000000CAH   SFRSYM    DATA     BYTE      RLDL
      00000080H.0 SFRSYM    DATA     BIT       P00
      00000090H.0 SFRSYM    DATA     BIT       P10
      00000080H.1 SFRSYM    DATA     BIT       P01
      000000F7H   SFRSYM    DATA     BYTE      I2CMTP
      00000087H   SFRSYM    DATA     BYTE      PCON
      000000A0H.0 SFRSYM    DATA     BIT       P20
      00000090H.1 SFRSYM    DATA     BIT       P11
      00000080H.2 SFRSYM    DATA     BIT       P02
      000000F5H   SFRSYM    DATA     BYTE      I2CMSR
      000000A0H.1 SFRSYM    DATA     BIT       P21
      00000090H.2 SFRSYM    DATA     BIT       P12
      00000080H.3 SFRSYM    DATA     BIT       P03
      000000D4H   SFRSYM    DATA     BYTE      ADCMPL
      000000A0H.2 SFRSYM    DATA     BIT       P22
      00000090H.3 SFRSYM    DATA     BIT       P13
      00000080H.4 SFRSYM    DATA     BIT       P04
      000000D8H.0 SFRSYM    DATA     BIT       P50
      000000A0H.3 SFRSYM    DATA     BIT       P23
      00000090H.4 SFRSYM    DATA     BIT       P14
      00000080H.5 SFRSYM    DATA     BIT       P05
      00000089H   SFRSYM    DATA     BYTE      TMOD
      00000088H   SFRSYM    DATA     BYTE      TCON
      000000D8H.1 SFRSYM    DATA     BIT       P51
      00000090H.5 SFRSYM    DATA     BIT       P15
      00000080H.6 SFRSYM    DATA     BIT       P06
      000000FAH   SFRSYM    DATA     BYTE      PCRCDH
      000000D8H.2 SFRSYM    DATA     BIT       P52
      00000090H.6 SFRSYM    DATA     BIT       P16
      00000080H.7 SFRSYM    DATA     BIT       P07
      000000D8H.3 SFRSYM    DATA     BIT       P53
LX51 LINKER/LOCATER V4.66.93.0                                                        06/27/2023  19:17:35  PAGE 101


      00000090H.7 SFRSYM    DATA     BIT       P17
      000000F2H   SFRSYM    DATA     BYTE      I2CSSR
      000000D8H.4 SFRSYM    DATA     BIT       P54
      000000ECH   SFRSYM    DATA     BYTE      SPCR
      000000DDH   SFRSYM    DATA     BYTE      ADRESH
      000000D8H.5 SFRSYM    DATA     BIT       P55
      000000F9H   SFRSYM    DATA     BYTE      PCRCDL
      000000EEH   SFRSYM    DATA     BYTE      SPDR
      000000EFH   SFRSYM    DATA     BYTE      SSCR
      000000D3H   SFRSYM    DATA     BYTE      ADDLYL
      000000DCH   SFRSYM    DATA     BYTE      ADRESL
      00000088H.1 SFRSYM    DATA     BIT       IE0
      00000088H.3 SFRSYM    DATA     BIT       IE1
      0000008FH   SFRSYM    DATA     BYTE      CLKDIV
      000000F0H   SFRSYM    DATA     BYTE      B
      00000091H   SFRSYM    DATA     BYTE      FUNCCR
      0000009AH   SFRSYM    DATA     BYTE      P0TRIS
      000000A1H   SFRSYM    DATA     BYTE      P1TRIS
      000000A2H   SFRSYM    DATA     BYTE      P2TRIS
      000000E0H   SFRSYM    DATA     BYTE      ACC
      000000D6H   SFRSYM    DATA     BYTE      SCKSEL
      000000A8H.4 SFRSYM    DATA     BIT       ES0
      000000A8H.1 SFRSYM    DATA     BIT       ET0
      000000A8H.6 SFRSYM    DATA     BIT       ES1
      000000EDH   SFRSYM    DATA     BYTE      SPSR
      000000A5H   SFRSYM    DATA     BYTE      P5TRIS
      000000A8H.3 SFRSYM    DATA     BIT       ET1
      00000088H.5 SFRSYM    DATA     BIT       TF0
      000000A8H.5 SFRSYM    DATA     BIT       ET2
      00000098H.0 SFRSYM    DATA     BIT       RI0
      00000088H.7 SFRSYM    DATA     BIT       TF1
      0000008CH   SFRSYM    DATA     BYTE      TH0
      000000A8H.0 SFRSYM    DATA     BIT       EX0
      00000098H.1 SFRSYM    DATA     BIT       TI0
      00000088H.0 SFRSYM    DATA     BIT       IT0
      0000008DH   SFRSYM    DATA     BYTE      TH1
      000000A8H.2 SFRSYM    DATA     BIT       EX1
      00000088H.2 SFRSYM    DATA     BIT       IT1
      000000CDH   SFRSYM    DATA     BYTE      TH2
      000000D0H.0 SFRSYM    DATA     BIT       P
      000000DBH   SFRSYM    DATA     BYTE      TH3
      000000E3H   SFRSYM    DATA     BYTE      TH4
      0000008AH   SFRSYM    DATA     BYTE      TL0
      000000F0H.0 SFRSYM    DATA     BIT       B_0
      0000008BH   SFRSYM    DATA     BYTE      TL1
      000000F0H.1 SFRSYM    DATA     BIT       B_1
      00000098H.2 SFRSYM    DATA     BIT       U0RB8
      000000CCH   SFRSYM    DATA     BYTE      TL2
      000000F0H.2 SFRSYM    DATA     BIT       B_2
      000000B8H.4 SFRSYM    DATA     BIT       PS0
      000000DAH   SFRSYM    DATA     BYTE      TL3
      000000BFH   SFRSYM    DATA     BYTE      BUZCON
      000000F0H.3 SFRSYM    DATA     BIT       B_3
      000000B8H.1 SFRSYM    DATA     BIT       PT0
      000000B8H.6 SFRSYM    DATA     BIT       PS1
      00000098H.3 SFRSYM    DATA     BIT       U0TB8
      000000E2H   SFRSYM    DATA     BYTE      TL4
      000000F0H.4 SFRSYM    DATA     BIT       B_4
      000000D0H.3 SFRSYM    DATA     BIT       RS0
      000000B8H.3 SFRSYM    DATA     BIT       PT1
      000000F0H.5 SFRSYM    DATA     BIT       B_5
      000000D0H.4 SFRSYM    DATA     BIT       RS1
      000000B8H.5 SFRSYM    DATA     BIT       PT2
      00000098H.7 SFRSYM    DATA     BIT       U0SM0
      00000088H.4 SFRSYM    DATA     BIT       TR0
LX51 LINKER/LOCATER V4.66.93.0                                                        06/27/2023  19:17:35  PAGE 102


      000000BEH   SFRSYM    DATA     BYTE      BUZDIV
      000000F0H.6 SFRSYM    DATA     BIT       B_6
      000000E0H.0 SFRSYM    DATA     BIT       ACC_0
      00000098H.6 SFRSYM    DATA     BIT       U0SM1
      00000088H.6 SFRSYM    DATA     BIT       TR1
      000000F0H.7 SFRSYM    DATA     BIT       B_7
      000000E0H.1 SFRSYM    DATA     BIT       ACC_1
      000000B8H.0 SFRSYM    DATA     BIT       PX0
      00000098H.5 SFRSYM    DATA     BIT       U0SM2
      000000E0H.2 SFRSYM    DATA     BIT       ACC_2
      000000B8H.2 SFRSYM    DATA     BIT       PX1
      000000E0H.3 SFRSYM    DATA     BIT       ACC_3
      000000E0H.4 SFRSYM    DATA     BIT       ACC_4
      000000E0H.5 SFRSYM    DATA     BIT       ACC_5
      000000E0H.6 SFRSYM    DATA     BIT       ACC_6
      000000E0H.7 SFRSYM    DATA     BIT       ACC_7
      000000BDH   SFRSYM    DATA     BYTE      WUTCRH
      00000099H   SFRSYM    DATA     BYTE      SBUF0
      000000EBH   SFRSYM    DATA     BYTE      SBUF1
      000000BCH   SFRSYM    DATA     BYTE      WUTCRL
      00000098H   SFRSYM    DATA     BYTE      SCON0
      000000EAH   SFRSYM    DATA     BYTE      SCON1
      000000C8H   SFRSYM    DATA     BYTE      T2CON
      00000086H   SFRSYM    DATA     BYTE      DPS
      000000FEH   SFRSYM    DATA     BYTE      MDATA
      000000F6H   SFRSYM    DATA     BYTE      I2CMBUF
      000000F1H   SFRSYM    DATA     BYTE      I2CSADR
      00000098H.4 SFRSYM    DATA     BIT       U0REN
      000000C8H.5 SFRSYM    DATA     BIT       CAPES
      000000FDH   SFRSYM    DATA     BYTE      MADRH
      0000008EH   SFRSYM    DATA     BYTE      CKCON
      000000F3H   SFRSYM    DATA     BYTE      I2CSBUF
      000000FCH   SFRSYM    DATA     BYTE      MADRL
      000000D0H.5 SFRSYM    DATA     BIT       F0
      000000FBH   SFRSYM    DATA     BYTE      MLOCK
      000000D0H   SFRSYM    DATA     BYTE      PSW
      00000097H   SFRSYM    DATA     BYTE      WDCON
      00000030H   SYMBOL    DATA     BYTE      u8Time10ms
      00000031H   SYMBOL    DATA     BYTE      u8Time100ms
      00000032H   SYMBOL    DATA     BYTE      u8Time200ms
      00000033H   SYMBOL    DATA     BYTE      u8Time500ms
      00000034H   SYMBOL    DATA     BYTE      u8Time5ms
      00000035H   SYMBOL    DATA     BYTE      u8Time1s

      0100265EH   BLOCK     CODE     ---       LVL=0
      0100265EH   LINE      CODE     ---       #27
      0100265EH   LINE      CODE     ---       #28
      0100265EH   LINE      CODE     ---       #29
      01002660H   LINE      CODE     ---       #30
      01002662H   LINE      CODE     ---       #31
      01002664H   LINE      CODE     ---       #32
      01002666H   LINE      CODE     ---       #33
      01002668H   LINE      CODE     ---       #34
      0100266AH   LINE      CODE     ---       #35
      0100266CH   LINE      CODE     ---       #37
      0100266FH   LINE      CODE     ---       #38
      01002671H   LINE      CODE     ---       #39
      01002673H   LINE      CODE     ---       #40
      01002675H   LINE      CODE     ---       #41
      01002677H   LINE      CODE     ---       #42
      01002679H   LINE      CODE     ---       #44
      01002681H   LINE      CODE     ---       #47
      01002688H   LINE      CODE     ---       #49
      0100268EH   LINE      CODE     ---       #51
      01002697H   LINE      CODE     ---       #53
LX51 LINKER/LOCATER V4.66.93.0                                                        06/27/2023  19:17:35  PAGE 103


      0100269CH   LINE      CODE     ---       #55
      010026A2H   LINE      CODE     ---       #57
      ---         BLOCKEND  ---      ---       LVL=0

      01001E07H   BLOCK     CODE     ---       LVL=0
      01001E07H   LINE      CODE     ---       #68
      01001E10H   LINE      CODE     ---       #70
      01001E13H   LINE      CODE     ---       #71
      01001E16H   LINE      CODE     ---       #73
      01001E2BH   LINE      CODE     ---       #77
      01001E2DH   LINE      CODE     ---       #78
      01001E2FH   LINE      CODE     ---       #79
      01001E3BH   LINE      CODE     ---       #80
      01001E3BH   LINE      CODE     ---       #81
      01001E3EH   LINE      CODE     ---       #82
      01001E40H   LINE      CODE     ---       #83
      01001E40H   LINE      CODE     ---       #85
      01001E42H   LINE      CODE     ---       #86
      01001E4EH   LINE      CODE     ---       #87
      01001E4EH   LINE      CODE     ---       #88
      01001E51H   LINE      CODE     ---       #89
      01001E53H   LINE      CODE     ---       #91
      01001E55H   LINE      CODE     ---       #92
      01001E60H   LINE      CODE     ---       #93
      01001E60H   LINE      CODE     ---       #94
      01001E63H   LINE      CODE     ---       #95
      01001E65H   LINE      CODE     ---       #97
      01001E67H   LINE      CODE     ---       #98
      01001E72H   LINE      CODE     ---       #99
      01001E72H   LINE      CODE     ---       #100
      01001E75H   LINE      CODE     ---       #101
      01001E77H   LINE      CODE     ---       #102
      01001E77H   LINE      CODE     ---       #104
      01001E79H   LINE      CODE     ---       #105
      01001E85H   LINE      CODE     ---       #106
      01001E85H   LINE      CODE     ---       #107
      01001E88H   LINE      CODE     ---       #108
      01001E8AH   LINE      CODE     ---       #109
      01001E8AH   LINE      CODE     ---       #111
      01001E8CH   LINE      CODE     ---       #112
      01001E98H   LINE      CODE     ---       #113
      01001E98H   LINE      CODE     ---       #114
      01001E9BH   LINE      CODE     ---       #115
      01001E9DH   LINE      CODE     ---       #116
      01001E9DH   LINE      CODE     ---       #117
      01001E9DH   LINE      CODE     ---       #118
      01001E9DH   LINE      CODE     ---       #119
      ---         BLOCKEND  ---      ---       LVL=0

      ---         MODULE    ---      ---       MAIN
      01002572H   PUBLIC    CODE     ---       main
      000000C8H.0 SFRSYM    DATA     BIT       T2I0
      000000C3H   SFRSYM    DATA     BYTE      CCH1
      00000080H   SFRSYM    DATA     BYTE      P0
      000000C8H.1 SFRSYM    DATA     BIT       T2I1
      000000C5H   SFRSYM    DATA     BYTE      CCH2
      00000090H   SFRSYM    DATA     BYTE      P1
      000000C7H   SFRSYM    DATA     BYTE      CCH3
      000000ACH   SFRSYM    DATA     BYTE      P0EXTIE
      000000A0H   SFRSYM    DATA     BYTE      P2
      000000B4H   SFRSYM    DATA     BYTE      P0EXTIF
      000000ADH   SFRSYM    DATA     BYTE      P1EXTIE
      000000D0H.6 SFRSYM    DATA     BIT       AC
      000000FFH   SFRSYM    DATA     BYTE      MCTRL
      000000C2H   SFRSYM    DATA     BYTE      CCL1
LX51 LINKER/LOCATER V4.66.93.0                                                        06/27/2023  19:17:35  PAGE 104


      000000B5H   SFRSYM    DATA     BYTE      P1EXTIF
      000000AEH   SFRSYM    DATA     BYTE      P2EXTIE
      000000D8H   SFRSYM    DATA     BYTE      P5
      000000C4H   SFRSYM    DATA     BYTE      CCL2
      000000B6H   SFRSYM    DATA     BYTE      P2EXTIF
      000000A8H.7 SFRSYM    DATA     BIT       EA
      000000C6H   SFRSYM    DATA     BYTE      CCL3
      000000AAH   SFRSYM    DATA     BYTE      EIE2
      000000B2H   SFRSYM    DATA     BYTE      EIF2
      0000009CH   SFRSYM    DATA     BYTE      P5EXTIE
      000000A7H   SFRSYM    DATA     BYTE      P5EXTIF
      000000C8H.3 SFRSYM    DATA     BIT       T2R0
      000000C8H.4 SFRSYM    DATA     BIT       T2R1
      00000083H   SFRSYM    DATA     BYTE      DPH0
      000000A8H   SFRSYM    DATA     BYTE      IE
      00000085H   SFRSYM    DATA     BYTE      DPH1
      00000080H.0 SFRSYM    DATA     BIT       P0_0
      000000B9H   SFRSYM    DATA     BYTE      EIP1
      00000090H.0 SFRSYM    DATA     BIT       P1_0
      00000080H.1 SFRSYM    DATA     BIT       P0_1
      000000BAH   SFRSYM    DATA     BYTE      EIP2
      00000082H   SFRSYM    DATA     BYTE      DPL0
      000000A0H.0 SFRSYM    DATA     BIT       P2_0
      00000090H.1 SFRSYM    DATA     BIT       P1_1
      00000080H.2 SFRSYM    DATA     BIT       P0_2
      000000BBH   SFRSYM    DATA     BYTE      EIP3
      00000084H   SFRSYM    DATA     BYTE      DPL1
      000000A0H.1 SFRSYM    DATA     BIT       P2_1
      00000090H.2 SFRSYM    DATA     BIT       P1_2
      00000080H.3 SFRSYM    DATA     BIT       P0_3
      000000A0H.2 SFRSYM    DATA     BIT       P2_2
      00000090H.3 SFRSYM    DATA     BIT       P1_3
      00000080H.4 SFRSYM    DATA     BIT       P0_4
      000000D8H.0 SFRSYM    DATA     BIT       P5_0
      000000C8H.6 SFRSYM    DATA     BIT       I3FR
      000000A0H.3 SFRSYM    DATA     BIT       P2_3
      00000090H.4 SFRSYM    DATA     BIT       P1_4
      00000080H.5 SFRSYM    DATA     BIT       P0_5
      000000CFH   SFRSYM    DATA     BYTE      T2IE
      00000096H   SFRSYM    DATA     BYTE      TA
      000000D8H.1 SFRSYM    DATA     BIT       P5_1
      000000A0H.4 SFRSYM    DATA     BIT       P2_4
      00000090H.5 SFRSYM    DATA     BIT       P1_5
      00000080H.6 SFRSYM    DATA     BIT       P0_6
      000000C9H   SFRSYM    DATA     BYTE      T2IF
      000000D8H.2 SFRSYM    DATA     BIT       P5_2
      000000C8H.2 SFRSYM    DATA     BIT       T2CM
      000000A0H.5 SFRSYM    DATA     BIT       P2_5
      00000090H.6 SFRSYM    DATA     BIT       P1_6
      00000080H.7 SFRSYM    DATA     BIT       P0_7
      000000DFH   SFRSYM    DATA     BYTE      ADCON0
      000000D8H.3 SFRSYM    DATA     BIT       P5_3
      000000A0H.6 SFRSYM    DATA     BIT       P2_6
      00000090H.7 SFRSYM    DATA     BIT       P1_7
      000000DEH   SFRSYM    DATA     BYTE      ADCON1
      000000D8H.4 SFRSYM    DATA     BIT       P5_4
      000000A0H.7 SFRSYM    DATA     BIT       P2_7
      000000E9H   SFRSYM    DATA     BYTE      ADCON2
      000000B8H   SFRSYM    DATA     BYTE      IP
      000000D8H.5 SFRSYM    DATA     BIT       P5_5
      000000CEH   SFRSYM    DATA     BYTE      CCEN
      000000D8H.6 SFRSYM    DATA     BIT       P5_6
      000000D8H.7 SFRSYM    DATA     BIT       P5_7
      000000D0H.7 SFRSYM    DATA     BIT       CY
      000000D2H   SFRSYM    DATA     BYTE      T34MOD
LX51 LINKER/LOCATER V4.66.93.0                                                        06/27/2023  19:17:35  PAGE 105


      000000F4H   SFRSYM    DATA     BYTE      I2CMSA
      000000D7H   SFRSYM    DATA     BYTE      SCKSTAU
      000000F5H   SFRSYM    DATA     BYTE      I2CMCR
      00000081H   SFRSYM    DATA     BYTE      SP
      000000D0H.2 SFRSYM    DATA     BIT       OV
      000000F2H   SFRSYM    DATA     BYTE      I2CSCR
      000000D9H   SFRSYM    DATA     BYTE      ADCCHS
      000000C8H.7 SFRSYM    DATA     BIT       T2PS
      000000D1H   SFRSYM    DATA     BYTE      ADCMPC
      000000CBH   SFRSYM    DATA     BYTE      RLDH
      000000D5H   SFRSYM    DATA     BYTE      ADCMPH
      000000CAH   SFRSYM    DATA     BYTE      RLDL
      00000080H.0 SFRSYM    DATA     BIT       P00
      00000090H.0 SFRSYM    DATA     BIT       P10
      00000080H.1 SFRSYM    DATA     BIT       P01
      000000F7H   SFRSYM    DATA     BYTE      I2CMTP
      00000087H   SFRSYM    DATA     BYTE      PCON
      000000A0H.0 SFRSYM    DATA     BIT       P20
      00000090H.1 SFRSYM    DATA     BIT       P11
      00000080H.2 SFRSYM    DATA     BIT       P02
      000000F5H   SFRSYM    DATA     BYTE      I2CMSR
      000000A0H.1 SFRSYM    DATA     BIT       P21
      00000090H.2 SFRSYM    DATA     BIT       P12
      00000080H.3 SFRSYM    DATA     BIT       P03
      000000D4H   SFRSYM    DATA     BYTE      ADCMPL
      000000A0H.2 SFRSYM    DATA     BIT       P22
      00000090H.3 SFRSYM    DATA     BIT       P13
      00000080H.4 SFRSYM    DATA     BIT       P04
      000000D8H.0 SFRSYM    DATA     BIT       P50
      000000A0H.3 SFRSYM    DATA     BIT       P23
      00000090H.4 SFRSYM    DATA     BIT       P14
      00000080H.5 SFRSYM    DATA     BIT       P05
      00000089H   SFRSYM    DATA     BYTE      TMOD
      00000088H   SFRSYM    DATA     BYTE      TCON
      000000D8H.1 SFRSYM    DATA     BIT       P51
      00000090H.5 SFRSYM    DATA     BIT       P15
      00000080H.6 SFRSYM    DATA     BIT       P06
      000000FAH   SFRSYM    DATA     BYTE      PCRCDH
      000000D8H.2 SFRSYM    DATA     BIT       P52
      00000090H.6 SFRSYM    DATA     BIT       P16
      00000080H.7 SFRSYM    DATA     BIT       P07
      000000D8H.3 SFRSYM    DATA     BIT       P53
      00000090H.7 SFRSYM    DATA     BIT       P17
      000000F2H   SFRSYM    DATA     BYTE      I2CSSR
      000000D8H.4 SFRSYM    DATA     BIT       P54
      000000ECH   SFRSYM    DATA     BYTE      SPCR
      000000DDH   SFRSYM    DATA     BYTE      ADRESH
      000000D8H.5 SFRSYM    DATA     BIT       P55
      000000F9H   SFRSYM    DATA     BYTE      PCRCDL
      000000EEH   SFRSYM    DATA     BYTE      SPDR
      000000EFH   SFRSYM    DATA     BYTE      SSCR
      000000D3H   SFRSYM    DATA     BYTE      ADDLYL
      000000DCH   SFRSYM    DATA     BYTE      ADRESL
      00000088H.1 SFRSYM    DATA     BIT       IE0
      00000088H.3 SFRSYM    DATA     BIT       IE1
      0000008FH   SFRSYM    DATA     BYTE      CLKDIV
      000000F0H   SFRSYM    DATA     BYTE      B
      00000091H   SFRSYM    DATA     BYTE      FUNCCR
      0000009AH   SFRSYM    DATA     BYTE      P0TRIS
      000000A1H   SFRSYM    DATA     BYTE      P1TRIS
      000000A2H   SFRSYM    DATA     BYTE      P2TRIS
      000000E0H   SFRSYM    DATA     BYTE      ACC
      000000D6H   SFRSYM    DATA     BYTE      SCKSEL
      000000A8H.4 SFRSYM    DATA     BIT       ES0
      000000A8H.1 SFRSYM    DATA     BIT       ET0
LX51 LINKER/LOCATER V4.66.93.0                                                        06/27/2023  19:17:35  PAGE 106


      000000A8H.6 SFRSYM    DATA     BIT       ES1
      000000EDH   SFRSYM    DATA     BYTE      SPSR
      000000A5H   SFRSYM    DATA     BYTE      P5TRIS
      000000A8H.3 SFRSYM    DATA     BIT       ET1
      00000088H.5 SFRSYM    DATA     BIT       TF0
      000000A8H.5 SFRSYM    DATA     BIT       ET2
      00000098H.0 SFRSYM    DATA     BIT       RI0
      00000088H.7 SFRSYM    DATA     BIT       TF1
      0000008CH   SFRSYM    DATA     BYTE      TH0
      000000A8H.0 SFRSYM    DATA     BIT       EX0
      00000098H.1 SFRSYM    DATA     BIT       TI0
      00000088H.0 SFRSYM    DATA     BIT       IT0
      0000008DH   SFRSYM    DATA     BYTE      TH1
      000000A8H.2 SFRSYM    DATA     BIT       EX1
      00000088H.2 SFRSYM    DATA     BIT       IT1
      000000CDH   SFRSYM    DATA     BYTE      TH2
      000000D0H.0 SFRSYM    DATA     BIT       P
      000000DBH   SFRSYM    DATA     BYTE      TH3
      000000E3H   SFRSYM    DATA     BYTE      TH4
      0000008AH   SFRSYM    DATA     BYTE      TL0
      000000F0H.0 SFRSYM    DATA     BIT       B_0
      0000008BH   SFRSYM    DATA     BYTE      TL1
      000000F0H.1 SFRSYM    DATA     BIT       B_1
      00000098H.2 SFRSYM    DATA     BIT       U0RB8
      000000CCH   SFRSYM    DATA     BYTE      TL2
      000000F0H.2 SFRSYM    DATA     BIT       B_2
      000000B8H.4 SFRSYM    DATA     BIT       PS0
      000000DAH   SFRSYM    DATA     BYTE      TL3
      000000BFH   SFRSYM    DATA     BYTE      BUZCON
      000000F0H.3 SFRSYM    DATA     BIT       B_3
      000000B8H.1 SFRSYM    DATA     BIT       PT0
      000000B8H.6 SFRSYM    DATA     BIT       PS1
      00000098H.3 SFRSYM    DATA     BIT       U0TB8
      000000E2H   SFRSYM    DATA     BYTE      TL4
      000000F0H.4 SFRSYM    DATA     BIT       B_4
      000000D0H.3 SFRSYM    DATA     BIT       RS0
      000000B8H.3 SFRSYM    DATA     BIT       PT1
      000000F0H.5 SFRSYM    DATA     BIT       B_5
      000000D0H.4 SFRSYM    DATA     BIT       RS1
      000000B8H.5 SFRSYM    DATA     BIT       PT2
      00000098H.7 SFRSYM    DATA     BIT       U0SM0
      00000088H.4 SFRSYM    DATA     BIT       TR0
      000000BEH   SFRSYM    DATA     BYTE      BUZDIV
      000000F0H.6 SFRSYM    DATA     BIT       B_6
      000000E0H.0 SFRSYM    DATA     BIT       ACC_0
      00000098H.6 SFRSYM    DATA     BIT       U0SM1
      00000088H.6 SFRSYM    DATA     BIT       TR1
      000000F0H.7 SFRSYM    DATA     BIT       B_7
      000000E0H.1 SFRSYM    DATA     BIT       ACC_1
      000000B8H.0 SFRSYM    DATA     BIT       PX0
      00000098H.5 SFRSYM    DATA     BIT       U0SM2
      000000E0H.2 SFRSYM    DATA     BIT       ACC_2
      000000B8H.2 SFRSYM    DATA     BIT       PX1
      000000E0H.3 SFRSYM    DATA     BIT       ACC_3
      000000E0H.4 SFRSYM    DATA     BIT       ACC_4
      000000E0H.5 SFRSYM    DATA     BIT       ACC_5
      000000E0H.6 SFRSYM    DATA     BIT       ACC_6
      000000E0H.7 SFRSYM    DATA     BIT       ACC_7
      000000BDH   SFRSYM    DATA     BYTE      WUTCRH
      00000099H   SFRSYM    DATA     BYTE      SBUF0
      000000EBH   SFRSYM    DATA     BYTE      SBUF1
      000000BCH   SFRSYM    DATA     BYTE      WUTCRL
      00000098H   SFRSYM    DATA     BYTE      SCON0
      000000EAH   SFRSYM    DATA     BYTE      SCON1
      000000C8H   SFRSYM    DATA     BYTE      T2CON
LX51 LINKER/LOCATER V4.66.93.0                                                        06/27/2023  19:17:35  PAGE 107


      00000086H   SFRSYM    DATA     BYTE      DPS
      000000FEH   SFRSYM    DATA     BYTE      MDATA
      000000F6H   SFRSYM    DATA     BYTE      I2CMBUF
      000000F1H   SFRSYM    DATA     BYTE      I2CSADR
      00000098H.4 SFRSYM    DATA     BIT       U0REN
      000000C8H.5 SFRSYM    DATA     BIT       CAPES
      000000FDH   SFRSYM    DATA     BYTE      MADRH
      0000008EH   SFRSYM    DATA     BYTE      CKCON
      000000F3H   SFRSYM    DATA     BYTE      I2CSBUF
      000000FCH   SFRSYM    DATA     BYTE      MADRL
      000000D0H.5 SFRSYM    DATA     BIT       F0
      000000FBH   SFRSYM    DATA     BYTE      MLOCK
      000000D0H   SFRSYM    DATA     BYTE      PSW
      00000097H   SFRSYM    DATA     BYTE      WDCON

      01002572H   BLOCK     CODE     ---       LVL=0
      01002572H   LINE      CODE     ---       #5
      01002572H   LINE      CODE     ---       #6
      01002572H   LINE      CODE     ---       #7
      01002575H   LINE      CODE     ---       #9
      0100257AH   LINE      CODE     ---       #11
      0100257AH   LINE      CODE     ---       #12
      0100257AH   LINE      CODE     ---       #16
      0100257DH   LINE      CODE     ---       #17
      0100257DH   LINE      CODE     ---       #18
      0100257FH   LINE      CODE     ---       #20
      01002582H   LINE      CODE     ---       #21
      01002585H   LINE      CODE     ---       #22
      01002585H   LINE      CODE     ---       #25
      01002588H   LINE      CODE     ---       #26
      01002588H   LINE      CODE     ---       #27
      0100258AH   LINE      CODE     ---       #29
      0100258DH   LINE      CODE     ---       #30
      0100258DH   LINE      CODE     ---       #33
      01002590H   LINE      CODE     ---       #34
      01002590H   LINE      CODE     ---       #35
      01002592H   LINE      CODE     ---       #37
      01002595H   LINE      CODE     ---       #38
      01002598H   LINE      CODE     ---       #39
      01002598H   LINE      CODE     ---       #42
      0100259BH   LINE      CODE     ---       #43
      0100259BH   LINE      CODE     ---       #44
      0100259DH   LINE      CODE     ---       #46
      010025A0H   LINE      CODE     ---       #48
      010025A3H   LINE      CODE     ---       #49
      010025A6H   LINE      CODE     ---       #50
      010025A6H   LINE      CODE     ---       #52
      010025A9H   LINE      CODE     ---       #53
      010025A9H   LINE      CODE     ---       #54
      010025ABH   LINE      CODE     ---       #56
      010025AEH   LINE      CODE     ---       #57
      010025B1H   LINE      CODE     ---       #58
      010025B4H   LINE      CODE     ---       #59
      010025B7H   LINE      CODE     ---       #62
      010025B7H   LINE      CODE     ---       #65
      010025BAH   LINE      CODE     ---       #66
      010025BAH   LINE      CODE     ---       #67
      010025BCH   LINE      CODE     ---       #69
      010025BCH   LINE      CODE     ---       #72
      010025BFH   LINE      CODE     ---       #73
      010025BFH   LINE      CODE     ---       #74
      010025C1H   LINE      CODE     ---       #76
      010025C1H   LINE      CODE     ---       #78
      ---         BLOCKEND  ---      ---       LVL=0

LX51 LINKER/LOCATER V4.66.93.0                                                        06/27/2023  19:17:35  PAGE 108


      ---         MODULE    ---      ---       DEBUG
      0000001EH   PUBLIC    DATA     WORD      debugLowCnt
      0000001CH   PUBLIC    DATA     WORD      debugTmr
      01002992H   PUBLIC    CODE     ---       Debug_Run_Task
      01002E0BH   PUBLIC    CODE     ---       Debug_Init
      01002D9BH   PUBLIC    CODE     ---       _GpioUart_Send
      01002D5CH   PUBLIC    CODE     ---       GpioUart_Init
      000000C8H.0 SFRSYM    DATA     BIT       T2I0
      000000C3H   SFRSYM    DATA     BYTE      CCH1
      00000080H   SFRSYM    DATA     BYTE      P0
      000000C8H.1 SFRSYM    DATA     BIT       T2I1
      000000C5H   SFRSYM    DATA     BYTE      CCH2
      00000090H   SFRSYM    DATA     BYTE      P1
      000000C7H   SFRSYM    DATA     BYTE      CCH3
      000000ACH   SFRSYM    DATA     BYTE      P0EXTIE
      000000A0H   SFRSYM    DATA     BYTE      P2
      000000B4H   SFRSYM    DATA     BYTE      P0EXTIF
      000000ADH   SFRSYM    DATA     BYTE      P1EXTIE
      000000D0H.6 SFRSYM    DATA     BIT       AC
      000000FFH   SFRSYM    DATA     BYTE      MCTRL
      000000C2H   SFRSYM    DATA     BYTE      CCL1
      000000B5H   SFRSYM    DATA     BYTE      P1EXTIF
      000000AEH   SFRSYM    DATA     BYTE      P2EXTIE
      000000D8H   SFRSYM    DATA     BYTE      P5
      000000C4H   SFRSYM    DATA     BYTE      CCL2
      000000B6H   SFRSYM    DATA     BYTE      P2EXTIF
      000000A8H.7 SFRSYM    DATA     BIT       EA
      000000C6H   SFRSYM    DATA     BYTE      CCL3
      000000AAH   SFRSYM    DATA     BYTE      EIE2
      000000B2H   SFRSYM    DATA     BYTE      EIF2
      0000009CH   SFRSYM    DATA     BYTE      P5EXTIE
      000000A7H   SFRSYM    DATA     BYTE      P5EXTIF
      000000C8H.3 SFRSYM    DATA     BIT       T2R0
      000000C8H.4 SFRSYM    DATA     BIT       T2R1
      00000083H   SFRSYM    DATA     BYTE      DPH0
      000000A8H   SFRSYM    DATA     BYTE      IE
      00000085H   SFRSYM    DATA     BYTE      DPH1
      00000080H.0 SFRSYM    DATA     BIT       P0_0
      000000B9H   SFRSYM    DATA     BYTE      EIP1
      00000090H.0 SFRSYM    DATA     BIT       P1_0
      00000080H.1 SFRSYM    DATA     BIT       P0_1
      000000BAH   SFRSYM    DATA     BYTE      EIP2
      00000082H   SFRSYM    DATA     BYTE      DPL0
      000000A0H.0 SFRSYM    DATA     BIT       P2_0
      00000090H.1 SFRSYM    DATA     BIT       P1_1
      00000080H.2 SFRSYM    DATA     BIT       P0_2
      000000BBH   SFRSYM    DATA     BYTE      EIP3
      00000084H   SFRSYM    DATA     BYTE      DPL1
      000000A0H.1 SFRSYM    DATA     BIT       P2_1
      00000090H.2 SFRSYM    DATA     BIT       P1_2
      00000080H.3 SFRSYM    DATA     BIT       P0_3
      000000A0H.2 SFRSYM    DATA     BIT       P2_2
      00000090H.3 SFRSYM    DATA     BIT       P1_3
      00000080H.4 SFRSYM    DATA     BIT       P0_4
      000000D8H.0 SFRSYM    DATA     BIT       P5_0
      000000C8H.6 SFRSYM    DATA     BIT       I3FR
      000000A0H.3 SFRSYM    DATA     BIT       P2_3
      00000090H.4 SFRSYM    DATA     BIT       P1_4
      00000080H.5 SFRSYM    DATA     BIT       P0_5
      000000CFH   SFRSYM    DATA     BYTE      T2IE
      00000096H   SFRSYM    DATA     BYTE      TA
      000000D8H.1 SFRSYM    DATA     BIT       P5_1
      000000A0H.4 SFRSYM    DATA     BIT       P2_4
      00000090H.5 SFRSYM    DATA     BIT       P1_5
      00000080H.6 SFRSYM    DATA     BIT       P0_6
LX51 LINKER/LOCATER V4.66.93.0                                                        06/27/2023  19:17:35  PAGE 109


      000000C9H   SFRSYM    DATA     BYTE      T2IF
      000000D8H.2 SFRSYM    DATA     BIT       P5_2
      000000C8H.2 SFRSYM    DATA     BIT       T2CM
      000000A0H.5 SFRSYM    DATA     BIT       P2_5
      00000090H.6 SFRSYM    DATA     BIT       P1_6
      00000080H.7 SFRSYM    DATA     BIT       P0_7
      000000DFH   SFRSYM    DATA     BYTE      ADCON0
      000000D8H.3 SFRSYM    DATA     BIT       P5_3
      000000A0H.6 SFRSYM    DATA     BIT       P2_6
      00000090H.7 SFRSYM    DATA     BIT       P1_7
      000000DEH   SFRSYM    DATA     BYTE      ADCON1
      000000D8H.4 SFRSYM    DATA     BIT       P5_4
      000000A0H.7 SFRSYM    DATA     BIT       P2_7
      000000E9H   SFRSYM    DATA     BYTE      ADCON2
      000000B8H   SFRSYM    DATA     BYTE      IP
      000000D8H.5 SFRSYM    DATA     BIT       P5_5
      000000CEH   SFRSYM    DATA     BYTE      CCEN
      000000D8H.6 SFRSYM    DATA     BIT       P5_6
      000000D8H.7 SFRSYM    DATA     BIT       P5_7
      000000D0H.7 SFRSYM    DATA     BIT       CY
      000000D2H   SFRSYM    DATA     BYTE      T34MOD
      000000F4H   SFRSYM    DATA     BYTE      I2CMSA
      000000D7H   SFRSYM    DATA     BYTE      SCKSTAU
      000000F5H   SFRSYM    DATA     BYTE      I2CMCR
      00000081H   SFRSYM    DATA     BYTE      SP
      000000D0H.2 SFRSYM    DATA     BIT       OV
      000000F2H   SFRSYM    DATA     BYTE      I2CSCR
      000000D9H   SFRSYM    DATA     BYTE      ADCCHS
      000000C8H.7 SFRSYM    DATA     BIT       T2PS
      000000D1H   SFRSYM    DATA     BYTE      ADCMPC
      000000CBH   SFRSYM    DATA     BYTE      RLDH
      000000D5H   SFRSYM    DATA     BYTE      ADCMPH
      000000CAH   SFRSYM    DATA     BYTE      RLDL
      00000080H.0 SFRSYM    DATA     BIT       P00
      00000090H.0 SFRSYM    DATA     BIT       P10
      00000080H.1 SFRSYM    DATA     BIT       P01
      000000F7H   SFRSYM    DATA     BYTE      I2CMTP
      00000087H   SFRSYM    DATA     BYTE      PCON
      000000A0H.0 SFRSYM    DATA     BIT       P20
      00000090H.1 SFRSYM    DATA     BIT       P11
      00000080H.2 SFRSYM    DATA     BIT       P02
      000000F5H   SFRSYM    DATA     BYTE      I2CMSR
      000000A0H.1 SFRSYM    DATA     BIT       P21
      00000090H.2 SFRSYM    DATA     BIT       P12
      00000080H.3 SFRSYM    DATA     BIT       P03
      000000D4H   SFRSYM    DATA     BYTE      ADCMPL
      000000A0H.2 SFRSYM    DATA     BIT       P22
      00000090H.3 SFRSYM    DATA     BIT       P13
      00000080H.4 SFRSYM    DATA     BIT       P04
      000000D8H.0 SFRSYM    DATA     BIT       P50
      000000A0H.3 SFRSYM    DATA     BIT       P23
      00000090H.4 SFRSYM    DATA     BIT       P14
      00000080H.5 SFRSYM    DATA     BIT       P05
      00000089H   SFRSYM    DATA     BYTE      TMOD
      00000088H   SFRSYM    DATA     BYTE      TCON
      000000D8H.1 SFRSYM    DATA     BIT       P51
      00000090H.5 SFRSYM    DATA     BIT       P15
      00000080H.6 SFRSYM    DATA     BIT       P06
      000000FAH   SFRSYM    DATA     BYTE      PCRCDH
      000000D8H.2 SFRSYM    DATA     BIT       P52
      00000090H.6 SFRSYM    DATA     BIT       P16
      00000080H.7 SFRSYM    DATA     BIT       P07
      000000D8H.3 SFRSYM    DATA     BIT       P53
      00000090H.7 SFRSYM    DATA     BIT       P17
      000000F2H   SFRSYM    DATA     BYTE      I2CSSR
LX51 LINKER/LOCATER V4.66.93.0                                                        06/27/2023  19:17:35  PAGE 110


      000000D8H.4 SFRSYM    DATA     BIT       P54
      000000ECH   SFRSYM    DATA     BYTE      SPCR
      000000DDH   SFRSYM    DATA     BYTE      ADRESH
      000000D8H.5 SFRSYM    DATA     BIT       P55
      000000F9H   SFRSYM    DATA     BYTE      PCRCDL
      000000EEH   SFRSYM    DATA     BYTE      SPDR
      000000EFH   SFRSYM    DATA     BYTE      SSCR
      000000D3H   SFRSYM    DATA     BYTE      ADDLYL
      000000DCH   SFRSYM    DATA     BYTE      ADRESL
      00000088H.1 SFRSYM    DATA     BIT       IE0
      00000088H.3 SFRSYM    DATA     BIT       IE1
      0000008FH   SFRSYM    DATA     BYTE      CLKDIV
      000000F0H   SFRSYM    DATA     BYTE      B
      00000091H   SFRSYM    DATA     BYTE      FUNCCR
      0000009AH   SFRSYM    DATA     BYTE      P0TRIS
      000000A1H   SFRSYM    DATA     BYTE      P1TRIS
      000000A2H   SFRSYM    DATA     BYTE      P2TRIS
      000000E0H   SFRSYM    DATA     BYTE      ACC
      000000D6H   SFRSYM    DATA     BYTE      SCKSEL
      000000A8H.4 SFRSYM    DATA     BIT       ES0
      000000A8H.1 SFRSYM    DATA     BIT       ET0
      000000A8H.6 SFRSYM    DATA     BIT       ES1
      000000EDH   SFRSYM    DATA     BYTE      SPSR
      000000A5H   SFRSYM    DATA     BYTE      P5TRIS
      000000A8H.3 SFRSYM    DATA     BIT       ET1
      00000088H.5 SFRSYM    DATA     BIT       TF0
      000000A8H.5 SFRSYM    DATA     BIT       ET2
      00000098H.0 SFRSYM    DATA     BIT       RI0
      00000088H.7 SFRSYM    DATA     BIT       TF1
      0000008CH   SFRSYM    DATA     BYTE      TH0
      000000A8H.0 SFRSYM    DATA     BIT       EX0
      00000098H.1 SFRSYM    DATA     BIT       TI0
      00000088H.0 SFRSYM    DATA     BIT       IT0
      0000008DH   SFRSYM    DATA     BYTE      TH1
      000000A8H.2 SFRSYM    DATA     BIT       EX1
      00000088H.2 SFRSYM    DATA     BIT       IT1
      000000CDH   SFRSYM    DATA     BYTE      TH2
      000000D0H.0 SFRSYM    DATA     BIT       P
      000000DBH   SFRSYM    DATA     BYTE      TH3
      000000E3H   SFRSYM    DATA     BYTE      TH4
      0000008AH   SFRSYM    DATA     BYTE      TL0
      000000F0H.0 SFRSYM    DATA     BIT       B_0
      0000008BH   SFRSYM    DATA     BYTE      TL1
      000000F0H.1 SFRSYM    DATA     BIT       B_1
      00000098H.2 SFRSYM    DATA     BIT       U0RB8
      000000CCH   SFRSYM    DATA     BYTE      TL2
      000000F0H.2 SFRSYM    DATA     BIT       B_2
      000000B8H.4 SFRSYM    DATA     BIT       PS0
      000000DAH   SFRSYM    DATA     BYTE      TL3
      000000BFH   SFRSYM    DATA     BYTE      BUZCON
      000000F0H.3 SFRSYM    DATA     BIT       B_3
      000000B8H.1 SFRSYM    DATA     BIT       PT0
      000000B8H.6 SFRSYM    DATA     BIT       PS1
      00000098H.3 SFRSYM    DATA     BIT       U0TB8
      000000E2H   SFRSYM    DATA     BYTE      TL4
      000000F0H.4 SFRSYM    DATA     BIT       B_4
      000000D0H.3 SFRSYM    DATA     BIT       RS0
      000000B8H.3 SFRSYM    DATA     BIT       PT1
      000000F0H.5 SFRSYM    DATA     BIT       B_5
      000000D0H.4 SFRSYM    DATA     BIT       RS1
      000000B8H.5 SFRSYM    DATA     BIT       PT2
      00000098H.7 SFRSYM    DATA     BIT       U0SM0
      00000088H.4 SFRSYM    DATA     BIT       TR0
      000000BEH   SFRSYM    DATA     BYTE      BUZDIV
      000000F0H.6 SFRSYM    DATA     BIT       B_6
LX51 LINKER/LOCATER V4.66.93.0                                                        06/27/2023  19:17:35  PAGE 111


      000000E0H.0 SFRSYM    DATA     BIT       ACC_0
      00000098H.6 SFRSYM    DATA     BIT       U0SM1
      00000088H.6 SFRSYM    DATA     BIT       TR1
      000000F0H.7 SFRSYM    DATA     BIT       B_7
      000000E0H.1 SFRSYM    DATA     BIT       ACC_1
      000000B8H.0 SFRSYM    DATA     BIT       PX0
      00000098H.5 SFRSYM    DATA     BIT       U0SM2
      000000E0H.2 SFRSYM    DATA     BIT       ACC_2
      000000B8H.2 SFRSYM    DATA     BIT       PX1
      000000E0H.3 SFRSYM    DATA     BIT       ACC_3
      000000E0H.4 SFRSYM    DATA     BIT       ACC_4
      000000E0H.5 SFRSYM    DATA     BIT       ACC_5
      000000E0H.6 SFRSYM    DATA     BIT       ACC_6
      000000E0H.7 SFRSYM    DATA     BIT       ACC_7
      000000BDH   SFRSYM    DATA     BYTE      WUTCRH
      00000099H   SFRSYM    DATA     BYTE      SBUF0
      000000EBH   SFRSYM    DATA     BYTE      SBUF1
      000000BCH   SFRSYM    DATA     BYTE      WUTCRL
      00000098H   SFRSYM    DATA     BYTE      SCON0
      000000EAH   SFRSYM    DATA     BYTE      SCON1
      000000C8H   SFRSYM    DATA     BYTE      T2CON
      00000086H   SFRSYM    DATA     BYTE      DPS
      000000FEH   SFRSYM    DATA     BYTE      MDATA
      000000F6H   SFRSYM    DATA     BYTE      I2CMBUF
      000000F1H   SFRSYM    DATA     BYTE      I2CSADR
      00000098H.4 SFRSYM    DATA     BIT       U0REN
      000000C8H.5 SFRSYM    DATA     BIT       CAPES
      000000FDH   SFRSYM    DATA     BYTE      MADRH
      0000008EH   SFRSYM    DATA     BYTE      CKCON
      000000F3H   SFRSYM    DATA     BYTE      I2CSBUF
      000000FCH   SFRSYM    DATA     BYTE      MADRL
      000000D0H.5 SFRSYM    DATA     BIT       F0
      000000FBH   SFRSYM    DATA     BYTE      MLOCK
      000000D0H   SFRSYM    DATA     BYTE      PSW
      00000097H   SFRSYM    DATA     BYTE      WDCON
      0000004DH   SYMBOL    IDATA    BYTE      RxBufTmp
      0000004EH   SYMBOL    IDATA    BYTE      RxBitNum
      0000004FH   SYMBOL    IDATA    BYTE      TxBitNum
      01001B5FH   SYMBOL    CODE     ---       Timer4_IRQHandler
      00000022H.3 SYMBOL    BIT      BIT       bGotoSending
      01002737H   SYMBOL    CODE     ---       TMR4_Config
      00000050H   SYMBOL    IDATA    BYTE      RxBuf
      00000051H   SYMBOL    IDATA    BYTE      RxStep
      00000052H   SYMBOL    IDATA    BYTE      TxBuf
      00000053H   SYMBOL    IDATA    BYTE      TxStep
      00000054H   SYMBOL    IDATA    BYTE      RxLevelCnt
      00000055H   SYMBOL    IDATA    BYTE      TxLevelCnt

      01002737H   BLOCK     CODE     ---       LVL=0
      01002737H   LINE      CODE     ---       #12
      01002737H   LINE      CODE     ---       #13
      01002737H   LINE      CODE     ---       #14
      0100273BH   LINE      CODE     ---       #15
      0100273EH   LINE      CODE     ---       #16
      01002741H   LINE      CODE     ---       #17
      01002744H   LINE      CODE     ---       #18
      01002746H   LINE      CODE     ---       #20
      01002748H   LINE      CODE     ---       #21
      0100274BH   LINE      CODE     ---       #22
      0100274EH   LINE      CODE     ---       #23
      01002751H   LINE      CODE     ---       #24
      01002754H   LINE      CODE     ---       #27
      0100275CH   LINE      CODE     ---       #29
      01002763H   LINE      CODE     ---       #31
      0100276CH   LINE      CODE     ---       #34
LX51 LINKER/LOCATER V4.66.93.0                                                        06/27/2023  19:17:35  PAGE 112


      01002771H   LINE      CODE     ---       #37
      01002777H   LINE      CODE     ---       #40
      ---         BLOCKEND  ---      ---       LVL=0

      01001B5FH   BLOCK     CODE     ---       LVL=0
      01001B5FH   LINE      CODE     ---       #49
      01001B6CH   LINE      CODE     ---       #55
      01001B6FH   LINE      CODE     ---       #56
      01001B6FH   LINE      CODE     ---       #57
      01001B71H   LINE      CODE     ---       #58
      01001B75H   LINE      CODE     ---       #59
      01001B79H   LINE      CODE     ---       #60
      01001B7CH   LINE      CODE     ---       #62
      01001B7CH   LINE      CODE     ---       #63
      01001B7FH   LINE      CODE     ---       #64
      01001B87H   LINE      CODE     ---       #65
      01001B87H   LINE      CODE     ---       #66
      01001B89H   LINE      CODE     ---       #67
      01001B95H   LINE      CODE     ---       #68
      01001B95H   LINE      CODE     ---       #69
      01001B97H   LINE      CODE     ---       #70
      01001B9BH   LINE      CODE     ---       #71
      01001B9BH   LINE      CODE     ---       #72
      01001B9DH   LINE      CODE     ---       #73
      01001BA3H   LINE      CODE     ---       #74
      01001BA3H   LINE      CODE     ---       #75
      01001BA5H   LINE      CODE     ---       #76
      01001BB1H   LINE      CODE     ---       #77
      01001BB1H   LINE      CODE     ---       #78
      01001BB3H   LINE      CODE     ---       #79
      01001BB7H   LINE      CODE     ---       #80
      01001BBBH   LINE      CODE     ---       #81
      01001BBBH   LINE      CODE     ---       #82
      01001BBDH   LINE      CODE     ---       #83
      01001BC4H   LINE      CODE     ---       #84
      01001BC4H   LINE      CODE     ---       #85
      01001BCAH   LINE      CODE     ---       #86
      01001BD6H   LINE      CODE     ---       #87
      01001BD6H   LINE      CODE     ---       #88
      01001BD8H   LINE      CODE     ---       #90
      01001BDBH   LINE      CODE     ---       #91
      01001BE4H   LINE      CODE     ---       #92
      01001BEAH   LINE      CODE     ---       #94
      01001BF0H   LINE      CODE     ---       #95
      01001BF0H   LINE      CODE     ---       #96
      01001BF2H   LINE      CODE     ---       #98
      01001BF2H   LINE      CODE     ---       #99
      01001BF4H   LINE      CODE     ---       #100
      01001C00H   LINE      CODE     ---       #101
      01001C00H   LINE      CODE     ---       #102
      01001C04H   LINE      CODE     ---       #103
      01001C08H   LINE      CODE     ---       #104
      01001C0AH   LINE      CODE     ---       #105
      01001C0AH   LINE      CODE     ---       #106
      01001C0AH   LINE      CODE     ---       #107
      01001C0AH   LINE      CODE     ---       #166
      ---         BLOCKEND  ---      ---       LVL=0

      01002D5CH   BLOCK     CODE     ---       LVL=0
      01002D5CH   LINE      CODE     ---       #170
      01002D5CH   LINE      CODE     ---       #171
      01002D5CH   LINE      CODE     ---       #172
      01002D70H   LINE      CODE     ---       #175
      ---         BLOCKEND  ---      ---       LVL=0

LX51 LINKER/LOCATER V4.66.93.0                                                        06/27/2023  19:17:35  PAGE 113


      01002D9BH   BLOCK     CODE     ---       LVL=0
      00000008H   SYMBOL    DATA     BYTE      dat
      01002D9BH   LINE      CODE     ---       #178
      01002D9DH   LINE      CODE     ---       #179
      01002D9DH   LINE      CODE     ---       #180
      01002DA0H   LINE      CODE     ---       #181
      01002DA0H   LINE      CODE     ---       #182
      01002DA3H   LINE      CODE     ---       #183
      01002DA5H   LINE      CODE     ---       #185
      01002DA9H   LINE      CODE     ---       #186
      01002DABH   LINE      CODE     ---       #187
      ---         BLOCKEND  ---      ---       LVL=0

      01002E0BH   BLOCK     CODE     ---       LVL=0
      01002E0BH   LINE      CODE     ---       #198
      01002E0BH   LINE      CODE     ---       #199
      01002E0BH   LINE      CODE     ---       #200
      01002E0EH   LINE      CODE     ---       #202
      01002E13H   LINE      CODE     ---       #203
      01002E17H   LINE      CODE     ---       #204
      ---         BLOCKEND  ---      ---       LVL=0

      01002992H   BLOCK     CODE     ---       LVL=0
      01002992H   LINE      CODE     ---       #218
      01002992H   LINE      CODE     ---       #219
      01002992H   LINE      CODE     ---       #221
      01002998H   LINE      CODE     ---       #222
      01002998H   LINE      CODE     ---       #228
      0100299DH   LINE      CODE     ---       #233
      010029A2H   LINE      CODE     ---       #237
      010029AAH   LINE      CODE     ---       #240
      010029B4H   LINE      CODE     ---       #242
      010029BCH   LINE      CODE     ---       #246
      010029BCH   LINE      CODE     ---       #248
      010029C4H   LINE      CODE     ---       #249
      ---         BLOCKEND  ---      ---       LVL=0

      ---         MODULE    ---      ---       EEPROM
      000000C8H.0 SFRSYM    DATA     BIT       T2I0
      000000C3H   SFRSYM    DATA     BYTE      CCH1
      00000080H   SFRSYM    DATA     BYTE      P0
      000000C8H.1 SFRSYM    DATA     BIT       T2I1
      000000C5H   SFRSYM    DATA     BYTE      CCH2
      00000090H   SFRSYM    DATA     BYTE      P1
      000000C7H   SFRSYM    DATA     BYTE      CCH3
      000000ACH   SFRSYM    DATA     BYTE      P0EXTIE
      000000A0H   SFRSYM    DATA     BYTE      P2
      000000B4H   SFRSYM    DATA     BYTE      P0EXTIF
      000000ADH   SFRSYM    DATA     BYTE      P1EXTIE
      000000D0H.6 SFRSYM    DATA     BIT       AC
      000000FFH   SFRSYM    DATA     BYTE      MCTRL
      000000C2H   SFRSYM    DATA     BYTE      CCL1
      000000B5H   SFRSYM    DATA     BYTE      P1EXTIF
      000000AEH   SFRSYM    DATA     BYTE      P2EXTIE
      000000D8H   SFRSYM    DATA     BYTE      P5
      000000C4H   SFRSYM    DATA     BYTE      CCL2
      000000B6H   SFRSYM    DATA     BYTE      P2EXTIF
      000000A8H.7 SFRSYM    DATA     BIT       EA
      000000C6H   SFRSYM    DATA     BYTE      CCL3
      000000AAH   SFRSYM    DATA     BYTE      EIE2
      000000B2H   SFRSYM    DATA     BYTE      EIF2
      0000009CH   SFRSYM    DATA     BYTE      P5EXTIE
      000000A7H   SFRSYM    DATA     BYTE      P5EXTIF
      000000C8H.3 SFRSYM    DATA     BIT       T2R0
      000000C8H.4 SFRSYM    DATA     BIT       T2R1
LX51 LINKER/LOCATER V4.66.93.0                                                        06/27/2023  19:17:35  PAGE 114


      00000083H   SFRSYM    DATA     BYTE      DPH0
      000000A8H   SFRSYM    DATA     BYTE      IE
      00000085H   SFRSYM    DATA     BYTE      DPH1
      00000080H.0 SFRSYM    DATA     BIT       P0_0
      000000B9H   SFRSYM    DATA     BYTE      EIP1
      00000090H.0 SFRSYM    DATA     BIT       P1_0
      00000080H.1 SFRSYM    DATA     BIT       P0_1
      000000BAH   SFRSYM    DATA     BYTE      EIP2
      00000082H   SFRSYM    DATA     BYTE      DPL0
      000000A0H.0 SFRSYM    DATA     BIT       P2_0
      00000090H.1 SFRSYM    DATA     BIT       P1_1
      00000080H.2 SFRSYM    DATA     BIT       P0_2
      000000BBH   SFRSYM    DATA     BYTE      EIP3
      00000084H   SFRSYM    DATA     BYTE      DPL1
      000000A0H.1 SFRSYM    DATA     BIT       P2_1
      00000090H.2 SFRSYM    DATA     BIT       P1_2
      00000080H.3 SFRSYM    DATA     BIT       P0_3
      000000A0H.2 SFRSYM    DATA     BIT       P2_2
      00000090H.3 SFRSYM    DATA     BIT       P1_3
      00000080H.4 SFRSYM    DATA     BIT       P0_4
      000000D8H.0 SFRSYM    DATA     BIT       P5_0
      000000C8H.6 SFRSYM    DATA     BIT       I3FR
      000000A0H.3 SFRSYM    DATA     BIT       P2_3
      00000090H.4 SFRSYM    DATA     BIT       P1_4
      00000080H.5 SFRSYM    DATA     BIT       P0_5
      000000CFH   SFRSYM    DATA     BYTE      T2IE
      00000096H   SFRSYM    DATA     BYTE      TA
      000000D8H.1 SFRSYM    DATA     BIT       P5_1
      000000A0H.4 SFRSYM    DATA     BIT       P2_4
      00000090H.5 SFRSYM    DATA     BIT       P1_5
      00000080H.6 SFRSYM    DATA     BIT       P0_6
      000000C9H   SFRSYM    DATA     BYTE      T2IF
      000000D8H.2 SFRSYM    DATA     BIT       P5_2
      000000C8H.2 SFRSYM    DATA     BIT       T2CM
      000000A0H.5 SFRSYM    DATA     BIT       P2_5
      00000090H.6 SFRSYM    DATA     BIT       P1_6
      00000080H.7 SFRSYM    DATA     BIT       P0_7
      000000DFH   SFRSYM    DATA     BYTE      ADCON0
      000000D8H.3 SFRSYM    DATA     BIT       P5_3
      000000A0H.6 SFRSYM    DATA     BIT       P2_6
      00000090H.7 SFRSYM    DATA     BIT       P1_7
      000000DEH   SFRSYM    DATA     BYTE      ADCON1
      000000D8H.4 SFRSYM    DATA     BIT       P5_4
      000000A0H.7 SFRSYM    DATA     BIT       P2_7
      000000E9H   SFRSYM    DATA     BYTE      ADCON2
      000000B8H   SFRSYM    DATA     BYTE      IP
      000000D8H.5 SFRSYM    DATA     BIT       P5_5
      000000CEH   SFRSYM    DATA     BYTE      CCEN
      000000D8H.6 SFRSYM    DATA     BIT       P5_6
      000000D8H.7 SFRSYM    DATA     BIT       P5_7
      000000D0H.7 SFRSYM    DATA     BIT       CY
      000000D2H   SFRSYM    DATA     BYTE      T34MOD
      000000F4H   SFRSYM    DATA     BYTE      I2CMSA
      000000D7H   SFRSYM    DATA     BYTE      SCKSTAU
      000000F5H   SFRSYM    DATA     BYTE      I2CMCR
      00000081H   SFRSYM    DATA     BYTE      SP
      000000D0H.2 SFRSYM    DATA     BIT       OV
      000000F2H   SFRSYM    DATA     BYTE      I2CSCR
      000000D9H   SFRSYM    DATA     BYTE      ADCCHS
      000000C8H.7 SFRSYM    DATA     BIT       T2PS
      000000D1H   SFRSYM    DATA     BYTE      ADCMPC
      000000CBH   SFRSYM    DATA     BYTE      RLDH
      000000D5H   SFRSYM    DATA     BYTE      ADCMPH
      000000CAH   SFRSYM    DATA     BYTE      RLDL
      00000080H.0 SFRSYM    DATA     BIT       P00
LX51 LINKER/LOCATER V4.66.93.0                                                        06/27/2023  19:17:35  PAGE 115


      00000090H.0 SFRSYM    DATA     BIT       P10
      00000080H.1 SFRSYM    DATA     BIT       P01
      000000F7H   SFRSYM    DATA     BYTE      I2CMTP
      00000087H   SFRSYM    DATA     BYTE      PCON
      000000A0H.0 SFRSYM    DATA     BIT       P20
      00000090H.1 SFRSYM    DATA     BIT       P11
      00000080H.2 SFRSYM    DATA     BIT       P02
      000000F5H   SFRSYM    DATA     BYTE      I2CMSR
      000000A0H.1 SFRSYM    DATA     BIT       P21
      00000090H.2 SFRSYM    DATA     BIT       P12
      00000080H.3 SFRSYM    DATA     BIT       P03
      000000D4H   SFRSYM    DATA     BYTE      ADCMPL
      000000A0H.2 SFRSYM    DATA     BIT       P22
      00000090H.3 SFRSYM    DATA     BIT       P13
      00000080H.4 SFRSYM    DATA     BIT       P04
      000000D8H.0 SFRSYM    DATA     BIT       P50
      000000A0H.3 SFRSYM    DATA     BIT       P23
      00000090H.4 SFRSYM    DATA     BIT       P14
      00000080H.5 SFRSYM    DATA     BIT       P05
      00000089H   SFRSYM    DATA     BYTE      TMOD
      00000088H   SFRSYM    DATA     BYTE      TCON
      000000D8H.1 SFRSYM    DATA     BIT       P51
      00000090H.5 SFRSYM    DATA     BIT       P15
      00000080H.6 SFRSYM    DATA     BIT       P06
      000000FAH   SFRSYM    DATA     BYTE      PCRCDH
      000000D8H.2 SFRSYM    DATA     BIT       P52
      00000090H.6 SFRSYM    DATA     BIT       P16
      00000080H.7 SFRSYM    DATA     BIT       P07
      000000D8H.3 SFRSYM    DATA     BIT       P53
      00000090H.7 SFRSYM    DATA     BIT       P17
      000000F2H   SFRSYM    DATA     BYTE      I2CSSR
      000000D8H.4 SFRSYM    DATA     BIT       P54
      000000ECH   SFRSYM    DATA     BYTE      SPCR
      000000DDH   SFRSYM    DATA     BYTE      ADRESH
      000000D8H.5 SFRSYM    DATA     BIT       P55
      000000F9H   SFRSYM    DATA     BYTE      PCRCDL
      000000EEH   SFRSYM    DATA     BYTE      SPDR
      000000EFH   SFRSYM    DATA     BYTE      SSCR
      000000D3H   SFRSYM    DATA     BYTE      ADDLYL
      000000DCH   SFRSYM    DATA     BYTE      ADRESL
      00000088H.1 SFRSYM    DATA     BIT       IE0
      00000088H.3 SFRSYM    DATA     BIT       IE1
      0000008FH   SFRSYM    DATA     BYTE      CLKDIV
      000000F0H   SFRSYM    DATA     BYTE      B
      00000091H   SFRSYM    DATA     BYTE      FUNCCR
      0000009AH   SFRSYM    DATA     BYTE      P0TRIS
      000000A1H   SFRSYM    DATA     BYTE      P1TRIS
      000000A2H   SFRSYM    DATA     BYTE      P2TRIS
      000000E0H   SFRSYM    DATA     BYTE      ACC
      000000D6H   SFRSYM    DATA     BYTE      SCKSEL
      000000A8H.4 SFRSYM    DATA     BIT       ES0
      000000A8H.1 SFRSYM    DATA     BIT       ET0
      000000A8H.6 SFRSYM    DATA     BIT       ES1
      000000EDH   SFRSYM    DATA     BYTE      SPSR
      000000A5H   SFRSYM    DATA     BYTE      P5TRIS
      000000A8H.3 SFRSYM    DATA     BIT       ET1
      00000088H.5 SFRSYM    DATA     BIT       TF0
      000000A8H.5 SFRSYM    DATA     BIT       ET2
      00000098H.0 SFRSYM    DATA     BIT       RI0
      00000088H.7 SFRSYM    DATA     BIT       TF1
      0000008CH   SFRSYM    DATA     BYTE      TH0
      000000A8H.0 SFRSYM    DATA     BIT       EX0
      00000098H.1 SFRSYM    DATA     BIT       TI0
      00000088H.0 SFRSYM    DATA     BIT       IT0
      0000008DH   SFRSYM    DATA     BYTE      TH1
LX51 LINKER/LOCATER V4.66.93.0                                                        06/27/2023  19:17:35  PAGE 116


      000000A8H.2 SFRSYM    DATA     BIT       EX1
      00000088H.2 SFRSYM    DATA     BIT       IT1
      000000CDH   SFRSYM    DATA     BYTE      TH2
      000000D0H.0 SFRSYM    DATA     BIT       P
      000000DBH   SFRSYM    DATA     BYTE      TH3
      000000E3H   SFRSYM    DATA     BYTE      TH4
      0000008AH   SFRSYM    DATA     BYTE      TL0
      000000F0H.0 SFRSYM    DATA     BIT       B_0
      0000008BH   SFRSYM    DATA     BYTE      TL1
      000000F0H.1 SFRSYM    DATA     BIT       B_1
      00000098H.2 SFRSYM    DATA     BIT       U0RB8
      000000CCH   SFRSYM    DATA     BYTE      TL2
      000000F0H.2 SFRSYM    DATA     BIT       B_2
      000000B8H.4 SFRSYM    DATA     BIT       PS0
      000000DAH   SFRSYM    DATA     BYTE      TL3
      000000BFH   SFRSYM    DATA     BYTE      BUZCON
      000000F0H.3 SFRSYM    DATA     BIT       B_3
      000000B8H.1 SFRSYM    DATA     BIT       PT0
      000000B8H.6 SFRSYM    DATA     BIT       PS1
      00000098H.3 SFRSYM    DATA     BIT       U0TB8
      000000E2H   SFRSYM    DATA     BYTE      TL4
      000000F0H.4 SFRSYM    DATA     BIT       B_4
      000000D0H.3 SFRSYM    DATA     BIT       RS0
      000000B8H.3 SFRSYM    DATA     BIT       PT1
      000000F0H.5 SFRSYM    DATA     BIT       B_5
      000000D0H.4 SFRSYM    DATA     BIT       RS1
      000000B8H.5 SFRSYM    DATA     BIT       PT2
      00000098H.7 SFRSYM    DATA     BIT       U0SM0
      00000088H.4 SFRSYM    DATA     BIT       TR0
      000000BEH   SFRSYM    DATA     BYTE      BUZDIV
      000000F0H.6 SFRSYM    DATA     BIT       B_6
      000000E0H.0 SFRSYM    DATA     BIT       ACC_0
      00000098H.6 SFRSYM    DATA     BIT       U0SM1
      00000088H.6 SFRSYM    DATA     BIT       TR1
      000000F0H.7 SFRSYM    DATA     BIT       B_7
      000000E0H.1 SFRSYM    DATA     BIT       ACC_1
      000000B8H.0 SFRSYM    DATA     BIT       PX0
      00000098H.5 SFRSYM    DATA     BIT       U0SM2
      000000E0H.2 SFRSYM    DATA     BIT       ACC_2
      000000B8H.2 SFRSYM    DATA     BIT       PX1
      000000E0H.3 SFRSYM    DATA     BIT       ACC_3
      000000E0H.4 SFRSYM    DATA     BIT       ACC_4
      000000E0H.5 SFRSYM    DATA     BIT       ACC_5
      000000E0H.6 SFRSYM    DATA     BIT       ACC_6
      000000E0H.7 SFRSYM    DATA     BIT       ACC_7
      000000BDH   SFRSYM    DATA     BYTE      WUTCRH
      00000099H   SFRSYM    DATA     BYTE      SBUF0
      000000EBH   SFRSYM    DATA     BYTE      SBUF1
      000000BCH   SFRSYM    DATA     BYTE      WUTCRL
      00000098H   SFRSYM    DATA     BYTE      SCON0
      000000EAH   SFRSYM    DATA     BYTE      SCON1
      000000C8H   SFRSYM    DATA     BYTE      T2CON
      00000086H   SFRSYM    DATA     BYTE      DPS
      000000FEH   SFRSYM    DATA     BYTE      MDATA
      000000F6H   SFRSYM    DATA     BYTE      I2CMBUF
      000000F1H   SFRSYM    DATA     BYTE      I2CSADR
      00000098H.4 SFRSYM    DATA     BIT       U0REN
      000000C8H.5 SFRSYM    DATA     BIT       CAPES
      000000FDH   SFRSYM    DATA     BYTE      MADRH
      0000008EH   SFRSYM    DATA     BYTE      CKCON
      000000F3H   SFRSYM    DATA     BYTE      I2CSBUF
      000000FCH   SFRSYM    DATA     BYTE      MADRL
      000000D0H.5 SFRSYM    DATA     BIT       F0
      000000FBH   SFRSYM    DATA     BYTE      MLOCK
      000000D0H   SFRSYM    DATA     BYTE      PSW
LX51 LINKER/LOCATER V4.66.93.0                                                        06/27/2023  19:17:35  PAGE 117


      00000097H   SFRSYM    DATA     BYTE      WDCON

      ---         MODULE    ---      ---       GETADC
      0100206FH   PUBLIC    CODE     ---       _Read_ADC
      01002D44H   PUBLIC    CODE     ---       GetADC_Init
      000000C8H.0 SFRSYM    DATA     BIT       T2I0
      000000C3H   SFRSYM    DATA     BYTE      CCH1
      00000080H   SFRSYM    DATA     BYTE      P0
      000000C8H.1 SFRSYM    DATA     BIT       T2I1
      000000C5H   SFRSYM    DATA     BYTE      CCH2
      00000090H   SFRSYM    DATA     BYTE      P1
      000000C7H   SFRSYM    DATA     BYTE      CCH3
      000000ACH   SFRSYM    DATA     BYTE      P0EXTIE
      000000A0H   SFRSYM    DATA     BYTE      P2
      000000B4H   SFRSYM    DATA     BYTE      P0EXTIF
      000000ADH   SFRSYM    DATA     BYTE      P1EXTIE
      000000D0H.6 SFRSYM    DATA     BIT       AC
      000000FFH   SFRSYM    DATA     BYTE      MCTRL
      000000C2H   SFRSYM    DATA     BYTE      CCL1
      000000B5H   SFRSYM    DATA     BYTE      P1EXTIF
      000000AEH   SFRSYM    DATA     BYTE      P2EXTIE
      000000D8H   SFRSYM    DATA     BYTE      P5
      000000C4H   SFRSYM    DATA     BYTE      CCL2
      000000B6H   SFRSYM    DATA     BYTE      P2EXTIF
      000000A8H.7 SFRSYM    DATA     BIT       EA
      000000C6H   SFRSYM    DATA     BYTE      CCL3
      000000AAH   SFRSYM    DATA     BYTE      EIE2
      000000B2H   SFRSYM    DATA     BYTE      EIF2
      0000009CH   SFRSYM    DATA     BYTE      P5EXTIE
      000000A7H   SFRSYM    DATA     BYTE      P5EXTIF
      000000C8H.3 SFRSYM    DATA     BIT       T2R0
      000000C8H.4 SFRSYM    DATA     BIT       T2R1
      00000083H   SFRSYM    DATA     BYTE      DPH0
      000000A8H   SFRSYM    DATA     BYTE      IE
      00000085H   SFRSYM    DATA     BYTE      DPH1
      00000080H.0 SFRSYM    DATA     BIT       P0_0
      000000B9H   SFRSYM    DATA     BYTE      EIP1
      00000090H.0 SFRSYM    DATA     BIT       P1_0
      00000080H.1 SFRSYM    DATA     BIT       P0_1
      000000BAH   SFRSYM    DATA     BYTE      EIP2
      00000082H   SFRSYM    DATA     BYTE      DPL0
      000000A0H.0 SFRSYM    DATA     BIT       P2_0
      00000090H.1 SFRSYM    DATA     BIT       P1_1
      00000080H.2 SFRSYM    DATA     BIT       P0_2
      000000BBH   SFRSYM    DATA     BYTE      EIP3
      00000084H   SFRSYM    DATA     BYTE      DPL1
      000000A0H.1 SFRSYM    DATA     BIT       P2_1
      00000090H.2 SFRSYM    DATA     BIT       P1_2
      00000080H.3 SFRSYM    DATA     BIT       P0_3
      000000A0H.2 SFRSYM    DATA     BIT       P2_2
      00000090H.3 SFRSYM    DATA     BIT       P1_3
      00000080H.4 SFRSYM    DATA     BIT       P0_4
      000000D8H.0 SFRSYM    DATA     BIT       P5_0
      000000C8H.6 SFRSYM    DATA     BIT       I3FR
      000000A0H.3 SFRSYM    DATA     BIT       P2_3
      00000090H.4 SFRSYM    DATA     BIT       P1_4
      00000080H.5 SFRSYM    DATA     BIT       P0_5
      000000CFH   SFRSYM    DATA     BYTE      T2IE
      00000096H   SFRSYM    DATA     BYTE      TA
      000000D8H.1 SFRSYM    DATA     BIT       P5_1
      000000A0H.4 SFRSYM    DATA     BIT       P2_4
      00000090H.5 SFRSYM    DATA     BIT       P1_5
      00000080H.6 SFRSYM    DATA     BIT       P0_6
      000000C9H   SFRSYM    DATA     BYTE      T2IF
      000000D8H.2 SFRSYM    DATA     BIT       P5_2
LX51 LINKER/LOCATER V4.66.93.0                                                        06/27/2023  19:17:35  PAGE 118


      000000C8H.2 SFRSYM    DATA     BIT       T2CM
      000000A0H.5 SFRSYM    DATA     BIT       P2_5
      00000090H.6 SFRSYM    DATA     BIT       P1_6
      00000080H.7 SFRSYM    DATA     BIT       P0_7
      000000DFH   SFRSYM    DATA     BYTE      ADCON0
      000000D8H.3 SFRSYM    DATA     BIT       P5_3
      000000A0H.6 SFRSYM    DATA     BIT       P2_6
      00000090H.7 SFRSYM    DATA     BIT       P1_7
      000000DEH   SFRSYM    DATA     BYTE      ADCON1
      000000D8H.4 SFRSYM    DATA     BIT       P5_4
      000000A0H.7 SFRSYM    DATA     BIT       P2_7
      000000E9H   SFRSYM    DATA     BYTE      ADCON2
      000000B8H   SFRSYM    DATA     BYTE      IP
      000000D8H.5 SFRSYM    DATA     BIT       P5_5
      000000CEH   SFRSYM    DATA     BYTE      CCEN
      000000D8H.6 SFRSYM    DATA     BIT       P5_6
      000000D8H.7 SFRSYM    DATA     BIT       P5_7
      000000D0H.7 SFRSYM    DATA     BIT       CY
      000000D2H   SFRSYM    DATA     BYTE      T34MOD
      000000F4H   SFRSYM    DATA     BYTE      I2CMSA
      000000D7H   SFRSYM    DATA     BYTE      SCKSTAU
      000000F5H   SFRSYM    DATA     BYTE      I2CMCR
      00000081H   SFRSYM    DATA     BYTE      SP
      000000D0H.2 SFRSYM    DATA     BIT       OV
      000000F2H   SFRSYM    DATA     BYTE      I2CSCR
      000000D9H   SFRSYM    DATA     BYTE      ADCCHS
      000000C8H.7 SFRSYM    DATA     BIT       T2PS
      000000D1H   SFRSYM    DATA     BYTE      ADCMPC
      000000CBH   SFRSYM    DATA     BYTE      RLDH
      000000D5H   SFRSYM    DATA     BYTE      ADCMPH
      000000CAH   SFRSYM    DATA     BYTE      RLDL
      00000080H.0 SFRSYM    DATA     BIT       P00
      00000090H.0 SFRSYM    DATA     BIT       P10
      00000080H.1 SFRSYM    DATA     BIT       P01
      000000F7H   SFRSYM    DATA     BYTE      I2CMTP
      00000087H   SFRSYM    DATA     BYTE      PCON
      000000A0H.0 SFRSYM    DATA     BIT       P20
      00000090H.1 SFRSYM    DATA     BIT       P11
      00000080H.2 SFRSYM    DATA     BIT       P02
      000000F5H   SFRSYM    DATA     BYTE      I2CMSR
      000000A0H.1 SFRSYM    DATA     BIT       P21
      00000090H.2 SFRSYM    DATA     BIT       P12
      00000080H.3 SFRSYM    DATA     BIT       P03
      000000D4H   SFRSYM    DATA     BYTE      ADCMPL
      000000A0H.2 SFRSYM    DATA     BIT       P22
      00000090H.3 SFRSYM    DATA     BIT       P13
      00000080H.4 SFRSYM    DATA     BIT       P04
      000000D8H.0 SFRSYM    DATA     BIT       P50
      000000A0H.3 SFRSYM    DATA     BIT       P23
      00000090H.4 SFRSYM    DATA     BIT       P14
      00000080H.5 SFRSYM    DATA     BIT       P05
      00000089H   SFRSYM    DATA     BYTE      TMOD
      00000088H   SFRSYM    DATA     BYTE      TCON
      000000D8H.1 SFRSYM    DATA     BIT       P51
      00000090H.5 SFRSYM    DATA     BIT       P15
      00000080H.6 SFRSYM    DATA     BIT       P06
      000000FAH   SFRSYM    DATA     BYTE      PCRCDH
      000000D8H.2 SFRSYM    DATA     BIT       P52
      00000090H.6 SFRSYM    DATA     BIT       P16
      00000080H.7 SFRSYM    DATA     BIT       P07
      000000D8H.3 SFRSYM    DATA     BIT       P53
      00000090H.7 SFRSYM    DATA     BIT       P17
      000000F2H   SFRSYM    DATA     BYTE      I2CSSR
      000000D8H.4 SFRSYM    DATA     BIT       P54
      000000ECH   SFRSYM    DATA     BYTE      SPCR
LX51 LINKER/LOCATER V4.66.93.0                                                        06/27/2023  19:17:35  PAGE 119


      000000DDH   SFRSYM    DATA     BYTE      ADRESH
      000000D8H.5 SFRSYM    DATA     BIT       P55
      000000F9H   SFRSYM    DATA     BYTE      PCRCDL
      000000EEH   SFRSYM    DATA     BYTE      SPDR
      000000EFH   SFRSYM    DATA     BYTE      SSCR
      000000D3H   SFRSYM    DATA     BYTE      ADDLYL
      000000DCH   SFRSYM    DATA     BYTE      ADRESL
      00000088H.1 SFRSYM    DATA     BIT       IE0
      00000088H.3 SFRSYM    DATA     BIT       IE1
      0000008FH   SFRSYM    DATA     BYTE      CLKDIV
      000000F0H   SFRSYM    DATA     BYTE      B
      00000091H   SFRSYM    DATA     BYTE      FUNCCR
      0000009AH   SFRSYM    DATA     BYTE      P0TRIS
      000000A1H   SFRSYM    DATA     BYTE      P1TRIS
      000000A2H   SFRSYM    DATA     BYTE      P2TRIS
      000000E0H   SFRSYM    DATA     BYTE      ACC
      000000D6H   SFRSYM    DATA     BYTE      SCKSEL
      000000A8H.4 SFRSYM    DATA     BIT       ES0
      000000A8H.1 SFRSYM    DATA     BIT       ET0
      000000A8H.6 SFRSYM    DATA     BIT       ES1
      000000EDH   SFRSYM    DATA     BYTE      SPSR
      000000A5H   SFRSYM    DATA     BYTE      P5TRIS
      000000A8H.3 SFRSYM    DATA     BIT       ET1
      00000088H.5 SFRSYM    DATA     BIT       TF0
      000000A8H.5 SFRSYM    DATA     BIT       ET2
      00000098H.0 SFRSYM    DATA     BIT       RI0
      00000088H.7 SFRSYM    DATA     BIT       TF1
      0000008CH   SFRSYM    DATA     BYTE      TH0
      000000A8H.0 SFRSYM    DATA     BIT       EX0
      00000098H.1 SFRSYM    DATA     BIT       TI0
      00000088H.0 SFRSYM    DATA     BIT       IT0
      0000008DH   SFRSYM    DATA     BYTE      TH1
      000000A8H.2 SFRSYM    DATA     BIT       EX1
      00000088H.2 SFRSYM    DATA     BIT       IT1
      000000CDH   SFRSYM    DATA     BYTE      TH2
      000000D0H.0 SFRSYM    DATA     BIT       P
      000000DBH   SFRSYM    DATA     BYTE      TH3
      000000E3H   SFRSYM    DATA     BYTE      TH4
      0000008AH   SFRSYM    DATA     BYTE      TL0
      000000F0H.0 SFRSYM    DATA     BIT       B_0
      0000008BH   SFRSYM    DATA     BYTE      TL1
      000000F0H.1 SFRSYM    DATA     BIT       B_1
      00000098H.2 SFRSYM    DATA     BIT       U0RB8
      000000CCH   SFRSYM    DATA     BYTE      TL2
      000000F0H.2 SFRSYM    DATA     BIT       B_2
      000000B8H.4 SFRSYM    DATA     BIT       PS0
      000000DAH   SFRSYM    DATA     BYTE      TL3
      000000BFH   SFRSYM    DATA     BYTE      BUZCON
      000000F0H.3 SFRSYM    DATA     BIT       B_3
      000000B8H.1 SFRSYM    DATA     BIT       PT0
      000000B8H.6 SFRSYM    DATA     BIT       PS1
      00000098H.3 SFRSYM    DATA     BIT       U0TB8
      000000E2H   SFRSYM    DATA     BYTE      TL4
      000000F0H.4 SFRSYM    DATA     BIT       B_4
      000000D0H.3 SFRSYM    DATA     BIT       RS0
      000000B8H.3 SFRSYM    DATA     BIT       PT1
      000000F0H.5 SFRSYM    DATA     BIT       B_5
      000000D0H.4 SFRSYM    DATA     BIT       RS1
      000000B8H.5 SFRSYM    DATA     BIT       PT2
      00000098H.7 SFRSYM    DATA     BIT       U0SM0
      00000088H.4 SFRSYM    DATA     BIT       TR0
      000000BEH   SFRSYM    DATA     BYTE      BUZDIV
      000000F0H.6 SFRSYM    DATA     BIT       B_6
      000000E0H.0 SFRSYM    DATA     BIT       ACC_0
      00000098H.6 SFRSYM    DATA     BIT       U0SM1
LX51 LINKER/LOCATER V4.66.93.0                                                        06/27/2023  19:17:35  PAGE 120


      00000088H.6 SFRSYM    DATA     BIT       TR1
      000000F0H.7 SFRSYM    DATA     BIT       B_7
      000000E0H.1 SFRSYM    DATA     BIT       ACC_1
      000000B8H.0 SFRSYM    DATA     BIT       PX0
      00000098H.5 SFRSYM    DATA     BIT       U0SM2
      000000E0H.2 SFRSYM    DATA     BIT       ACC_2
      000000B8H.2 SFRSYM    DATA     BIT       PX1
      000000E0H.3 SFRSYM    DATA     BIT       ACC_3
      000000E0H.4 SFRSYM    DATA     BIT       ACC_4
      000000E0H.5 SFRSYM    DATA     BIT       ACC_5
      000000E0H.6 SFRSYM    DATA     BIT       ACC_6
      000000E0H.7 SFRSYM    DATA     BIT       ACC_7
      000000BDH   SFRSYM    DATA     BYTE      WUTCRH
      00000099H   SFRSYM    DATA     BYTE      SBUF0
      000000EBH   SFRSYM    DATA     BYTE      SBUF1
      000000BCH   SFRSYM    DATA     BYTE      WUTCRL
      00000098H   SFRSYM    DATA     BYTE      SCON0
      000000EAH   SFRSYM    DATA     BYTE      SCON1
      000000C8H   SFRSYM    DATA     BYTE      T2CON
      00000086H   SFRSYM    DATA     BYTE      DPS
      000000FEH   SFRSYM    DATA     BYTE      MDATA
      000000F6H   SFRSYM    DATA     BYTE      I2CMBUF
      000000F1H   SFRSYM    DATA     BYTE      I2CSADR
      00000098H.4 SFRSYM    DATA     BIT       U0REN
      000000C8H.5 SFRSYM    DATA     BIT       CAPES
      000000FDH   SFRSYM    DATA     BYTE      MADRH
      0000008EH   SFRSYM    DATA     BYTE      CKCON
      000000F3H   SFRSYM    DATA     BYTE      I2CSBUF
      000000FCH   SFRSYM    DATA     BYTE      MADRL
      000000D0H.5 SFRSYM    DATA     BIT       F0
      000000FBH   SFRSYM    DATA     BYTE      MLOCK
      000000D0H   SFRSYM    DATA     BYTE      PSW
      00000097H   SFRSYM    DATA     BYTE      WDCON

      01002D44H   BLOCK     CODE     ---       LVL=0
      01002D44H   LINE      CODE     ---       #6
      01002D44H   LINE      CODE     ---       #7
      01002D44H   LINE      CODE     ---       #9
      01002D4BH   LINE      CODE     ---       #10
      01002D4EH   LINE      CODE     ---       #13
      01002D54H   LINE      CODE     ---       #17
      01002D59H   LINE      CODE     ---       #18
      ---         BLOCKEND  ---      ---       LVL=0

      0100206FH   BLOCK     CODE     ---       LVL=0
      00000007H   SYMBOL    DATA     BYTE      chn
      0100206FH   BLOCK     CODE     NEAR LAB  LVL=1
      0000000FH   SYMBOL    DATA     BYTE      i
      00000010H   SYMBOL    DATA     WORD      ADCMin
      00000012H   SYMBOL    DATA     WORD      ADCMax
      00000014H   SYMBOL    DATA     WORD      ADCSum
      00000006H   SYMBOL    DATA     WORD      ADCValue
      ---         BLOCKEND  ---      ---       LVL=1
      0100206FH   LINE      CODE     ---       #21
      0100206FH   LINE      CODE     ---       #22
      0100206FH   LINE      CODE     ---       #30
      01002072H   LINE      CODE     ---       #31
      01002073H   LINE      CODE     ---       #32
      01002074H   LINE      CODE     ---       #33
      01002075H   LINE      CODE     ---       #34
      01002076H   LINE      CODE     ---       #36
      0100207BH   LINE      CODE     ---       #37
      01002081H   LINE      CODE     ---       #38
      01002086H   LINE      CODE     ---       #39
      01002093H   LINE      CODE     ---       #40
LX51 LINKER/LOCATER V4.66.93.0                                                        06/27/2023  19:17:35  PAGE 121


      01002093H   LINE      CODE     ---       #41
      01002094H   LINE      CODE     ---       #42
      01002095H   LINE      CODE     ---       #43
      01002098H   LINE      CODE     ---       #44
      010020A0H   LINE      CODE     ---       #45
      010020A3H   LINE      CODE     ---       #46
      010020ADH   LINE      CODE     ---       #47
      010020B6H   LINE      CODE     ---       #48
      010020BAH   LINE      CODE     ---       #49
      010020C3H   LINE      CODE     ---       #50
      010020C7H   LINE      CODE     ---       #51
      010020CBH   LINE      CODE     ---       #53
      010020D8H   LINE      CODE     ---       #54
      010020E5H   LINE      CODE     ---       #55
      010020F5H   LINE      CODE     ---       #63
      010020F6H   LINE      CODE     ---       #64
      ---         BLOCKEND  ---      ---       LVL=0

      ---         MODULE    ---      ---       HEATER
      00000022H.0 PUBLIC    BIT      BIT       bHeaterOn
      00000047H   PUBLIC    DATA     BYTE      TempHiCheckTmr
      00000046H   PUBLIC    DATA     BYTE      TempHiCheckCnt
      00000021H.7 PUBLIC    BIT      BIT       bTempHi
      00000021H.6 PUBLIC    BIT      BIT       bResetTempHiCheck
      01002274H   PUBLIC    CODE     ---       Heater_Run_Task
      01002C65H   PUBLIC    CODE     ---       Heater_Init
      000000C8H.0 SFRSYM    DATA     BIT       T2I0
      000000C3H   SFRSYM    DATA     BYTE      CCH1
      00000080H   SFRSYM    DATA     BYTE      P0
      000000C8H.1 SFRSYM    DATA     BIT       T2I1
      000000C5H   SFRSYM    DATA     BYTE      CCH2
      00000090H   SFRSYM    DATA     BYTE      P1
      000000C7H   SFRSYM    DATA     BYTE      CCH3
      000000ACH   SFRSYM    DATA     BYTE      P0EXTIE
      000000A0H   SFRSYM    DATA     BYTE      P2
      000000B4H   SFRSYM    DATA     BYTE      P0EXTIF
      000000ADH   SFRSYM    DATA     BYTE      P1EXTIE
      000000D0H.6 SFRSYM    DATA     BIT       AC
      000000FFH   SFRSYM    DATA     BYTE      MCTRL
      000000C2H   SFRSYM    DATA     BYTE      CCL1
      000000B5H   SFRSYM    DATA     BYTE      P1EXTIF
      000000AEH   SFRSYM    DATA     BYTE      P2EXTIE
      000000D8H   SFRSYM    DATA     BYTE      P5
      000000C4H   SFRSYM    DATA     BYTE      CCL2
      000000B6H   SFRSYM    DATA     BYTE      P2EXTIF
      000000A8H.7 SFRSYM    DATA     BIT       EA
      000000C6H   SFRSYM    DATA     BYTE      CCL3
      000000AAH   SFRSYM    DATA     BYTE      EIE2
      000000B2H   SFRSYM    DATA     BYTE      EIF2
      0000009CH   SFRSYM    DATA     BYTE      P5EXTIE
      000000A7H   SFRSYM    DATA     BYTE      P5EXTIF
      000000C8H.3 SFRSYM    DATA     BIT       T2R0
      000000C8H.4 SFRSYM    DATA     BIT       T2R1
      00000083H   SFRSYM    DATA     BYTE      DPH0
      000000A8H   SFRSYM    DATA     BYTE      IE
      00000085H   SFRSYM    DATA     BYTE      DPH1
      00000080H.0 SFRSYM    DATA     BIT       P0_0
      000000B9H   SFRSYM    DATA     BYTE      EIP1
      00000090H.0 SFRSYM    DATA     BIT       P1_0
      00000080H.1 SFRSYM    DATA     BIT       P0_1
      000000BAH   SFRSYM    DATA     BYTE      EIP2
      00000082H   SFRSYM    DATA     BYTE      DPL0
      000000A0H.0 SFRSYM    DATA     BIT       P2_0
      00000090H.1 SFRSYM    DATA     BIT       P1_1
      00000080H.2 SFRSYM    DATA     BIT       P0_2
LX51 LINKER/LOCATER V4.66.93.0                                                        06/27/2023  19:17:35  PAGE 122


      000000BBH   SFRSYM    DATA     BYTE      EIP3
      00000084H   SFRSYM    DATA     BYTE      DPL1
      000000A0H.1 SFRSYM    DATA     BIT       P2_1
      00000090H.2 SFRSYM    DATA     BIT       P1_2
      00000080H.3 SFRSYM    DATA     BIT       P0_3
      000000A0H.2 SFRSYM    DATA     BIT       P2_2
      00000090H.3 SFRSYM    DATA     BIT       P1_3
      00000080H.4 SFRSYM    DATA     BIT       P0_4
      000000D8H.0 SFRSYM    DATA     BIT       P5_0
      000000C8H.6 SFRSYM    DATA     BIT       I3FR
      000000A0H.3 SFRSYM    DATA     BIT       P2_3
      00000090H.4 SFRSYM    DATA     BIT       P1_4
      00000080H.5 SFRSYM    DATA     BIT       P0_5
      000000CFH   SFRSYM    DATA     BYTE      T2IE
      00000096H   SFRSYM    DATA     BYTE      TA
      000000D8H.1 SFRSYM    DATA     BIT       P5_1
      000000A0H.4 SFRSYM    DATA     BIT       P2_4
      00000090H.5 SFRSYM    DATA     BIT       P1_5
      00000080H.6 SFRSYM    DATA     BIT       P0_6
      000000C9H   SFRSYM    DATA     BYTE      T2IF
      000000D8H.2 SFRSYM    DATA     BIT       P5_2
      000000C8H.2 SFRSYM    DATA     BIT       T2CM
      000000A0H.5 SFRSYM    DATA     BIT       P2_5
      00000090H.6 SFRSYM    DATA     BIT       P1_6
      00000080H.7 SFRSYM    DATA     BIT       P0_7
      000000DFH   SFRSYM    DATA     BYTE      ADCON0
      000000D8H.3 SFRSYM    DATA     BIT       P5_3
      000000A0H.6 SFRSYM    DATA     BIT       P2_6
      00000090H.7 SFRSYM    DATA     BIT       P1_7
      000000DEH   SFRSYM    DATA     BYTE      ADCON1
      000000D8H.4 SFRSYM    DATA     BIT       P5_4
      000000A0H.7 SFRSYM    DATA     BIT       P2_7
      000000E9H   SFRSYM    DATA     BYTE      ADCON2
      000000B8H   SFRSYM    DATA     BYTE      IP
      000000D8H.5 SFRSYM    DATA     BIT       P5_5
      000000CEH   SFRSYM    DATA     BYTE      CCEN
      000000D8H.6 SFRSYM    DATA     BIT       P5_6
      000000D8H.7 SFRSYM    DATA     BIT       P5_7
      000000D0H.7 SFRSYM    DATA     BIT       CY
      000000D2H   SFRSYM    DATA     BYTE      T34MOD
      000000F4H   SFRSYM    DATA     BYTE      I2CMSA
      000000D7H   SFRSYM    DATA     BYTE      SCKSTAU
      000000F5H   SFRSYM    DATA     BYTE      I2CMCR
      00000081H   SFRSYM    DATA     BYTE      SP
      000000D0H.2 SFRSYM    DATA     BIT       OV
      000000F2H   SFRSYM    DATA     BYTE      I2CSCR
      000000D9H   SFRSYM    DATA     BYTE      ADCCHS
      000000C8H.7 SFRSYM    DATA     BIT       T2PS
      000000D1H   SFRSYM    DATA     BYTE      ADCMPC
      000000CBH   SFRSYM    DATA     BYTE      RLDH
      000000D5H   SFRSYM    DATA     BYTE      ADCMPH
      000000CAH   SFRSYM    DATA     BYTE      RLDL
      00000080H.0 SFRSYM    DATA     BIT       P00
      00000090H.0 SFRSYM    DATA     BIT       P10
      00000080H.1 SFRSYM    DATA     BIT       P01
      000000F7H   SFRSYM    DATA     BYTE      I2CMTP
      00000087H   SFRSYM    DATA     BYTE      PCON
      000000A0H.0 SFRSYM    DATA     BIT       P20
      00000090H.1 SFRSYM    DATA     BIT       P11
      00000080H.2 SFRSYM    DATA     BIT       P02
      000000F5H   SFRSYM    DATA     BYTE      I2CMSR
      000000A0H.1 SFRSYM    DATA     BIT       P21
      00000090H.2 SFRSYM    DATA     BIT       P12
      00000080H.3 SFRSYM    DATA     BIT       P03
      000000D4H   SFRSYM    DATA     BYTE      ADCMPL
LX51 LINKER/LOCATER V4.66.93.0                                                        06/27/2023  19:17:35  PAGE 123


      000000A0H.2 SFRSYM    DATA     BIT       P22
      00000090H.3 SFRSYM    DATA     BIT       P13
      00000080H.4 SFRSYM    DATA     BIT       P04
      000000D8H.0 SFRSYM    DATA     BIT       P50
      000000A0H.3 SFRSYM    DATA     BIT       P23
      00000090H.4 SFRSYM    DATA     BIT       P14
      00000080H.5 SFRSYM    DATA     BIT       P05
      00000089H   SFRSYM    DATA     BYTE      TMOD
      00000088H   SFRSYM    DATA     BYTE      TCON
      000000D8H.1 SFRSYM    DATA     BIT       P51
      00000090H.5 SFRSYM    DATA     BIT       P15
      00000080H.6 SFRSYM    DATA     BIT       P06
      000000FAH   SFRSYM    DATA     BYTE      PCRCDH
      000000D8H.2 SFRSYM    DATA     BIT       P52
      00000090H.6 SFRSYM    DATA     BIT       P16
      00000080H.7 SFRSYM    DATA     BIT       P07
      000000D8H.3 SFRSYM    DATA     BIT       P53
      00000090H.7 SFRSYM    DATA     BIT       P17
      000000F2H   SFRSYM    DATA     BYTE      I2CSSR
      000000D8H.4 SFRSYM    DATA     BIT       P54
      000000ECH   SFRSYM    DATA     BYTE      SPCR
      000000DDH   SFRSYM    DATA     BYTE      ADRESH
      000000D8H.5 SFRSYM    DATA     BIT       P55
      000000F9H   SFRSYM    DATA     BYTE      PCRCDL
      000000EEH   SFRSYM    DATA     BYTE      SPDR
      000000EFH   SFRSYM    DATA     BYTE      SSCR
      000000D3H   SFRSYM    DATA     BYTE      ADDLYL
      000000DCH   SFRSYM    DATA     BYTE      ADRESL
      00000088H.1 SFRSYM    DATA     BIT       IE0
      00000088H.3 SFRSYM    DATA     BIT       IE1
      0000008FH   SFRSYM    DATA     BYTE      CLKDIV
      000000F0H   SFRSYM    DATA     BYTE      B
      00000091H   SFRSYM    DATA     BYTE      FUNCCR
      0000009AH   SFRSYM    DATA     BYTE      P0TRIS
      000000A1H   SFRSYM    DATA     BYTE      P1TRIS
      000000A2H   SFRSYM    DATA     BYTE      P2TRIS
      000000E0H   SFRSYM    DATA     BYTE      ACC
      000000D6H   SFRSYM    DATA     BYTE      SCKSEL
      000000A8H.4 SFRSYM    DATA     BIT       ES0
      000000A8H.1 SFRSYM    DATA     BIT       ET0
      000000A8H.6 SFRSYM    DATA     BIT       ES1
      000000EDH   SFRSYM    DATA     BYTE      SPSR
      000000A5H   SFRSYM    DATA     BYTE      P5TRIS
      000000A8H.3 SFRSYM    DATA     BIT       ET1
      00000088H.5 SFRSYM    DATA     BIT       TF0
      000000A8H.5 SFRSYM    DATA     BIT       ET2
      00000098H.0 SFRSYM    DATA     BIT       RI0
      00000088H.7 SFRSYM    DATA     BIT       TF1
      0000008CH   SFRSYM    DATA     BYTE      TH0
      000000A8H.0 SFRSYM    DATA     BIT       EX0
      00000098H.1 SFRSYM    DATA     BIT       TI0
      00000088H.0 SFRSYM    DATA     BIT       IT0
      0000008DH   SFRSYM    DATA     BYTE      TH1
      000000A8H.2 SFRSYM    DATA     BIT       EX1
      00000088H.2 SFRSYM    DATA     BIT       IT1
      000000CDH   SFRSYM    DATA     BYTE      TH2
      000000D0H.0 SFRSYM    DATA     BIT       P
      000000DBH   SFRSYM    DATA     BYTE      TH3
      000000E3H   SFRSYM    DATA     BYTE      TH4
      0000008AH   SFRSYM    DATA     BYTE      TL0
      000000F0H.0 SFRSYM    DATA     BIT       B_0
      0000008BH   SFRSYM    DATA     BYTE      TL1
      000000F0H.1 SFRSYM    DATA     BIT       B_1
      00000098H.2 SFRSYM    DATA     BIT       U0RB8
      000000CCH   SFRSYM    DATA     BYTE      TL2
LX51 LINKER/LOCATER V4.66.93.0                                                        06/27/2023  19:17:35  PAGE 124


      000000F0H.2 SFRSYM    DATA     BIT       B_2
      000000B8H.4 SFRSYM    DATA     BIT       PS0
      000000DAH   SFRSYM    DATA     BYTE      TL3
      000000BFH   SFRSYM    DATA     BYTE      BUZCON
      000000F0H.3 SFRSYM    DATA     BIT       B_3
      000000B8H.1 SFRSYM    DATA     BIT       PT0
      000000B8H.6 SFRSYM    DATA     BIT       PS1
      00000098H.3 SFRSYM    DATA     BIT       U0TB8
      000000E2H   SFRSYM    DATA     BYTE      TL4
      000000F0H.4 SFRSYM    DATA     BIT       B_4
      000000D0H.3 SFRSYM    DATA     BIT       RS0
      000000B8H.3 SFRSYM    DATA     BIT       PT1
      000000F0H.5 SFRSYM    DATA     BIT       B_5
      000000D0H.4 SFRSYM    DATA     BIT       RS1
      000000B8H.5 SFRSYM    DATA     BIT       PT2
      00000098H.7 SFRSYM    DATA     BIT       U0SM0
      00000088H.4 SFRSYM    DATA     BIT       TR0
      000000BEH   SFRSYM    DATA     BYTE      BUZDIV
      000000F0H.6 SFRSYM    DATA     BIT       B_6
      000000E0H.0 SFRSYM    DATA     BIT       ACC_0
      00000098H.6 SFRSYM    DATA     BIT       U0SM1
      00000088H.6 SFRSYM    DATA     BIT       TR1
      000000F0H.7 SFRSYM    DATA     BIT       B_7
      000000E0H.1 SFRSYM    DATA     BIT       ACC_1
      000000B8H.0 SFRSYM    DATA     BIT       PX0
      00000098H.5 SFRSYM    DATA     BIT       U0SM2
      000000E0H.2 SFRSYM    DATA     BIT       ACC_2
      000000B8H.2 SFRSYM    DATA     BIT       PX1
      000000E0H.3 SFRSYM    DATA     BIT       ACC_3
      000000E0H.4 SFRSYM    DATA     BIT       ACC_4
      000000E0H.5 SFRSYM    DATA     BIT       ACC_5
      000000E0H.6 SFRSYM    DATA     BIT       ACC_6
      000000E0H.7 SFRSYM    DATA     BIT       ACC_7
      000000BDH   SFRSYM    DATA     BYTE      WUTCRH
      00000099H   SFRSYM    DATA     BYTE      SBUF0
      000000EBH   SFRSYM    DATA     BYTE      SBUF1
      000000BCH   SFRSYM    DATA     BYTE      WUTCRL
      00000098H   SFRSYM    DATA     BYTE      SCON0
      000000EAH   SFRSYM    DATA     BYTE      SCON1
      000000C8H   SFRSYM    DATA     BYTE      T2CON
      00000086H   SFRSYM    DATA     BYTE      DPS
      000000FEH   SFRSYM    DATA     BYTE      MDATA
      000000F6H   SFRSYM    DATA     BYTE      I2CMBUF
      000000F1H   SFRSYM    DATA     BYTE      I2CSADR
      00000098H.4 SFRSYM    DATA     BIT       U0REN
      000000C8H.5 SFRSYM    DATA     BIT       CAPES
      000000FDH   SFRSYM    DATA     BYTE      MADRH
      0000008EH   SFRSYM    DATA     BYTE      CKCON
      000000F3H   SFRSYM    DATA     BYTE      I2CSBUF
      000000FCH   SFRSYM    DATA     BYTE      MADRL
      000000D0H.5 SFRSYM    DATA     BIT       F0
      000000FBH   SFRSYM    DATA     BYTE      MLOCK
      000000D0H   SFRSYM    DATA     BYTE      PSW
      00000097H   SFRSYM    DATA     BYTE      WDCON

      01002C65H   BLOCK     CODE     ---       LVL=0
      01002C65H   LINE      CODE     ---       #15
      01002C65H   LINE      CODE     ---       #16
      01002C65H   LINE      CODE     ---       #17
      01002C74H   LINE      CODE     ---       #18
      01002C78H   LINE      CODE     ---       #20
      01002C7AH   LINE      CODE     ---       #21
      01002C7CH   LINE      CODE     ---       #22
      01002C7FH   LINE      CODE     ---       #23
      01002C82H   LINE      CODE     ---       #24
LX51 LINKER/LOCATER V4.66.93.0                                                        06/27/2023  19:17:35  PAGE 125


      ---         BLOCKEND  ---      ---       LVL=0

      01002274H   BLOCK     CODE     ---       LVL=0
      01002274H   LINE      CODE     ---       #26
      01002274H   LINE      CODE     ---       #27
      01002274H   LINE      CODE     ---       #33
      01002277H   LINE      CODE     ---       #34
      01002277H   LINE      CODE     ---       #35
      01002279H   LINE      CODE     ---       #36
      01002286H   LINE      CODE     ---       #37
      01002288H   LINE      CODE     ---       #38
      0100228AH   LINE      CODE     ---       #40
      0100228AH   LINE      CODE     ---       #41
      0100229FH   LINE      CODE     ---       #42
      010022A1H   LINE      CODE     ---       #45
      010022A4H   LINE      CODE     ---       #46
      010022A8H   LINE      CODE     ---       #48
      010022AAH   LINE      CODE     ---       #49
      010022AAH   LINE      CODE     ---       #51
      010022AEH   LINE      CODE     ---       #52
      010022AEH   LINE      CODE     ---       #53
      010022B1H   LINE      CODE     ---       #54
      010022B1H   LINE      CODE     ---       #55
      010022B3H   LINE      CODE     ---       #56
      010022B5H   LINE      CODE     ---       #57
      010022B5H   LINE      CODE     ---       #59
      010022B8H   LINE      CODE     ---       #60
      010022B8H   LINE      CODE     ---       #61
      010022C9H   LINE      CODE     ---       #62
      010022CDH   LINE      CODE     ---       #64
      010022CFH   LINE      CODE     ---       #65
      010022D1H   LINE      CODE     ---       #67
      010022D1H   LINE      CODE     ---       #68
      010022E2H   LINE      CODE     ---       #69
      010022E6H   LINE      CODE     ---       #71
      010022E8H   LINE      CODE     ---       #72
      010022E8H   LINE      CODE     ---       #75
      010022EBH   LINE      CODE     ---       #76
      010022EEH   LINE      CODE     ---       #77
      010022EEH   LINE      CODE     ---       #79
      010022F0H   LINE      CODE     ---       #80
      ---         BLOCKEND  ---      ---       LVL=0

      ---         MODULE    ---      ---       LED_DRV
      020000FAH   PUBLIC    XDATA    ---       ledPara
      00000048H   PUBLIC    DATA     WORD      LedBreathDuty
      01000B1DH   PUBLIC    CODE     ---       LedShow_Run_Task
      01001972H   PUBLIC    CODE     ---       _SetLedStatus
      010022F1H   PUBLIC    CODE     ---       Led_Init
      01000082H   PUBLIC    CODE     ---       Update_Led_Show
      000000C8H.0 SFRSYM    DATA     BIT       T2I0
      000000C3H   SFRSYM    DATA     BYTE      CCH1
      00000080H   SFRSYM    DATA     BYTE      P0
      000000C8H.1 SFRSYM    DATA     BIT       T2I1
      000000C5H   SFRSYM    DATA     BYTE      CCH2
      00000090H   SFRSYM    DATA     BYTE      P1
      000000C7H   SFRSYM    DATA     BYTE      CCH3
      000000ACH   SFRSYM    DATA     BYTE      P0EXTIE
      000000A0H   SFRSYM    DATA     BYTE      P2
      000000B4H   SFRSYM    DATA     BYTE      P0EXTIF
      000000ADH   SFRSYM    DATA     BYTE      P1EXTIE
      000000D0H.6 SFRSYM    DATA     BIT       AC
      000000FFH   SFRSYM    DATA     BYTE      MCTRL
      000000C2H   SFRSYM    DATA     BYTE      CCL1
      000000B5H   SFRSYM    DATA     BYTE      P1EXTIF
LX51 LINKER/LOCATER V4.66.93.0                                                        06/27/2023  19:17:35  PAGE 126


      000000AEH   SFRSYM    DATA     BYTE      P2EXTIE
      000000D8H   SFRSYM    DATA     BYTE      P5
      000000C4H   SFRSYM    DATA     BYTE      CCL2
      000000B6H   SFRSYM    DATA     BYTE      P2EXTIF
      000000A8H.7 SFRSYM    DATA     BIT       EA
      000000C6H   SFRSYM    DATA     BYTE      CCL3
      000000AAH   SFRSYM    DATA     BYTE      EIE2
      000000B2H   SFRSYM    DATA     BYTE      EIF2
      0000009CH   SFRSYM    DATA     BYTE      P5EXTIE
      000000A7H   SFRSYM    DATA     BYTE      P5EXTIF
      000000C8H.3 SFRSYM    DATA     BIT       T2R0
      000000C8H.4 SFRSYM    DATA     BIT       T2R1
      00000083H   SFRSYM    DATA     BYTE      DPH0
      000000A8H   SFRSYM    DATA     BYTE      IE
      00000085H   SFRSYM    DATA     BYTE      DPH1
      00000080H.0 SFRSYM    DATA     BIT       P0_0
      000000B9H   SFRSYM    DATA     BYTE      EIP1
      00000090H.0 SFRSYM    DATA     BIT       P1_0
      00000080H.1 SFRSYM    DATA     BIT       P0_1
      000000BAH   SFRSYM    DATA     BYTE      EIP2
      00000082H   SFRSYM    DATA     BYTE      DPL0
      000000A0H.0 SFRSYM    DATA     BIT       P2_0
      00000090H.1 SFRSYM    DATA     BIT       P1_1
      00000080H.2 SFRSYM    DATA     BIT       P0_2
      000000BBH   SFRSYM    DATA     BYTE      EIP3
      00000084H   SFRSYM    DATA     BYTE      DPL1
      000000A0H.1 SFRSYM    DATA     BIT       P2_1
      00000090H.2 SFRSYM    DATA     BIT       P1_2
      00000080H.3 SFRSYM    DATA     BIT       P0_3
      000000A0H.2 SFRSYM    DATA     BIT       P2_2
      00000090H.3 SFRSYM    DATA     BIT       P1_3
      00000080H.4 SFRSYM    DATA     BIT       P0_4
      000000D8H.0 SFRSYM    DATA     BIT       P5_0
      000000C8H.6 SFRSYM    DATA     BIT       I3FR
      000000A0H.3 SFRSYM    DATA     BIT       P2_3
      00000090H.4 SFRSYM    DATA     BIT       P1_4
      00000080H.5 SFRSYM    DATA     BIT       P0_5
      000000CFH   SFRSYM    DATA     BYTE      T2IE
      00000096H   SFRSYM    DATA     BYTE      TA
      000000D8H.1 SFRSYM    DATA     BIT       P5_1
      000000A0H.4 SFRSYM    DATA     BIT       P2_4
      00000090H.5 SFRSYM    DATA     BIT       P1_5
      00000080H.6 SFRSYM    DATA     BIT       P0_6
      000000C9H   SFRSYM    DATA     BYTE      T2IF
      000000D8H.2 SFRSYM    DATA     BIT       P5_2
      000000C8H.2 SFRSYM    DATA     BIT       T2CM
      000000A0H.5 SFRSYM    DATA     BIT       P2_5
      00000090H.6 SFRSYM    DATA     BIT       P1_6
      00000080H.7 SFRSYM    DATA     BIT       P0_7
      000000DFH   SFRSYM    DATA     BYTE      ADCON0
      000000D8H.3 SFRSYM    DATA     BIT       P5_3
      000000A0H.6 SFRSYM    DATA     BIT       P2_6
      00000090H.7 SFRSYM    DATA     BIT       P1_7
      000000DEH   SFRSYM    DATA     BYTE      ADCON1
      000000D8H.4 SFRSYM    DATA     BIT       P5_4
      000000A0H.7 SFRSYM    DATA     BIT       P2_7
      000000E9H   SFRSYM    DATA     BYTE      ADCON2
      000000B8H   SFRSYM    DATA     BYTE      IP
      000000D8H.5 SFRSYM    DATA     BIT       P5_5
      000000CEH   SFRSYM    DATA     BYTE      CCEN
      000000D8H.6 SFRSYM    DATA     BIT       P5_6
      000000D8H.7 SFRSYM    DATA     BIT       P5_7
      000000D0H.7 SFRSYM    DATA     BIT       CY
      000000D2H   SFRSYM    DATA     BYTE      T34MOD
      000000F4H   SFRSYM    DATA     BYTE      I2CMSA
LX51 LINKER/LOCATER V4.66.93.0                                                        06/27/2023  19:17:35  PAGE 127


      000000D7H   SFRSYM    DATA     BYTE      SCKSTAU
      000000F5H   SFRSYM    DATA     BYTE      I2CMCR
      00000081H   SFRSYM    DATA     BYTE      SP
      000000D0H.2 SFRSYM    DATA     BIT       OV
      000000F2H   SFRSYM    DATA     BYTE      I2CSCR
      000000D9H   SFRSYM    DATA     BYTE      ADCCHS
      000000C8H.7 SFRSYM    DATA     BIT       T2PS
      000000D1H   SFRSYM    DATA     BYTE      ADCMPC
      000000CBH   SFRSYM    DATA     BYTE      RLDH
      000000D5H   SFRSYM    DATA     BYTE      ADCMPH
      000000CAH   SFRSYM    DATA     BYTE      RLDL
      00000080H.0 SFRSYM    DATA     BIT       P00
      00000090H.0 SFRSYM    DATA     BIT       P10
      00000080H.1 SFRSYM    DATA     BIT       P01
      000000F7H   SFRSYM    DATA     BYTE      I2CMTP
      00000087H   SFRSYM    DATA     BYTE      PCON
      000000A0H.0 SFRSYM    DATA     BIT       P20
      00000090H.1 SFRSYM    DATA     BIT       P11
      00000080H.2 SFRSYM    DATA     BIT       P02
      000000F5H   SFRSYM    DATA     BYTE      I2CMSR
      000000A0H.1 SFRSYM    DATA     BIT       P21
      00000090H.2 SFRSYM    DATA     BIT       P12
      00000080H.3 SFRSYM    DATA     BIT       P03
      000000D4H   SFRSYM    DATA     BYTE      ADCMPL
      000000A0H.2 SFRSYM    DATA     BIT       P22
      00000090H.3 SFRSYM    DATA     BIT       P13
      00000080H.4 SFRSYM    DATA     BIT       P04
      000000D8H.0 SFRSYM    DATA     BIT       P50
      000000A0H.3 SFRSYM    DATA     BIT       P23
      00000090H.4 SFRSYM    DATA     BIT       P14
      00000080H.5 SFRSYM    DATA     BIT       P05
      00000089H   SFRSYM    DATA     BYTE      TMOD
      00000088H   SFRSYM    DATA     BYTE      TCON
      000000D8H.1 SFRSYM    DATA     BIT       P51
      00000090H.5 SFRSYM    DATA     BIT       P15
      00000080H.6 SFRSYM    DATA     BIT       P06
      000000FAH   SFRSYM    DATA     BYTE      PCRCDH
      000000D8H.2 SFRSYM    DATA     BIT       P52
      00000090H.6 SFRSYM    DATA     BIT       P16
      00000080H.7 SFRSYM    DATA     BIT       P07
      000000D8H.3 SFRSYM    DATA     BIT       P53
      00000090H.7 SFRSYM    DATA     BIT       P17
      000000F2H   SFRSYM    DATA     BYTE      I2CSSR
      000000D8H.4 SFRSYM    DATA     BIT       P54
      000000ECH   SFRSYM    DATA     BYTE      SPCR
      000000DDH   SFRSYM    DATA     BYTE      ADRESH
      000000D8H.5 SFRSYM    DATA     BIT       P55
      000000F9H   SFRSYM    DATA     BYTE      PCRCDL
      000000EEH   SFRSYM    DATA     BYTE      SPDR
      000000EFH   SFRSYM    DATA     BYTE      SSCR
      000000D3H   SFRSYM    DATA     BYTE      ADDLYL
      000000DCH   SFRSYM    DATA     BYTE      ADRESL
      00000088H.1 SFRSYM    DATA     BIT       IE0
      00000088H.3 SFRSYM    DATA     BIT       IE1
      0000008FH   SFRSYM    DATA     BYTE      CLKDIV
      000000F0H   SFRSYM    DATA     BYTE      B
      00000091H   SFRSYM    DATA     BYTE      FUNCCR
      0000009AH   SFRSYM    DATA     BYTE      P0TRIS
      000000A1H   SFRSYM    DATA     BYTE      P1TRIS
      000000A2H   SFRSYM    DATA     BYTE      P2TRIS
      000000E0H   SFRSYM    DATA     BYTE      ACC
      000000D6H   SFRSYM    DATA     BYTE      SCKSEL
      000000A8H.4 SFRSYM    DATA     BIT       ES0
      000000A8H.1 SFRSYM    DATA     BIT       ET0
      000000A8H.6 SFRSYM    DATA     BIT       ES1
LX51 LINKER/LOCATER V4.66.93.0                                                        06/27/2023  19:17:35  PAGE 128


      000000EDH   SFRSYM    DATA     BYTE      SPSR
      000000A5H   SFRSYM    DATA     BYTE      P5TRIS
      000000A8H.3 SFRSYM    DATA     BIT       ET1
      00000088H.5 SFRSYM    DATA     BIT       TF0
      000000A8H.5 SFRSYM    DATA     BIT       ET2
      00000098H.0 SFRSYM    DATA     BIT       RI0
      00000088H.7 SFRSYM    DATA     BIT       TF1
      0000008CH   SFRSYM    DATA     BYTE      TH0
      000000A8H.0 SFRSYM    DATA     BIT       EX0
      00000098H.1 SFRSYM    DATA     BIT       TI0
      00000088H.0 SFRSYM    DATA     BIT       IT0
      0000008DH   SFRSYM    DATA     BYTE      TH1
      000000A8H.2 SFRSYM    DATA     BIT       EX1
      00000088H.2 SFRSYM    DATA     BIT       IT1
      000000CDH   SFRSYM    DATA     BYTE      TH2
      000000D0H.0 SFRSYM    DATA     BIT       P
      000000DBH   SFRSYM    DATA     BYTE      TH3
      000000E3H   SFRSYM    DATA     BYTE      TH4
      0000008AH   SFRSYM    DATA     BYTE      TL0
      000000F0H.0 SFRSYM    DATA     BIT       B_0
      0000008BH   SFRSYM    DATA     BYTE      TL1
      000000F0H.1 SFRSYM    DATA     BIT       B_1
      00000098H.2 SFRSYM    DATA     BIT       U0RB8
      000000CCH   SFRSYM    DATA     BYTE      TL2
      000000F0H.2 SFRSYM    DATA     BIT       B_2
      000000B8H.4 SFRSYM    DATA     BIT       PS0
      000000DAH   SFRSYM    DATA     BYTE      TL3
      000000BFH   SFRSYM    DATA     BYTE      BUZCON
      000000F0H.3 SFRSYM    DATA     BIT       B_3
      000000B8H.1 SFRSYM    DATA     BIT       PT0
      000000B8H.6 SFRSYM    DATA     BIT       PS1
      00000098H.3 SFRSYM    DATA     BIT       U0TB8
      000000E2H   SFRSYM    DATA     BYTE      TL4
      000000F0H.4 SFRSYM    DATA     BIT       B_4
      000000D0H.3 SFRSYM    DATA     BIT       RS0
      000000B8H.3 SFRSYM    DATA     BIT       PT1
      000000F0H.5 SFRSYM    DATA     BIT       B_5
      000000D0H.4 SFRSYM    DATA     BIT       RS1
      000000B8H.5 SFRSYM    DATA     BIT       PT2
      00000098H.7 SFRSYM    DATA     BIT       U0SM0
      00000088H.4 SFRSYM    DATA     BIT       TR0
      000000BEH   SFRSYM    DATA     BYTE      BUZDIV
      000000F0H.6 SFRSYM    DATA     BIT       B_6
      000000E0H.0 SFRSYM    DATA     BIT       ACC_0
      00000098H.6 SFRSYM    DATA     BIT       U0SM1
      00000088H.6 SFRSYM    DATA     BIT       TR1
      000000F0H.7 SFRSYM    DATA     BIT       B_7
      000000E0H.1 SFRSYM    DATA     BIT       ACC_1
      000000B8H.0 SFRSYM    DATA     BIT       PX0
      00000098H.5 SFRSYM    DATA     BIT       U0SM2
      000000E0H.2 SFRSYM    DATA     BIT       ACC_2
      000000B8H.2 SFRSYM    DATA     BIT       PX1
      000000E0H.3 SFRSYM    DATA     BIT       ACC_3
      000000E0H.4 SFRSYM    DATA     BIT       ACC_4
      000000E0H.5 SFRSYM    DATA     BIT       ACC_5
      000000E0H.6 SFRSYM    DATA     BIT       ACC_6
      000000E0H.7 SFRSYM    DATA     BIT       ACC_7
      000000BDH   SFRSYM    DATA     BYTE      WUTCRH
      00000099H   SFRSYM    DATA     BYTE      SBUF0
      000000EBH   SFRSYM    DATA     BYTE      SBUF1
      000000BCH   SFRSYM    DATA     BYTE      WUTCRL
      00000098H   SFRSYM    DATA     BYTE      SCON0
      000000EAH   SFRSYM    DATA     BYTE      SCON1
      000000C8H   SFRSYM    DATA     BYTE      T2CON
      00000086H   SFRSYM    DATA     BYTE      DPS
LX51 LINKER/LOCATER V4.66.93.0                                                        06/27/2023  19:17:35  PAGE 129


      000000FEH   SFRSYM    DATA     BYTE      MDATA
      000000F6H   SFRSYM    DATA     BYTE      I2CMBUF
      000000F1H   SFRSYM    DATA     BYTE      I2CSADR
      00000098H.4 SFRSYM    DATA     BIT       U0REN
      000000C8H.5 SFRSYM    DATA     BIT       CAPES
      000000FDH   SFRSYM    DATA     BYTE      MADRH
      0000008EH   SFRSYM    DATA     BYTE      CKCON
      000000F3H   SFRSYM    DATA     BYTE      I2CSBUF
      000000FCH   SFRSYM    DATA     BYTE      MADRL
      000000D0H.5 SFRSYM    DATA     BIT       F0
      000000FBH   SFRSYM    DATA     BYTE      MLOCK
      000000D0H   SFRSYM    DATA     BYTE      PSW
      00000097H   SFRSYM    DATA     BYTE      WDCON
      01002614H   SYMBOL    CODE     ---       _TurnLedOnOff
      00000022H.4 SYMBOL    BIT      BIT       bLedBreathDir

      01000082H   BLOCK     CODE     ---       LVL=0
      01000082H   LINE      CODE     ---       #6
      01000082H   LINE      CODE     ---       #7
      01000082H   LINE      CODE     ---       #8
      ---         BLOCKEND  ---      ---       LVL=0

      010022F1H   BLOCK     CODE     ---       LVL=0
      01002354H   BLOCK     CODE     NEAR LAB  LVL=1
      00000008H   SYMBOL    DATA     BYTE      i
      ---         BLOCKEND  ---      ---       LVL=1
      010022F1H   LINE      CODE     ---       #15
      010022F1H   LINE      CODE     ---       #16
      010022F1H   LINE      CODE     ---       #20
      010022F6H   LINE      CODE     ---       #22
      010022FDH   LINE      CODE     ---       #25
      01002306H   LINE      CODE     ---       #26
      0100230EH   LINE      CODE     ---       #29
      01002313H   LINE      CODE     ---       #31
      01002318H   LINE      CODE     ---       #33
      0100231DH   LINE      CODE     ---       #35
      01002322H   LINE      CODE     ---       #38
      01002328H   LINE      CODE     ---       #41
      0100232DH   LINE      CODE     ---       #44
      0100232FH   LINE      CODE     ---       #45
      01002354H   LINE      CODE     ---       #46
      0100236CH   LINE      CODE     ---       #47
      ---         BLOCKEND  ---      ---       LVL=0

      01001972H   BLOCK     CODE     ---       LVL=0
      00000007H   SYMBOL    DATA     BYTE      led
      00000005H   SYMBOL    DATA     BYTE      sta
      01001972H   LINE      CODE     ---       #50
      01001972H   LINE      CODE     ---       #51
      01001972H   LINE      CODE     ---       #52
      01001988H   LINE      CODE     ---       #54
      010019A1H   LINE      CODE     ---       #57
      010019C1H   LINE      CODE     ---       #58
      010019D1H   LINE      CODE     ---       #59
      010019E2H   LINE      CODE     ---       #60
      010019F2H   LINE      CODE     ---       #62
      010019FAH   LINE      CODE     ---       #63
      010019FCH   LINE      CODE     ---       #64
      01001A02H   LINE      CODE     ---       #65
      01001A15H   LINE      CODE     ---       #66
      01001A1AH   LINE      CODE     ---       #67
      01001A1AH   LINE      CODE     ---       #68
      01001A2BH   LINE      CODE     ---       #69
      01001A3CH   LINE      CODE     ---       #70
      01001A3EH   LINE      CODE     ---       #72
LX51 LINKER/LOCATER V4.66.93.0                                                        06/27/2023  19:17:35  PAGE 130


      01001A4FH   LINE      CODE     ---       #74
      01001A6FH   LINE      CODE     ---       #75
      ---         BLOCKEND  ---      ---       LVL=0

      01002614H   BLOCK     CODE     ---       LVL=0
      00000007H   SYMBOL    DATA     BYTE      led
      00000005H   SYMBOL    DATA     BYTE      onoroff
      01002614H   LINE      CODE     ---       #77
      01002614H   LINE      CODE     ---       #78
      01002614H   LINE      CODE     ---       #79
      01002628H   LINE      CODE     ---       #80
      01002628H   LINE      CODE     ---       #81
      01002628H   LINE      CODE     ---       #82
      01002628H   LINE      CODE     ---       #83
      0100262EH   LINE      CODE     ---       #84
      01002630H   LINE      CODE     ---       #85
      01002630H   LINE      CODE     ---       #86
      01002631H   LINE      CODE     ---       #87
      01002631H   LINE      CODE     ---       #88
      01002631H   LINE      CODE     ---       #89
      01002637H   LINE      CODE     ---       #90
      01002639H   LINE      CODE     ---       #91
      01002639H   LINE      CODE     ---       #92
      0100263AH   LINE      CODE     ---       #93
      0100263AH   LINE      CODE     ---       #94
      0100263AH   LINE      CODE     ---       #95
      01002640H   LINE      CODE     ---       #96
      01002642H   LINE      CODE     ---       #97
      01002642H   LINE      CODE     ---       #98
      01002643H   LINE      CODE     ---       #99
      01002643H   LINE      CODE     ---       #100
      01002643H   LINE      CODE     ---       #101
      01002649H   LINE      CODE     ---       #102
      0100264BH   LINE      CODE     ---       #103
      0100264BH   LINE      CODE     ---       #104
      0100264CH   LINE      CODE     ---       #105
      0100264CH   LINE      CODE     ---       #106
      0100264CH   LINE      CODE     ---       #107
      01002652H   LINE      CODE     ---       #108
      01002654H   LINE      CODE     ---       #109
      01002654H   LINE      CODE     ---       #110
      01002655H   LINE      CODE     ---       #111
      01002655H   LINE      CODE     ---       #112
      01002655H   LINE      CODE     ---       #113
      0100265BH   LINE      CODE     ---       #114
      0100265DH   LINE      CODE     ---       #115
      0100265DH   LINE      CODE     ---       #116
      0100265DH   LINE      CODE     ---       #117
      0100265DH   LINE      CODE     ---       #118
      ---         BLOCKEND  ---      ---       LVL=0

      01000B1DH   BLOCK     CODE     ---       LVL=0
      01000B1DH   BLOCK     CODE     NEAR LAB  LVL=1
      00000008H   SYMBOL    DATA     BYTE      i
      ---         BLOCKEND  ---      ---       LVL=1
      01000B1DH   LINE      CODE     ---       #120
      01000B1DH   LINE      CODE     ---       #121
      01000B1DH   LINE      CODE     ---       #124
      01000B2EH   LINE      CODE     ---       #125
      01000B2EH   LINE      CODE     ---       #126
      01000B50H   LINE      CODE     ---       #127
      01000B50H   LINE      CODE     ---       #128
      01000B50H   LINE      CODE     ---       #129
      01000B50H   LINE      CODE     ---       #130
      01000B57H   LINE      CODE     ---       #131
LX51 LINKER/LOCATER V4.66.93.0                                                        06/27/2023  19:17:35  PAGE 131


      01000B74H   LINE      CODE     ---       #132
      01000B7BH   LINE      CODE     ---       #133
      01000B7BH   LINE      CODE     ---       #134
      01000B7EH   LINE      CODE     ---       #136
      01000B7EH   LINE      CODE     ---       #137
      01000B7EH   LINE      CODE     ---       #138
      01000B7EH   LINE      CODE     ---       #139
      01000B7EH   LINE      CODE     ---       #140
      01000B7EH   LINE      CODE     ---       #141
      01000BA8H   LINE      CODE     ---       #142
      01000BA8H   LINE      CODE     ---       #143
      01000BB9H   LINE      CODE     ---       #144
      01000BCBH   LINE      CODE     ---       #145
      01000BCBH   LINE      CODE     ---       #146
      01000BDDH   LINE      CODE     ---       #148
      01000BF1H   LINE      CODE     ---       #149
      01000BF1H   LINE      CODE     ---       #150
      01000C05H   LINE      CODE     ---       #151
      01000C1BH   LINE      CODE     ---       #152
      01000C1BH   LINE      CODE     ---       #153
      01000C1DH   LINE      CODE     ---       #155
      01000C2EH   LINE      CODE     ---       #156
      01000C2EH   LINE      CODE     ---       #158
      01000C40H   LINE      CODE     ---       #159
      01000C40H   LINE      CODE     ---       #160
      01000C41H   LINE      CODE     ---       #161
      01000C43H   LINE      CODE     ---       #163
      01000C43H   LINE      CODE     ---       #164
      01000C4AH   LINE      CODE     ---       #165
      01000C4AH   LINE      CODE     ---       #167
      01000C67H   LINE      CODE     ---       #168
      01000C75H   LINE      CODE     ---       #169
      01000C75H   LINE      CODE     ---       #170
      01000C78H   LINE      CODE     ---       #172
      01000C78H   LINE      CODE     ---       #173
      01000C78H   LINE      CODE     ---       #174
      01000C7BH   LINE      CODE     ---       #175
      01000C7BH   LINE      CODE     ---       #176
      01000C86H   LINE      CODE     ---       #177
      01000C98H   LINE      CODE     ---       #178
      01000C98H   LINE      CODE     ---       #179
      01000C9AH   LINE      CODE     ---       #181
      01000C9AH   LINE      CODE     ---       #182
      01000C9CH   LINE      CODE     ---       #184
      01000C9CH   LINE      CODE     ---       #185
      01000CA7H   LINE      CODE     ---       #186
      01000CABH   LINE      CODE     ---       #188
      01000CB7H   LINE      CODE     ---       #189
      01000CB7H   LINE      CODE     ---       #191
      01000CEDH   LINE      CODE     ---       #192
      01000CEFH   LINE      CODE     ---       #193
      01000CEFH   LINE      CODE     ---       #194
      01000CF1H   LINE      CODE     ---       #197
      01000CF1H   LINE      CODE     ---       #198
      01000CF8H   LINE      CODE     ---       #199
      01000CF8H   LINE      CODE     ---       #200
      01000CF8H   LINE      CODE     ---       #201
      01000CFDH   LINE      CODE     ---       #203
      ---         BLOCKEND  ---      ---       LVL=0

      ---         MODULE    ---      ---       NTC
      02000000H   PUBLIC    XDATA    ---       tempNTC
      010014D5H   PUBLIC    CODE     ---       NTC_Run_Task
      01002DACH   PUBLIC    CODE     ---       NTC_Init
      000000C8H.0 SFRSYM    DATA     BIT       T2I0
LX51 LINKER/LOCATER V4.66.93.0                                                        06/27/2023  19:17:35  PAGE 132


      000000C3H   SFRSYM    DATA     BYTE      CCH1
      00000080H   SFRSYM    DATA     BYTE      P0
      000000C8H.1 SFRSYM    DATA     BIT       T2I1
      000000C5H   SFRSYM    DATA     BYTE      CCH2
      00000090H   SFRSYM    DATA     BYTE      P1
      000000C7H   SFRSYM    DATA     BYTE      CCH3
      000000ACH   SFRSYM    DATA     BYTE      P0EXTIE
      000000A0H   SFRSYM    DATA     BYTE      P2
      000000B4H   SFRSYM    DATA     BYTE      P0EXTIF
      000000ADH   SFRSYM    DATA     BYTE      P1EXTIE
      000000D0H.6 SFRSYM    DATA     BIT       AC
      000000FFH   SFRSYM    DATA     BYTE      MCTRL
      000000C2H   SFRSYM    DATA     BYTE      CCL1
      000000B5H   SFRSYM    DATA     BYTE      P1EXTIF
      000000AEH   SFRSYM    DATA     BYTE      P2EXTIE
      000000D8H   SFRSYM    DATA     BYTE      P5
      000000C4H   SFRSYM    DATA     BYTE      CCL2
      000000B6H   SFRSYM    DATA     BYTE      P2EXTIF
      000000A8H.7 SFRSYM    DATA     BIT       EA
      000000C6H   SFRSYM    DATA     BYTE      CCL3
      000000AAH   SFRSYM    DATA     BYTE      EIE2
      000000B2H   SFRSYM    DATA     BYTE      EIF2
      0000009CH   SFRSYM    DATA     BYTE      P5EXTIE
      000000A7H   SFRSYM    DATA     BYTE      P5EXTIF
      000000C8H.3 SFRSYM    DATA     BIT       T2R0
      000000C8H.4 SFRSYM    DATA     BIT       T2R1
      00000083H   SFRSYM    DATA     BYTE      DPH0
      000000A8H   SFRSYM    DATA     BYTE      IE
      00000085H   SFRSYM    DATA     BYTE      DPH1
      00000080H.0 SFRSYM    DATA     BIT       P0_0
      000000B9H   SFRSYM    DATA     BYTE      EIP1
      00000090H.0 SFRSYM    DATA     BIT       P1_0
      00000080H.1 SFRSYM    DATA     BIT       P0_1
      000000BAH   SFRSYM    DATA     BYTE      EIP2
      00000082H   SFRSYM    DATA     BYTE      DPL0
      000000A0H.0 SFRSYM    DATA     BIT       P2_0
      00000090H.1 SFRSYM    DATA     BIT       P1_1
      00000080H.2 SFRSYM    DATA     BIT       P0_2
      000000BBH   SFRSYM    DATA     BYTE      EIP3
      00000084H   SFRSYM    DATA     BYTE      DPL1
      000000A0H.1 SFRSYM    DATA     BIT       P2_1
      00000090H.2 SFRSYM    DATA     BIT       P1_2
      00000080H.3 SFRSYM    DATA     BIT       P0_3
      000000A0H.2 SFRSYM    DATA     BIT       P2_2
      00000090H.3 SFRSYM    DATA     BIT       P1_3
      00000080H.4 SFRSYM    DATA     BIT       P0_4
      000000D8H.0 SFRSYM    DATA     BIT       P5_0
      000000C8H.6 SFRSYM    DATA     BIT       I3FR
      000000A0H.3 SFRSYM    DATA     BIT       P2_3
      00000090H.4 SFRSYM    DATA     BIT       P1_4
      00000080H.5 SFRSYM    DATA     BIT       P0_5
      000000CFH   SFRSYM    DATA     BYTE      T2IE
      00000096H   SFRSYM    DATA     BYTE      TA
      000000D8H.1 SFRSYM    DATA     BIT       P5_1
      000000A0H.4 SFRSYM    DATA     BIT       P2_4
      00000090H.5 SFRSYM    DATA     BIT       P1_5
      00000080H.6 SFRSYM    DATA     BIT       P0_6
      000000C9H   SFRSYM    DATA     BYTE      T2IF
      000000D8H.2 SFRSYM    DATA     BIT       P5_2
      000000C8H.2 SFRSYM    DATA     BIT       T2CM
      000000A0H.5 SFRSYM    DATA     BIT       P2_5
      00000090H.6 SFRSYM    DATA     BIT       P1_6
      00000080H.7 SFRSYM    DATA     BIT       P0_7
      000000DFH   SFRSYM    DATA     BYTE      ADCON0
      000000D8H.3 SFRSYM    DATA     BIT       P5_3
LX51 LINKER/LOCATER V4.66.93.0                                                        06/27/2023  19:17:35  PAGE 133


      000000A0H.6 SFRSYM    DATA     BIT       P2_6
      00000090H.7 SFRSYM    DATA     BIT       P1_7
      000000DEH   SFRSYM    DATA     BYTE      ADCON1
      000000D8H.4 SFRSYM    DATA     BIT       P5_4
      000000A0H.7 SFRSYM    DATA     BIT       P2_7
      000000E9H   SFRSYM    DATA     BYTE      ADCON2
      000000B8H   SFRSYM    DATA     BYTE      IP
      000000D8H.5 SFRSYM    DATA     BIT       P5_5
      000000CEH   SFRSYM    DATA     BYTE      CCEN
      000000D8H.6 SFRSYM    DATA     BIT       P5_6
      000000D8H.7 SFRSYM    DATA     BIT       P5_7
      000000D0H.7 SFRSYM    DATA     BIT       CY
      000000D2H   SFRSYM    DATA     BYTE      T34MOD
      000000F4H   SFRSYM    DATA     BYTE      I2CMSA
      000000D7H   SFRSYM    DATA     BYTE      SCKSTAU
      000000F5H   SFRSYM    DATA     BYTE      I2CMCR
      00000081H   SFRSYM    DATA     BYTE      SP
      000000D0H.2 SFRSYM    DATA     BIT       OV
      000000F2H   SFRSYM    DATA     BYTE      I2CSCR
      000000D9H   SFRSYM    DATA     BYTE      ADCCHS
      000000C8H.7 SFRSYM    DATA     BIT       T2PS
      000000D1H   SFRSYM    DATA     BYTE      ADCMPC
      000000CBH   SFRSYM    DATA     BYTE      RLDH
      000000D5H   SFRSYM    DATA     BYTE      ADCMPH
      000000CAH   SFRSYM    DATA     BYTE      RLDL
      00000080H.0 SFRSYM    DATA     BIT       P00
      00000090H.0 SFRSYM    DATA     BIT       P10
      00000080H.1 SFRSYM    DATA     BIT       P01
      000000F7H   SFRSYM    DATA     BYTE      I2CMTP
      00000087H   SFRSYM    DATA     BYTE      PCON
      000000A0H.0 SFRSYM    DATA     BIT       P20
      00000090H.1 SFRSYM    DATA     BIT       P11
      00000080H.2 SFRSYM    DATA     BIT       P02
      000000F5H   SFRSYM    DATA     BYTE      I2CMSR
      000000A0H.1 SFRSYM    DATA     BIT       P21
      00000090H.2 SFRSYM    DATA     BIT       P12
      00000080H.3 SFRSYM    DATA     BIT       P03
      000000D4H   SFRSYM    DATA     BYTE      ADCMPL
      000000A0H.2 SFRSYM    DATA     BIT       P22
      00000090H.3 SFRSYM    DATA     BIT       P13
      00000080H.4 SFRSYM    DATA     BIT       P04
      000000D8H.0 SFRSYM    DATA     BIT       P50
      000000A0H.3 SFRSYM    DATA     BIT       P23
      00000090H.4 SFRSYM    DATA     BIT       P14
      00000080H.5 SFRSYM    DATA     BIT       P05
      00000089H   SFRSYM    DATA     BYTE      TMOD
      00000088H   SFRSYM    DATA     BYTE      TCON
      000000D8H.1 SFRSYM    DATA     BIT       P51
      00000090H.5 SFRSYM    DATA     BIT       P15
      00000080H.6 SFRSYM    DATA     BIT       P06
      000000FAH   SFRSYM    DATA     BYTE      PCRCDH
      000000D8H.2 SFRSYM    DATA     BIT       P52
      00000090H.6 SFRSYM    DATA     BIT       P16
      00000080H.7 SFRSYM    DATA     BIT       P07
      000000D8H.3 SFRSYM    DATA     BIT       P53
      00000090H.7 SFRSYM    DATA     BIT       P17
      000000F2H   SFRSYM    DATA     BYTE      I2CSSR
      000000D8H.4 SFRSYM    DATA     BIT       P54
      000000ECH   SFRSYM    DATA     BYTE      SPCR
      000000DDH   SFRSYM    DATA     BYTE      ADRESH
      000000D8H.5 SFRSYM    DATA     BIT       P55
      000000F9H   SFRSYM    DATA     BYTE      PCRCDL
      000000EEH   SFRSYM    DATA     BYTE      SPDR
      000000EFH   SFRSYM    DATA     BYTE      SSCR
      000000D3H   SFRSYM    DATA     BYTE      ADDLYL
LX51 LINKER/LOCATER V4.66.93.0                                                        06/27/2023  19:17:35  PAGE 134


      000000DCH   SFRSYM    DATA     BYTE      ADRESL
      00000088H.1 SFRSYM    DATA     BIT       IE0
      00000088H.3 SFRSYM    DATA     BIT       IE1
      0000008FH   SFRSYM    DATA     BYTE      CLKDIV
      000000F0H   SFRSYM    DATA     BYTE      B
      00000091H   SFRSYM    DATA     BYTE      FUNCCR
      0000009AH   SFRSYM    DATA     BYTE      P0TRIS
      000000A1H   SFRSYM    DATA     BYTE      P1TRIS
      000000A2H   SFRSYM    DATA     BYTE      P2TRIS
      000000E0H   SFRSYM    DATA     BYTE      ACC
      000000D6H   SFRSYM    DATA     BYTE      SCKSEL
      000000A8H.4 SFRSYM    DATA     BIT       ES0
      000000A8H.1 SFRSYM    DATA     BIT       ET0
      000000A8H.6 SFRSYM    DATA     BIT       ES1
      000000EDH   SFRSYM    DATA     BYTE      SPSR
      000000A5H   SFRSYM    DATA     BYTE      P5TRIS
      000000A8H.3 SFRSYM    DATA     BIT       ET1
      00000088H.5 SFRSYM    DATA     BIT       TF0
      000000A8H.5 SFRSYM    DATA     BIT       ET2
      00000098H.0 SFRSYM    DATA     BIT       RI0
      00000088H.7 SFRSYM    DATA     BIT       TF1
      0000008CH   SFRSYM    DATA     BYTE      TH0
      000000A8H.0 SFRSYM    DATA     BIT       EX0
      00000098H.1 SFRSYM    DATA     BIT       TI0
      00000088H.0 SFRSYM    DATA     BIT       IT0
      0000008DH   SFRSYM    DATA     BYTE      TH1
      000000A8H.2 SFRSYM    DATA     BIT       EX1
      00000088H.2 SFRSYM    DATA     BIT       IT1
      000000CDH   SFRSYM    DATA     BYTE      TH2
      000000D0H.0 SFRSYM    DATA     BIT       P
      000000DBH   SFRSYM    DATA     BYTE      TH3
      000000E3H   SFRSYM    DATA     BYTE      TH4
      0000008AH   SFRSYM    DATA     BYTE      TL0
      000000F0H.0 SFRSYM    DATA     BIT       B_0
      0000008BH   SFRSYM    DATA     BYTE      TL1
      000000F0H.1 SFRSYM    DATA     BIT       B_1
      00000098H.2 SFRSYM    DATA     BIT       U0RB8
      000000CCH   SFRSYM    DATA     BYTE      TL2
      000000F0H.2 SFRSYM    DATA     BIT       B_2
      000000B8H.4 SFRSYM    DATA     BIT       PS0
      000000DAH   SFRSYM    DATA     BYTE      TL3
      000000BFH   SFRSYM    DATA     BYTE      BUZCON
      000000F0H.3 SFRSYM    DATA     BIT       B_3
      000000B8H.1 SFRSYM    DATA     BIT       PT0
      000000B8H.6 SFRSYM    DATA     BIT       PS1
      00000098H.3 SFRSYM    DATA     BIT       U0TB8
      000000E2H   SFRSYM    DATA     BYTE      TL4
      000000F0H.4 SFRSYM    DATA     BIT       B_4
      000000D0H.3 SFRSYM    DATA     BIT       RS0
      000000B8H.3 SFRSYM    DATA     BIT       PT1
      000000F0H.5 SFRSYM    DATA     BIT       B_5
      000000D0H.4 SFRSYM    DATA     BIT       RS1
      000000B8H.5 SFRSYM    DATA     BIT       PT2
      00000098H.7 SFRSYM    DATA     BIT       U0SM0
      00000088H.4 SFRSYM    DATA     BIT       TR0
      000000BEH   SFRSYM    DATA     BYTE      BUZDIV
      000000F0H.6 SFRSYM    DATA     BIT       B_6
      000000E0H.0 SFRSYM    DATA     BIT       ACC_0
      00000098H.6 SFRSYM    DATA     BIT       U0SM1
      00000088H.6 SFRSYM    DATA     BIT       TR1
      000000F0H.7 SFRSYM    DATA     BIT       B_7
      000000E0H.1 SFRSYM    DATA     BIT       ACC_1
      000000B8H.0 SFRSYM    DATA     BIT       PX0
      00000098H.5 SFRSYM    DATA     BIT       U0SM2
      000000E0H.2 SFRSYM    DATA     BIT       ACC_2
LX51 LINKER/LOCATER V4.66.93.0                                                        06/27/2023  19:17:35  PAGE 135


      000000B8H.2 SFRSYM    DATA     BIT       PX1
      000000E0H.3 SFRSYM    DATA     BIT       ACC_3
      000000E0H.4 SFRSYM    DATA     BIT       ACC_4
      000000E0H.5 SFRSYM    DATA     BIT       ACC_5
      000000E0H.6 SFRSYM    DATA     BIT       ACC_6
      000000E0H.7 SFRSYM    DATA     BIT       ACC_7
      000000BDH   SFRSYM    DATA     BYTE      WUTCRH
      00000099H   SFRSYM    DATA     BYTE      SBUF0
      000000EBH   SFRSYM    DATA     BYTE      SBUF1
      000000BCH   SFRSYM    DATA     BYTE      WUTCRL
      00000098H   SFRSYM    DATA     BYTE      SCON0
      000000EAH   SFRSYM    DATA     BYTE      SCON1
      000000C8H   SFRSYM    DATA     BYTE      T2CON
      00000086H   SFRSYM    DATA     BYTE      DPS
      000000FEH   SFRSYM    DATA     BYTE      MDATA
      000000F6H   SFRSYM    DATA     BYTE      I2CMBUF
      000000F1H   SFRSYM    DATA     BYTE      I2CSADR
      00000098H.4 SFRSYM    DATA     BIT       U0REN
      000000C8H.5 SFRSYM    DATA     BIT       CAPES
      000000FDH   SFRSYM    DATA     BYTE      MADRH
      0000008EH   SFRSYM    DATA     BYTE      CKCON
      000000F3H   SFRSYM    DATA     BYTE      I2CSBUF
      000000FCH   SFRSYM    DATA     BYTE      MADRL
      000000D0H.5 SFRSYM    DATA     BIT       F0
      000000FBH   SFRSYM    DATA     BYTE      MLOCK
      000000D0H   SFRSYM    DATA     BYTE      PSW
      00000097H   SFRSYM    DATA     BYTE      WDCON
      010023E3H   SYMBOL    CODE     ---       _Get_NTC_averTemp
      01002EA6H   SYMBOL    CONST    ---       BoilerNTC_Res_Tab

      01002DACH   BLOCK     CODE     ---       LVL=0
      01002DACH   LINE      CODE     ---       #116
      01002DACH   LINE      CODE     ---       #117
      01002DACH   LINE      CODE     ---       #118
      01002DAFH   LINE      CODE     ---       #120
      01002DB4H   LINE      CODE     ---       #121
      01002DB6H   LINE      CODE     ---       #122
      01002DB8H   LINE      CODE     ---       #123
      01002DBCH   LINE      CODE     ---       #124
      ---         BLOCKEND  ---      ---       LVL=0

      010023E3H   BLOCK     CODE     ---       LVL=0
      0000000FH   SYMBOL    DATA     BYTE      temp
      010023E5H   BLOCK     CODE     NEAR LAB  LVL=1
      00000007H   SYMBOL    DATA     BYTE      i
      ---         BLOCKEND  ---      ---       LVL=1
      010023E3H   LINE      CODE     ---       #126
      010023E5H   LINE      CODE     ---       #127
      010023E5H   LINE      CODE     ---       #130
      010023ECH   LINE      CODE     ---       #131
      010023FEH   LINE      CODE     ---       #133
      010023FEH   LINE      CODE     ---       #134
      0100240AH   LINE      CODE     ---       #135
      01002439H   LINE      CODE     ---       #136
      0100243FH   LINE      CODE     ---       #137
      0100243FH   LINE      CODE     ---       #139
      01002455H   LINE      CODE     ---       #140
      01002455H   LINE      CODE     ---       #141
      ---         BLOCKEND  ---      ---       LVL=0

      010014D5H   BLOCK     CODE     ---       LVL=0
      010014D5H   BLOCK     CODE     NEAR LAB  LVL=1
      00000008H   SYMBOL    DATA     BYTE      temp
      00000009H   SYMBOL    DATA     WORD      Vad
      0000000BH   SYMBOL    DATA     DWORD     Rx
LX51 LINKER/LOCATER V4.66.93.0                                                        06/27/2023  19:17:35  PAGE 136


      ---         BLOCKEND  ---      ---       LVL=1
      010014D5H   LINE      CODE     ---       #143
      010014D5H   LINE      CODE     ---       #144
      010014D5H   LINE      CODE     ---       #152
      010014DEH   LINE      CODE     ---       #153
      010014E4H   LINE      CODE     ---       #154
      010014E4H   LINE      CODE     ---       #155
      010014E9H   LINE      CODE     ---       #156
      010014EBH   LINE      CODE     ---       #158
      010014EBH   LINE      CODE     ---       #159
      010014F6H   LINE      CODE     ---       #160
      010014F6H   LINE      CODE     ---       #161
      010014FCH   LINE      CODE     ---       #162
      01001502H   LINE      CODE     ---       #164
      01001502H   LINE      CODE     ---       #167
      01001532H   LINE      CODE     ---       #170
      01001565H   LINE      CODE     ---       #171
      01001565H   LINE      CODE     ---       #172
      01001573H   LINE      CODE     ---       #173
      01001573H   LINE      CODE     ---       #174
      010015BDH   LINE      CODE     ---       #175
      010015BDH   LINE      CODE     ---       #176
      010015C1H   LINE      CODE     ---       #178
      010015C6H   LINE      CODE     ---       #179
      010015CAH   LINE      CODE     ---       #180
      010015CEH   LINE      CODE     ---       #181
      010015D0H   LINE      CODE     ---       #183
      010015D0H   LINE      CODE     ---       #184
      010015EBH   LINE      CODE     ---       #185
      010015EBH   LINE      CODE     ---       #186
      010015EEH   LINE      CODE     ---       #187
      010015FCH   LINE      CODE     ---       #188
      010015FCH   LINE      CODE     ---       #189
      010015FFH   LINE      CODE     ---       #190
      01001605H   LINE      CODE     ---       #191
      01001605H   LINE      CODE     ---       #192
      01001607H   LINE      CODE     ---       #194
      01001607H   LINE      CODE     ---       #195
      0100160AH   LINE      CODE     ---       #196
      01001619H   LINE      CODE     ---       #197
      01001619H   LINE      CODE     ---       #198
      0100161CH   LINE      CODE     ---       #199
      01001622H   LINE      CODE     ---       #200
      01001622H   LINE      CODE     ---       #201
      01001622H   LINE      CODE     ---       #202
      01001622H   LINE      CODE     ---       #204
      0100162CH   LINE      CODE     ---       #205
      ---         BLOCKEND  ---      ---       LVL=0

      ---         MODULE    ---      ---       SCAN_KEY
      00000022H.2 PUBLIC    BIT      BIT       bKeyPressed
      01001A70H   PUBLIC    CODE     ---       ScanKey_Run_Task
      01002DFDH   PUBLIC    CODE     ---       _Get_Key_IsPressed
      01002D2BH   PUBLIC    CODE     ---       _Get_Key_IsRelease
      01002DEEH   PUBLIC    CODE     ---       Key_Init
      000000C8H.0 SFRSYM    DATA     BIT       T2I0
      000000C3H   SFRSYM    DATA     BYTE      CCH1
      00000080H   SFRSYM    DATA     BYTE      P0
      000000C8H.1 SFRSYM    DATA     BIT       T2I1
      000000C5H   SFRSYM    DATA     BYTE      CCH2
      00000090H   SFRSYM    DATA     BYTE      P1
      000000C7H   SFRSYM    DATA     BYTE      CCH3
      000000ACH   SFRSYM    DATA     BYTE      P0EXTIE
      000000A0H   SFRSYM    DATA     BYTE      P2
      000000B4H   SFRSYM    DATA     BYTE      P0EXTIF
LX51 LINKER/LOCATER V4.66.93.0                                                        06/27/2023  19:17:35  PAGE 137


      000000ADH   SFRSYM    DATA     BYTE      P1EXTIE
      000000D0H.6 SFRSYM    DATA     BIT       AC
      000000FFH   SFRSYM    DATA     BYTE      MCTRL
      000000C2H   SFRSYM    DATA     BYTE      CCL1
      000000B5H   SFRSYM    DATA     BYTE      P1EXTIF
      000000AEH   SFRSYM    DATA     BYTE      P2EXTIE
      000000D8H   SFRSYM    DATA     BYTE      P5
      000000C4H   SFRSYM    DATA     BYTE      CCL2
      000000B6H   SFRSYM    DATA     BYTE      P2EXTIF
      000000A8H.7 SFRSYM    DATA     BIT       EA
      000000C6H   SFRSYM    DATA     BYTE      CCL3
      000000AAH   SFRSYM    DATA     BYTE      EIE2
      000000B2H   SFRSYM    DATA     BYTE      EIF2
      0000009CH   SFRSYM    DATA     BYTE      P5EXTIE
      000000A7H   SFRSYM    DATA     BYTE      P5EXTIF
      000000C8H.3 SFRSYM    DATA     BIT       T2R0
      000000C8H.4 SFRSYM    DATA     BIT       T2R1
      00000083H   SFRSYM    DATA     BYTE      DPH0
      000000A8H   SFRSYM    DATA     BYTE      IE
      00000085H   SFRSYM    DATA     BYTE      DPH1
      00000080H.0 SFRSYM    DATA     BIT       P0_0
      000000B9H   SFRSYM    DATA     BYTE      EIP1
      00000090H.0 SFRSYM    DATA     BIT       P1_0
      00000080H.1 SFRSYM    DATA     BIT       P0_1
      000000BAH   SFRSYM    DATA     BYTE      EIP2
      00000082H   SFRSYM    DATA     BYTE      DPL0
      000000A0H.0 SFRSYM    DATA     BIT       P2_0
      00000090H.1 SFRSYM    DATA     BIT       P1_1
      00000080H.2 SFRSYM    DATA     BIT       P0_2
      000000BBH   SFRSYM    DATA     BYTE      EIP3
      00000084H   SFRSYM    DATA     BYTE      DPL1
      000000A0H.1 SFRSYM    DATA     BIT       P2_1
      00000090H.2 SFRSYM    DATA     BIT       P1_2
      00000080H.3 SFRSYM    DATA     BIT       P0_3
      000000A0H.2 SFRSYM    DATA     BIT       P2_2
      00000090H.3 SFRSYM    DATA     BIT       P1_3
      00000080H.4 SFRSYM    DATA     BIT       P0_4
      000000D8H.0 SFRSYM    DATA     BIT       P5_0
      000000C8H.6 SFRSYM    DATA     BIT       I3FR
      000000A0H.3 SFRSYM    DATA     BIT       P2_3
      00000090H.4 SFRSYM    DATA     BIT       P1_4
      00000080H.5 SFRSYM    DATA     BIT       P0_5
      000000CFH   SFRSYM    DATA     BYTE      T2IE
      00000096H   SFRSYM    DATA     BYTE      TA
      000000D8H.1 SFRSYM    DATA     BIT       P5_1
      000000A0H.4 SFRSYM    DATA     BIT       P2_4
      00000090H.5 SFRSYM    DATA     BIT       P1_5
      00000080H.6 SFRSYM    DATA     BIT       P0_6
      000000C9H   SFRSYM    DATA     BYTE      T2IF
      000000D8H.2 SFRSYM    DATA     BIT       P5_2
      000000C8H.2 SFRSYM    DATA     BIT       T2CM
      000000A0H.5 SFRSYM    DATA     BIT       P2_5
      00000090H.6 SFRSYM    DATA     BIT       P1_6
      00000080H.7 SFRSYM    DATA     BIT       P0_7
      000000DFH   SFRSYM    DATA     BYTE      ADCON0
      000000D8H.3 SFRSYM    DATA     BIT       P5_3
      000000A0H.6 SFRSYM    DATA     BIT       P2_6
      00000090H.7 SFRSYM    DATA     BIT       P1_7
      000000DEH   SFRSYM    DATA     BYTE      ADCON1
      000000D8H.4 SFRSYM    DATA     BIT       P5_4
      000000A0H.7 SFRSYM    DATA     BIT       P2_7
      000000E9H   SFRSYM    DATA     BYTE      ADCON2
      000000B8H   SFRSYM    DATA     BYTE      IP
      000000D8H.5 SFRSYM    DATA     BIT       P5_5
      000000CEH   SFRSYM    DATA     BYTE      CCEN
LX51 LINKER/LOCATER V4.66.93.0                                                        06/27/2023  19:17:35  PAGE 138


      000000D8H.6 SFRSYM    DATA     BIT       P5_6
      000000D8H.7 SFRSYM    DATA     BIT       P5_7
      000000D0H.7 SFRSYM    DATA     BIT       CY
      000000D2H   SFRSYM    DATA     BYTE      T34MOD
      000000F4H   SFRSYM    DATA     BYTE      I2CMSA
      000000D7H   SFRSYM    DATA     BYTE      SCKSTAU
      000000F5H   SFRSYM    DATA     BYTE      I2CMCR
      00000081H   SFRSYM    DATA     BYTE      SP
      000000D0H.2 SFRSYM    DATA     BIT       OV
      000000F2H   SFRSYM    DATA     BYTE      I2CSCR
      000000D9H   SFRSYM    DATA     BYTE      ADCCHS
      000000C8H.7 SFRSYM    DATA     BIT       T2PS
      000000D1H   SFRSYM    DATA     BYTE      ADCMPC
      000000CBH   SFRSYM    DATA     BYTE      RLDH
      000000D5H   SFRSYM    DATA     BYTE      ADCMPH
      000000CAH   SFRSYM    DATA     BYTE      RLDL
      00000080H.0 SFRSYM    DATA     BIT       P00
      00000090H.0 SFRSYM    DATA     BIT       P10
      00000080H.1 SFRSYM    DATA     BIT       P01
      000000F7H   SFRSYM    DATA     BYTE      I2CMTP
      00000087H   SFRSYM    DATA     BYTE      PCON
      000000A0H.0 SFRSYM    DATA     BIT       P20
      00000090H.1 SFRSYM    DATA     BIT       P11
      00000080H.2 SFRSYM    DATA     BIT       P02
      000000F5H   SFRSYM    DATA     BYTE      I2CMSR
      000000A0H.1 SFRSYM    DATA     BIT       P21
      00000090H.2 SFRSYM    DATA     BIT       P12
      00000080H.3 SFRSYM    DATA     BIT       P03
      000000D4H   SFRSYM    DATA     BYTE      ADCMPL
      000000A0H.2 SFRSYM    DATA     BIT       P22
      00000090H.3 SFRSYM    DATA     BIT       P13
      00000080H.4 SFRSYM    DATA     BIT       P04
      000000D8H.0 SFRSYM    DATA     BIT       P50
      000000A0H.3 SFRSYM    DATA     BIT       P23
      00000090H.4 SFRSYM    DATA     BIT       P14
      00000080H.5 SFRSYM    DATA     BIT       P05
      00000089H   SFRSYM    DATA     BYTE      TMOD
      00000088H   SFRSYM    DATA     BYTE      TCON
      000000D8H.1 SFRSYM    DATA     BIT       P51
      00000090H.5 SFRSYM    DATA     BIT       P15
      00000080H.6 SFRSYM    DATA     BIT       P06
      000000FAH   SFRSYM    DATA     BYTE      PCRCDH
      000000D8H.2 SFRSYM    DATA     BIT       P52
      00000090H.6 SFRSYM    DATA     BIT       P16
      00000080H.7 SFRSYM    DATA     BIT       P07
      000000D8H.3 SFRSYM    DATA     BIT       P53
      00000090H.7 SFRSYM    DATA     BIT       P17
      000000F2H   SFRSYM    DATA     BYTE      I2CSSR
      000000D8H.4 SFRSYM    DATA     BIT       P54
      000000ECH   SFRSYM    DATA     BYTE      SPCR
      000000DDH   SFRSYM    DATA     BYTE      ADRESH
      000000D8H.5 SFRSYM    DATA     BIT       P55
      000000F9H   SFRSYM    DATA     BYTE      PCRCDL
      000000EEH   SFRSYM    DATA     BYTE      SPDR
      000000EFH   SFRSYM    DATA     BYTE      SSCR
      000000D3H   SFRSYM    DATA     BYTE      ADDLYL
      000000DCH   SFRSYM    DATA     BYTE      ADRESL
      00000088H.1 SFRSYM    DATA     BIT       IE0
      00000088H.3 SFRSYM    DATA     BIT       IE1
      0000008FH   SFRSYM    DATA     BYTE      CLKDIV
      000000F0H   SFRSYM    DATA     BYTE      B
      00000091H   SFRSYM    DATA     BYTE      FUNCCR
      0000009AH   SFRSYM    DATA     BYTE      P0TRIS
      000000A1H   SFRSYM    DATA     BYTE      P1TRIS
      000000A2H   SFRSYM    DATA     BYTE      P2TRIS
LX51 LINKER/LOCATER V4.66.93.0                                                        06/27/2023  19:17:35  PAGE 139


      000000E0H   SFRSYM    DATA     BYTE      ACC
      000000D6H   SFRSYM    DATA     BYTE      SCKSEL
      000000A8H.4 SFRSYM    DATA     BIT       ES0
      000000A8H.1 SFRSYM    DATA     BIT       ET0
      000000A8H.6 SFRSYM    DATA     BIT       ES1
      000000EDH   SFRSYM    DATA     BYTE      SPSR
      000000A5H   SFRSYM    DATA     BYTE      P5TRIS
      000000A8H.3 SFRSYM    DATA     BIT       ET1
      00000088H.5 SFRSYM    DATA     BIT       TF0
      000000A8H.5 SFRSYM    DATA     BIT       ET2
      00000098H.0 SFRSYM    DATA     BIT       RI0
      00000088H.7 SFRSYM    DATA     BIT       TF1
      0000008CH   SFRSYM    DATA     BYTE      TH0
      000000A8H.0 SFRSYM    DATA     BIT       EX0
      00000098H.1 SFRSYM    DATA     BIT       TI0
      00000088H.0 SFRSYM    DATA     BIT       IT0
      0000008DH   SFRSYM    DATA     BYTE      TH1
      000000A8H.2 SFRSYM    DATA     BIT       EX1
      00000088H.2 SFRSYM    DATA     BIT       IT1
      000000CDH   SFRSYM    DATA     BYTE      TH2
      000000D0H.0 SFRSYM    DATA     BIT       P
      000000DBH   SFRSYM    DATA     BYTE      TH3
      000000E3H   SFRSYM    DATA     BYTE      TH4
      0000008AH   SFRSYM    DATA     BYTE      TL0
      000000F0H.0 SFRSYM    DATA     BIT       B_0
      0000008BH   SFRSYM    DATA     BYTE      TL1
      000000F0H.1 SFRSYM    DATA     BIT       B_1
      00000098H.2 SFRSYM    DATA     BIT       U0RB8
      000000CCH   SFRSYM    DATA     BYTE      TL2
      000000F0H.2 SFRSYM    DATA     BIT       B_2
      000000B8H.4 SFRSYM    DATA     BIT       PS0
      000000DAH   SFRSYM    DATA     BYTE      TL3
      000000BFH   SFRSYM    DATA     BYTE      BUZCON
      000000F0H.3 SFRSYM    DATA     BIT       B_3
      000000B8H.1 SFRSYM    DATA     BIT       PT0
      000000B8H.6 SFRSYM    DATA     BIT       PS1
      00000098H.3 SFRSYM    DATA     BIT       U0TB8
      000000E2H   SFRSYM    DATA     BYTE      TL4
      000000F0H.4 SFRSYM    DATA     BIT       B_4
      000000D0H.3 SFRSYM    DATA     BIT       RS0
      000000B8H.3 SFRSYM    DATA     BIT       PT1
      000000F0H.5 SFRSYM    DATA     BIT       B_5
      000000D0H.4 SFRSYM    DATA     BIT       RS1
      000000B8H.5 SFRSYM    DATA     BIT       PT2
      00000098H.7 SFRSYM    DATA     BIT       U0SM0
      00000088H.4 SFRSYM    DATA     BIT       TR0
      000000BEH   SFRSYM    DATA     BYTE      BUZDIV
      000000F0H.6 SFRSYM    DATA     BIT       B_6
      000000E0H.0 SFRSYM    DATA     BIT       ACC_0
      00000098H.6 SFRSYM    DATA     BIT       U0SM1
      00000088H.6 SFRSYM    DATA     BIT       TR1
      000000F0H.7 SFRSYM    DATA     BIT       B_7
      000000E0H.1 SFRSYM    DATA     BIT       ACC_1
      000000B8H.0 SFRSYM    DATA     BIT       PX0
      00000098H.5 SFRSYM    DATA     BIT       U0SM2
      000000E0H.2 SFRSYM    DATA     BIT       ACC_2
      000000B8H.2 SFRSYM    DATA     BIT       PX1
      000000E0H.3 SFRSYM    DATA     BIT       ACC_3
      000000E0H.4 SFRSYM    DATA     BIT       ACC_4
      000000E0H.5 SFRSYM    DATA     BIT       ACC_5
      000000E0H.6 SFRSYM    DATA     BIT       ACC_6
      000000E0H.7 SFRSYM    DATA     BIT       ACC_7
      000000BDH   SFRSYM    DATA     BYTE      WUTCRH
      00000099H   SFRSYM    DATA     BYTE      SBUF0
      000000EBH   SFRSYM    DATA     BYTE      SBUF1
LX51 LINKER/LOCATER V4.66.93.0                                                        06/27/2023  19:17:35  PAGE 140


      000000BCH   SFRSYM    DATA     BYTE      WUTCRL
      00000098H   SFRSYM    DATA     BYTE      SCON0
      000000EAH   SFRSYM    DATA     BYTE      SCON1
      000000C8H   SFRSYM    DATA     BYTE      T2CON
      00000086H   SFRSYM    DATA     BYTE      DPS
      000000FEH   SFRSYM    DATA     BYTE      MDATA
      000000F6H   SFRSYM    DATA     BYTE      I2CMBUF
      000000F1H   SFRSYM    DATA     BYTE      I2CSADR
      00000098H.4 SFRSYM    DATA     BIT       U0REN
      000000C8H.5 SFRSYM    DATA     BIT       CAPES
      000000FDH   SFRSYM    DATA     BYTE      MADRH
      0000008EH   SFRSYM    DATA     BYTE      CKCON
      000000F3H   SFRSYM    DATA     BYTE      I2CSBUF
      000000FCH   SFRSYM    DATA     BYTE      MADRL
      000000D0H.5 SFRSYM    DATA     BIT       F0
      000000FBH   SFRSYM    DATA     BYTE      MLOCK
      000000D0H   SFRSYM    DATA     BYTE      PSW
      00000097H   SFRSYM    DATA     BYTE      WDCON
      00000023H   SYMBOL    DATA     BYTE      rdKeyValue
      00000024H   SYMBOL    DATA     WORD      u16KeyReleaseTmr
      00000026H   SYMBOL    DATA     DWORD     u32KeyValueFlag
      0000002AH   SYMBOL    DATA     BYTE      u8KeyNew
      0000002BH   SYMBOL    DATA     BYTE      KeyPressInterval
      0000002CH   SYMBOL    DATA     BYTE      u8KeyTmp
      0000002DH   SYMBOL    DATA     BYTE      ScanKeyRunCnt
      0000002EH   SYMBOL    DATA     WORD      u16KeyPressedTmr
      00000022H.1 SYMBOL    BIT      BIT       bIsKeyPressed

      01002DEEH   BLOCK     CODE     ---       LVL=0
      01002DEEH   LINE      CODE     ---       #6
      01002DEEH   LINE      CODE     ---       #7
      01002DEEH   LINE      CODE     ---       #9
      01002DF4H   LINE      CODE     ---       #10
      01002DF7H   LINE      CODE     ---       #12
      01002DF9H   LINE      CODE     ---       #13
      01002DFCH   LINE      CODE     ---       #14
      ---         BLOCKEND  ---      ---       LVL=0

      01002D2BH   BLOCK     CODE     ---       LVL=0
      00000006H   SYMBOL    DATA     WORD      MsgValue
      01002D2BH   LINE      CODE     ---       #17
      01002D2BH   LINE      CODE     ---       #18
      01002D2BH   LINE      CODE     ---       #19
      01002D43H   LINE      CODE     ---       #22
      ---         BLOCKEND  ---      ---       LVL=0

      01002DFDH   BLOCK     CODE     ---       LVL=0
      00000006H   SYMBOL    DATA     WORD      MsgValue
      00000004H   SYMBOL    DATA     WORD      Time
      01002DFDH   LINE      CODE     ---       #25
      01002DFDH   LINE      CODE     ---       #26
      01002DFDH   LINE      CODE     ---       #27
      01002E0AH   LINE      CODE     ---       #28
      ---         BLOCKEND  ---      ---       LVL=0

      01001A70H   BLOCK     CODE     ---       LVL=0
      01001A70H   LINE      CODE     ---       #41
      01001A70H   LINE      CODE     ---       #42
      01001A70H   LINE      CODE     ---       #43
      01001A72H   LINE      CODE     ---       #44
      01001A80H   LINE      CODE     ---       #46
      01001A83H   LINE      CODE     ---       #49
      01001A85H   LINE      CODE     ---       #50
      01001A87H   LINE      CODE     ---       #52
      01001A92H   LINE      CODE     ---       #53
LX51 LINKER/LOCATER V4.66.93.0                                                        06/27/2023  19:17:35  PAGE 141


      01001A94H   LINE      CODE     ---       #56
      01001A97H   LINE      CODE     ---       #57
      01001AA0H   LINE      CODE     ---       #59
      01001AA2H   LINE      CODE     ---       #60
      01001AA9H   LINE      CODE     ---       #61
      01001AA9H   LINE      CODE     ---       #62
      01001AA9H   LINE      CODE     ---       #63
      01001AACH   LINE      CODE     ---       #64
      01001AAEH   LINE      CODE     ---       #65
      01001AAEH   LINE      CODE     ---       #66
      01001AB1H   LINE      CODE     ---       #67
      01001AB3H   LINE      CODE     ---       #75
      01001AB3H   LINE      CODE     ---       #76
      01001AB6H   LINE      CODE     ---       #77
      01001AB6H   LINE      CODE     ---       #78
      01001AB6H   LINE      CODE     ---       #81
      01001AC1H   LINE      CODE     ---       #82
      01001AC1H   LINE      CODE     ---       #84
      01001AC9H   LINE      CODE     ---       #85
      01001AD3H   LINE      CODE     ---       #86
      01001AD3H   LINE      CODE     ---       #88
      01001AD6H   LINE      CODE     ---       #90
      01001AECH   LINE      CODE     ---       #91
      01001AECH   LINE      CODE     ---       #92
      01001AF3H   LINE      CODE     ---       #93
      01001AF3H   LINE      CODE     ---       #95
      01001AF5H   LINE      CODE     ---       #96
      01001AFAH   LINE      CODE     ---       #98
      01001AFCH   LINE      CODE     ---       #99
      01001AFFH   LINE      CODE     ---       #100
      01001B02H   LINE      CODE     ---       #101
      01001B02H   LINE      CODE     ---       #102
      01001B02H   LINE      CODE     ---       #104
      01001B0BH   LINE      CODE     ---       #105
      01001B0BH   LINE      CODE     ---       #108
      01001B0BH   LINE      CODE     ---       #110
      01001B20H   LINE      CODE     ---       #111
      01001B20H   LINE      CODE     ---       #113
      01001B28H   LINE      CODE     ---       #114
      01001B2BH   LINE      CODE     ---       #115
      01001B3DH   LINE      CODE     ---       #116
      01001B3DH   LINE      CODE     ---       #118
      01001B43H   LINE      CODE     ---       #119
      01001B43H   LINE      CODE     ---       #121
      01001B46H   LINE      CODE     ---       #122
      01001B46H   LINE      CODE     ---       #136
      01001B49H   LINE      CODE     ---       #138
      01001B4CH   LINE      CODE     ---       #139
      01001B4FH   LINE      CODE     ---       #140
      01001B55H   LINE      CODE     ---       #141
      01001B55H   LINE      CODE     ---       #143
      01001B5EH   LINE      CODE     ---       #144
      01001B5EH   LINE      CODE     ---       #145
      ---         BLOCKEND  ---      ---       LVL=0

      ---         MODULE    ---      ---       COMMON
      01002C02H   PUBLIC    CODE     ---       _StationRun_Common
      01002DBDH   PUBLIC    CODE     ---       Common_Init
      000000C8H.0 SFRSYM    DATA     BIT       T2I0
      000000C3H   SFRSYM    DATA     BYTE      CCH1
      00000080H   SFRSYM    DATA     BYTE      P0
      000000C8H.1 SFRSYM    DATA     BIT       T2I1
      000000C5H   SFRSYM    DATA     BYTE      CCH2
      00000090H   SFRSYM    DATA     BYTE      P1
      000000C7H   SFRSYM    DATA     BYTE      CCH3
LX51 LINKER/LOCATER V4.66.93.0                                                        06/27/2023  19:17:35  PAGE 142


      000000ACH   SFRSYM    DATA     BYTE      P0EXTIE
      000000A0H   SFRSYM    DATA     BYTE      P2
      000000B4H   SFRSYM    DATA     BYTE      P0EXTIF
      000000ADH   SFRSYM    DATA     BYTE      P1EXTIE
      000000D0H.6 SFRSYM    DATA     BIT       AC
      000000FFH   SFRSYM    DATA     BYTE      MCTRL
      000000C2H   SFRSYM    DATA     BYTE      CCL1
      000000B5H   SFRSYM    DATA     BYTE      P1EXTIF
      000000AEH   SFRSYM    DATA     BYTE      P2EXTIE
      000000D8H   SFRSYM    DATA     BYTE      P5
      000000C4H   SFRSYM    DATA     BYTE      CCL2
      000000B6H   SFRSYM    DATA     BYTE      P2EXTIF
      000000A8H.7 SFRSYM    DATA     BIT       EA
      000000C6H   SFRSYM    DATA     BYTE      CCL3
      000000AAH   SFRSYM    DATA     BYTE      EIE2
      000000B2H   SFRSYM    DATA     BYTE      EIF2
      0000009CH   SFRSYM    DATA     BYTE      P5EXTIE
      000000A7H   SFRSYM    DATA     BYTE      P5EXTIF
      000000C8H.3 SFRSYM    DATA     BIT       T2R0
      000000C8H.4 SFRSYM    DATA     BIT       T2R1
      00000083H   SFRSYM    DATA     BYTE      DPH0
      000000A8H   SFRSYM    DATA     BYTE      IE
      00000085H   SFRSYM    DATA     BYTE      DPH1
      00000080H.0 SFRSYM    DATA     BIT       P0_0
      000000B9H   SFRSYM    DATA     BYTE      EIP1
      00000090H.0 SFRSYM    DATA     BIT       P1_0
      00000080H.1 SFRSYM    DATA     BIT       P0_1
      000000BAH   SFRSYM    DATA     BYTE      EIP2
      00000082H   SFRSYM    DATA     BYTE      DPL0
      000000A0H.0 SFRSYM    DATA     BIT       P2_0
      00000090H.1 SFRSYM    DATA     BIT       P1_1
      00000080H.2 SFRSYM    DATA     BIT       P0_2
      000000BBH   SFRSYM    DATA     BYTE      EIP3
      00000084H   SFRSYM    DATA     BYTE      DPL1
      000000A0H.1 SFRSYM    DATA     BIT       P2_1
      00000090H.2 SFRSYM    DATA     BIT       P1_2
      00000080H.3 SFRSYM    DATA     BIT       P0_3
      000000A0H.2 SFRSYM    DATA     BIT       P2_2
      00000090H.3 SFRSYM    DATA     BIT       P1_3
      00000080H.4 SFRSYM    DATA     BIT       P0_4
      000000D8H.0 SFRSYM    DATA     BIT       P5_0
      000000C8H.6 SFRSYM    DATA     BIT       I3FR
      000000A0H.3 SFRSYM    DATA     BIT       P2_3
      00000090H.4 SFRSYM    DATA     BIT       P1_4
      00000080H.5 SFRSYM    DATA     BIT       P0_5
      000000CFH   SFRSYM    DATA     BYTE      T2IE
      00000096H   SFRSYM    DATA     BYTE      TA
      000000D8H.1 SFRSYM    DATA     BIT       P5_1
      000000A0H.4 SFRSYM    DATA     BIT       P2_4
      00000090H.5 SFRSYM    DATA     BIT       P1_5
      00000080H.6 SFRSYM    DATA     BIT       P0_6
      000000C9H   SFRSYM    DATA     BYTE      T2IF
      000000D8H.2 SFRSYM    DATA     BIT       P5_2
      000000C8H.2 SFRSYM    DATA     BIT       T2CM
      000000A0H.5 SFRSYM    DATA     BIT       P2_5
      00000090H.6 SFRSYM    DATA     BIT       P1_6
      00000080H.7 SFRSYM    DATA     BIT       P0_7
      000000DFH   SFRSYM    DATA     BYTE      ADCON0
      000000D8H.3 SFRSYM    DATA     BIT       P5_3
      000000A0H.6 SFRSYM    DATA     BIT       P2_6
      00000090H.7 SFRSYM    DATA     BIT       P1_7
      000000DEH   SFRSYM    DATA     BYTE      ADCON1
      000000D8H.4 SFRSYM    DATA     BIT       P5_4
      000000A0H.7 SFRSYM    DATA     BIT       P2_7
      000000E9H   SFRSYM    DATA     BYTE      ADCON2
LX51 LINKER/LOCATER V4.66.93.0                                                        06/27/2023  19:17:35  PAGE 143


      000000B8H   SFRSYM    DATA     BYTE      IP
      000000D8H.5 SFRSYM    DATA     BIT       P5_5
      000000CEH   SFRSYM    DATA     BYTE      CCEN
      000000D8H.6 SFRSYM    DATA     BIT       P5_6
      000000D8H.7 SFRSYM    DATA     BIT       P5_7
      000000D0H.7 SFRSYM    DATA     BIT       CY
      000000D2H   SFRSYM    DATA     BYTE      T34MOD
      000000F4H   SFRSYM    DATA     BYTE      I2CMSA
      000000D7H   SFRSYM    DATA     BYTE      SCKSTAU
      000000F5H   SFRSYM    DATA     BYTE      I2CMCR
      00000081H   SFRSYM    DATA     BYTE      SP
      000000D0H.2 SFRSYM    DATA     BIT       OV
      000000F2H   SFRSYM    DATA     BYTE      I2CSCR
      000000D9H   SFRSYM    DATA     BYTE      ADCCHS
      000000C8H.7 SFRSYM    DATA     BIT       T2PS
      000000D1H   SFRSYM    DATA     BYTE      ADCMPC
      000000CBH   SFRSYM    DATA     BYTE      RLDH
      000000D5H   SFRSYM    DATA     BYTE      ADCMPH
      000000CAH   SFRSYM    DATA     BYTE      RLDL
      00000080H.0 SFRSYM    DATA     BIT       P00
      00000090H.0 SFRSYM    DATA     BIT       P10
      00000080H.1 SFRSYM    DATA     BIT       P01
      000000F7H   SFRSYM    DATA     BYTE      I2CMTP
      00000087H   SFRSYM    DATA     BYTE      PCON
      000000A0H.0 SFRSYM    DATA     BIT       P20
      00000090H.1 SFRSYM    DATA     BIT       P11
      00000080H.2 SFRSYM    DATA     BIT       P02
      000000F5H   SFRSYM    DATA     BYTE      I2CMSR
      000000A0H.1 SFRSYM    DATA     BIT       P21
      00000090H.2 SFRSYM    DATA     BIT       P12
      00000080H.3 SFRSYM    DATA     BIT       P03
      000000D4H   SFRSYM    DATA     BYTE      ADCMPL
      000000A0H.2 SFRSYM    DATA     BIT       P22
      00000090H.3 SFRSYM    DATA     BIT       P13
      00000080H.4 SFRSYM    DATA     BIT       P04
      000000D8H.0 SFRSYM    DATA     BIT       P50
      000000A0H.3 SFRSYM    DATA     BIT       P23
      00000090H.4 SFRSYM    DATA     BIT       P14
      00000080H.5 SFRSYM    DATA     BIT       P05
      00000089H   SFRSYM    DATA     BYTE      TMOD
      00000088H   SFRSYM    DATA     BYTE      TCON
      000000D8H.1 SFRSYM    DATA     BIT       P51
      00000090H.5 SFRSYM    DATA     BIT       P15
      00000080H.6 SFRSYM    DATA     BIT       P06
      000000FAH   SFRSYM    DATA     BYTE      PCRCDH
      000000D8H.2 SFRSYM    DATA     BIT       P52
      00000090H.6 SFRSYM    DATA     BIT       P16
      00000080H.7 SFRSYM    DATA     BIT       P07
      000000D8H.3 SFRSYM    DATA     BIT       P53
      00000090H.7 SFRSYM    DATA     BIT       P17
      000000F2H   SFRSYM    DATA     BYTE      I2CSSR
      000000D8H.4 SFRSYM    DATA     BIT       P54
      000000ECH   SFRSYM    DATA     BYTE      SPCR
      000000DDH   SFRSYM    DATA     BYTE      ADRESH
      000000D8H.5 SFRSYM    DATA     BIT       P55
      000000F9H   SFRSYM    DATA     BYTE      PCRCDL
      000000EEH   SFRSYM    DATA     BYTE      SPDR
      000000EFH   SFRSYM    DATA     BYTE      SSCR
      000000D3H   SFRSYM    DATA     BYTE      ADDLYL
      000000DCH   SFRSYM    DATA     BYTE      ADRESL
      00000088H.1 SFRSYM    DATA     BIT       IE0
      00000088H.3 SFRSYM    DATA     BIT       IE1
      0000008FH   SFRSYM    DATA     BYTE      CLKDIV
      000000F0H   SFRSYM    DATA     BYTE      B
      00000091H   SFRSYM    DATA     BYTE      FUNCCR
LX51 LINKER/LOCATER V4.66.93.0                                                        06/27/2023  19:17:35  PAGE 144


      0000009AH   SFRSYM    DATA     BYTE      P0TRIS
      000000A1H   SFRSYM    DATA     BYTE      P1TRIS
      000000A2H   SFRSYM    DATA     BYTE      P2TRIS
      000000E0H   SFRSYM    DATA     BYTE      ACC
      000000D6H   SFRSYM    DATA     BYTE      SCKSEL
      000000A8H.4 SFRSYM    DATA     BIT       ES0
      000000A8H.1 SFRSYM    DATA     BIT       ET0
      000000A8H.6 SFRSYM    DATA     BIT       ES1
      000000EDH   SFRSYM    DATA     BYTE      SPSR
      000000A5H   SFRSYM    DATA     BYTE      P5TRIS
      000000A8H.3 SFRSYM    DATA     BIT       ET1
      00000088H.5 SFRSYM    DATA     BIT       TF0
      000000A8H.5 SFRSYM    DATA     BIT       ET2
      00000098H.0 SFRSYM    DATA     BIT       RI0
      00000088H.7 SFRSYM    DATA     BIT       TF1
      0000008CH   SFRSYM    DATA     BYTE      TH0
      000000A8H.0 SFRSYM    DATA     BIT       EX0
      00000098H.1 SFRSYM    DATA     BIT       TI0
      00000088H.0 SFRSYM    DATA     BIT       IT0
      0000008DH   SFRSYM    DATA     BYTE      TH1
      000000A8H.2 SFRSYM    DATA     BIT       EX1
      00000088H.2 SFRSYM    DATA     BIT       IT1
      000000CDH   SFRSYM    DATA     BYTE      TH2
      000000D0H.0 SFRSYM    DATA     BIT       P
      000000DBH   SFRSYM    DATA     BYTE      TH3
      000000E3H   SFRSYM    DATA     BYTE      TH4
      0000008AH   SFRSYM    DATA     BYTE      TL0
      000000F0H.0 SFRSYM    DATA     BIT       B_0
      0000008BH   SFRSYM    DATA     BYTE      TL1
      000000F0H.1 SFRSYM    DATA     BIT       B_1
      00000098H.2 SFRSYM    DATA     BIT       U0RB8
      000000CCH   SFRSYM    DATA     BYTE      TL2
      000000F0H.2 SFRSYM    DATA     BIT       B_2
      000000B8H.4 SFRSYM    DATA     BIT       PS0
      000000DAH   SFRSYM    DATA     BYTE      TL3
      000000BFH   SFRSYM    DATA     BYTE      BUZCON
      000000F0H.3 SFRSYM    DATA     BIT       B_3
      000000B8H.1 SFRSYM    DATA     BIT       PT0
      000000B8H.6 SFRSYM    DATA     BIT       PS1
      00000098H.3 SFRSYM    DATA     BIT       U0TB8
      000000E2H   SFRSYM    DATA     BYTE      TL4
      000000F0H.4 SFRSYM    DATA     BIT       B_4
      000000D0H.3 SFRSYM    DATA     BIT       RS0
      000000B8H.3 SFRSYM    DATA     BIT       PT1
      000000F0H.5 SFRSYM    DATA     BIT       B_5
      000000D0H.4 SFRSYM    DATA     BIT       RS1
      000000B8H.5 SFRSYM    DATA     BIT       PT2
      00000098H.7 SFRSYM    DATA     BIT       U0SM0
      00000088H.4 SFRSYM    DATA     BIT       TR0
      000000BEH   SFRSYM    DATA     BYTE      BUZDIV
      000000F0H.6 SFRSYM    DATA     BIT       B_6
      000000E0H.0 SFRSYM    DATA     BIT       ACC_0
      00000098H.6 SFRSYM    DATA     BIT       U0SM1
      00000088H.6 SFRSYM    DATA     BIT       TR1
      000000F0H.7 SFRSYM    DATA     BIT       B_7
      000000E0H.1 SFRSYM    DATA     BIT       ACC_1
      000000B8H.0 SFRSYM    DATA     BIT       PX0
      00000098H.5 SFRSYM    DATA     BIT       U0SM2
      000000E0H.2 SFRSYM    DATA     BIT       ACC_2
      000000B8H.2 SFRSYM    DATA     BIT       PX1
      000000E0H.3 SFRSYM    DATA     BIT       ACC_3
      000000E0H.4 SFRSYM    DATA     BIT       ACC_4
      000000E0H.5 SFRSYM    DATA     BIT       ACC_5
      000000E0H.6 SFRSYM    DATA     BIT       ACC_6
      000000E0H.7 SFRSYM    DATA     BIT       ACC_7
LX51 LINKER/LOCATER V4.66.93.0                                                        06/27/2023  19:17:35  PAGE 145


      000000BDH   SFRSYM    DATA     BYTE      WUTCRH
      00000099H   SFRSYM    DATA     BYTE      SBUF0
      000000EBH   SFRSYM    DATA     BYTE      SBUF1
      000000BCH   SFRSYM    DATA     BYTE      WUTCRL
      00000098H   SFRSYM    DATA     BYTE      SCON0
      000000EAH   SFRSYM    DATA     BYTE      SCON1
      000000C8H   SFRSYM    DATA     BYTE      T2CON
      00000086H   SFRSYM    DATA     BYTE      DPS
      000000FEH   SFRSYM    DATA     BYTE      MDATA
      000000F6H   SFRSYM    DATA     BYTE      I2CMBUF
      000000F1H   SFRSYM    DATA     BYTE      I2CSADR
      00000098H.4 SFRSYM    DATA     BIT       U0REN
      000000C8H.5 SFRSYM    DATA     BIT       CAPES
      000000FDH   SFRSYM    DATA     BYTE      MADRH
      0000008EH   SFRSYM    DATA     BYTE      CKCON
      000000F3H   SFRSYM    DATA     BYTE      I2CSBUF
      000000FCH   SFRSYM    DATA     BYTE      MADRL
      000000D0H.5 SFRSYM    DATA     BIT       F0
      000000FBH   SFRSYM    DATA     BYTE      MLOCK
      000000D0H   SFRSYM    DATA     BYTE      PSW
      00000097H   SFRSYM    DATA     BYTE      WDCON
      01002E6AH   SYMBOL    CODE     ---       _Common_MsgFunc_Key_Power
      01002E71H   SYMBOL    CODE     ---       _Common_MsgFunc_Key_Menu

      01002DBDH   BLOCK     CODE     ---       LVL=0
      01002DBDH   LINE      CODE     ---       #6
      01002DBDH   LINE      CODE     ---       #7
      01002DBDH   LINE      CODE     ---       #8
      ---         BLOCKEND  ---      ---       LVL=0

      01002E6AH   BLOCK     CODE     ---       LVL=0
      0000000BH   SYMBOL    DATA     WORD      MsgValue
      01002E6AH   LINE      CODE     ---       #17
      01002E6EH   LINE      CODE     ---       #18
      01002E6EH   LINE      CODE     ---       #19
      01002E6EH   LINE      CODE     ---       #21
      01002E70H   LINE      CODE     ---       #22
      ---         BLOCKEND  ---      ---       LVL=0

      01002E71H   BLOCK     CODE     ---       LVL=0
      0000000BH   SYMBOL    DATA     WORD      MsgValue
      01002E71H   LINE      CODE     ---       #24
      01002E75H   LINE      CODE     ---       #25
      01002E75H   LINE      CODE     ---       #26
      01002E75H   LINE      CODE     ---       #28
      01002E77H   LINE      CODE     ---       #29
      ---         BLOCKEND  ---      ---       LVL=0

      01002C02H   BLOCK     CODE     ---       LVL=0
      00000007H   SYMBOL    DATA     BYTE      Msg
      00000004H   SYMBOL    DATA     WORD      MsgValue
      01002C02H   BLOCK     CODE     NEAR LAB  LVL=1
      00000006H   SYMBOL    DATA     BYTE      retCode
      ---         BLOCKEND  ---      ---       LVL=1
      01002C02H   LINE      CODE     ---       #35
      01002C02H   LINE      CODE     ---       #36
      01002C02H   LINE      CODE     ---       #37
      01002C02H   LINE      CODE     ---       #39
      01002C0AH   LINE      CODE     ---       #40
      01002C0AH   LINE      CODE     ---       #41
      01002C0AH   LINE      CODE     ---       #42
      01002C13H   LINE      CODE     ---       #43
      01002C15H   LINE      CODE     ---       #44
      01002C15H   LINE      CODE     ---       #45
      01002C1EH   LINE      CODE     ---       #46
LX51 LINKER/LOCATER V4.66.93.0                                                        06/27/2023  19:17:35  PAGE 146


      01002C20H   LINE      CODE     ---       #48
      01002C20H   LINE      CODE     ---       #49
      01002C22H   LINE      CODE     ---       #50
      01002C22H   LINE      CODE     ---       #51
      01002C22H   LINE      CODE     ---       #53
      01002C24H   LINE      CODE     ---       #54
      ---         BLOCKEND  ---      ---       LVL=0

      ---         MODULE    ---      ---       EMERGENCY
      00000040H   PUBLIC    DATA     BYTE      emergencyType
      01002AF9H   PUBLIC    CODE     ---       _StationRun_Emergency
      01002456H   PUBLIC    CODE     ---       Emergency_Run_Task
      01002AA9H   PUBLIC    CODE     ---       Emergency_De
      01002926H   PUBLIC    CODE     ---       Emergency_TempHiCon
      01002D88H   PUBLIC    CODE     ---       Emergency_NTCCon
      01002E43H   PUBLIC    CODE     ---       Emergency_Con
      000000C8H.0 SFRSYM    DATA     BIT       T2I0
      000000C3H   SFRSYM    DATA     BYTE      CCH1
      00000080H   SFRSYM    DATA     BYTE      P0
      000000C8H.1 SFRSYM    DATA     BIT       T2I1
      000000C5H   SFRSYM    DATA     BYTE      CCH2
      00000090H   SFRSYM    DATA     BYTE      P1
      000000C7H   SFRSYM    DATA     BYTE      CCH3
      000000ACH   SFRSYM    DATA     BYTE      P0EXTIE
      000000A0H   SFRSYM    DATA     BYTE      P2
      000000B4H   SFRSYM    DATA     BYTE      P0EXTIF
      000000ADH   SFRSYM    DATA     BYTE      P1EXTIE
      000000D0H.6 SFRSYM    DATA     BIT       AC
      000000FFH   SFRSYM    DATA     BYTE      MCTRL
      000000C2H   SFRSYM    DATA     BYTE      CCL1
      000000B5H   SFRSYM    DATA     BYTE      P1EXTIF
      000000AEH   SFRSYM    DATA     BYTE      P2EXTIE
      000000D8H   SFRSYM    DATA     BYTE      P5
      000000C4H   SFRSYM    DATA     BYTE      CCL2
      000000B6H   SFRSYM    DATA     BYTE      P2EXTIF
      000000A8H.7 SFRSYM    DATA     BIT       EA
      000000C6H   SFRSYM    DATA     BYTE      CCL3
      000000AAH   SFRSYM    DATA     BYTE      EIE2
      000000B2H   SFRSYM    DATA     BYTE      EIF2
      0000009CH   SFRSYM    DATA     BYTE      P5EXTIE
      000000A7H   SFRSYM    DATA     BYTE      P5EXTIF
      000000C8H.3 SFRSYM    DATA     BIT       T2R0
      000000C8H.4 SFRSYM    DATA     BIT       T2R1
      00000083H   SFRSYM    DATA     BYTE      DPH0
      000000A8H   SFRSYM    DATA     BYTE      IE
      00000085H   SFRSYM    DATA     BYTE      DPH1
      00000080H.0 SFRSYM    DATA     BIT       P0_0
      000000B9H   SFRSYM    DATA     BYTE      EIP1
      00000090H.0 SFRSYM    DATA     BIT       P1_0
      00000080H.1 SFRSYM    DATA     BIT       P0_1
      000000BAH   SFRSYM    DATA     BYTE      EIP2
      00000082H   SFRSYM    DATA     BYTE      DPL0
      000000A0H.0 SFRSYM    DATA     BIT       P2_0
      00000090H.1 SFRSYM    DATA     BIT       P1_1
      00000080H.2 SFRSYM    DATA     BIT       P0_2
      000000BBH   SFRSYM    DATA     BYTE      EIP3
      00000084H   SFRSYM    DATA     BYTE      DPL1
      000000A0H.1 SFRSYM    DATA     BIT       P2_1
      00000090H.2 SFRSYM    DATA     BIT       P1_2
      00000080H.3 SFRSYM    DATA     BIT       P0_3
      000000A0H.2 SFRSYM    DATA     BIT       P2_2
      00000090H.3 SFRSYM    DATA     BIT       P1_3
      00000080H.4 SFRSYM    DATA     BIT       P0_4
      000000D8H.0 SFRSYM    DATA     BIT       P5_0
      000000C8H.6 SFRSYM    DATA     BIT       I3FR
LX51 LINKER/LOCATER V4.66.93.0                                                        06/27/2023  19:17:35  PAGE 147


      000000A0H.3 SFRSYM    DATA     BIT       P2_3
      00000090H.4 SFRSYM    DATA     BIT       P1_4
      00000080H.5 SFRSYM    DATA     BIT       P0_5
      000000CFH   SFRSYM    DATA     BYTE      T2IE
      00000096H   SFRSYM    DATA     BYTE      TA
      000000D8H.1 SFRSYM    DATA     BIT       P5_1
      000000A0H.4 SFRSYM    DATA     BIT       P2_4
      00000090H.5 SFRSYM    DATA     BIT       P1_5
      00000080H.6 SFRSYM    DATA     BIT       P0_6
      000000C9H   SFRSYM    DATA     BYTE      T2IF
      000000D8H.2 SFRSYM    DATA     BIT       P5_2
      000000C8H.2 SFRSYM    DATA     BIT       T2CM
      000000A0H.5 SFRSYM    DATA     BIT       P2_5
      00000090H.6 SFRSYM    DATA     BIT       P1_6
      00000080H.7 SFRSYM    DATA     BIT       P0_7
      000000DFH   SFRSYM    DATA     BYTE      ADCON0
      000000D8H.3 SFRSYM    DATA     BIT       P5_3
      000000A0H.6 SFRSYM    DATA     BIT       P2_6
      00000090H.7 SFRSYM    DATA     BIT       P1_7
      000000DEH   SFRSYM    DATA     BYTE      ADCON1
      000000D8H.4 SFRSYM    DATA     BIT       P5_4
      000000A0H.7 SFRSYM    DATA     BIT       P2_7
      000000E9H   SFRSYM    DATA     BYTE      ADCON2
      000000B8H   SFRSYM    DATA     BYTE      IP
      000000D8H.5 SFRSYM    DATA     BIT       P5_5
      000000CEH   SFRSYM    DATA     BYTE      CCEN
      000000D8H.6 SFRSYM    DATA     BIT       P5_6
      000000D8H.7 SFRSYM    DATA     BIT       P5_7
      000000D0H.7 SFRSYM    DATA     BIT       CY
      000000D2H   SFRSYM    DATA     BYTE      T34MOD
      000000F4H   SFRSYM    DATA     BYTE      I2CMSA
      000000D7H   SFRSYM    DATA     BYTE      SCKSTAU
      000000F5H   SFRSYM    DATA     BYTE      I2CMCR
      00000081H   SFRSYM    DATA     BYTE      SP
      000000D0H.2 SFRSYM    DATA     BIT       OV
      000000F2H   SFRSYM    DATA     BYTE      I2CSCR
      000000D9H   SFRSYM    DATA     BYTE      ADCCHS
      000000C8H.7 SFRSYM    DATA     BIT       T2PS
      000000D1H   SFRSYM    DATA     BYTE      ADCMPC
      000000CBH   SFRSYM    DATA     BYTE      RLDH
      000000D5H   SFRSYM    DATA     BYTE      ADCMPH
      000000CAH   SFRSYM    DATA     BYTE      RLDL
      00000080H.0 SFRSYM    DATA     BIT       P00
      00000090H.0 SFRSYM    DATA     BIT       P10
      00000080H.1 SFRSYM    DATA     BIT       P01
      000000F7H   SFRSYM    DATA     BYTE      I2CMTP
      00000087H   SFRSYM    DATA     BYTE      PCON
      000000A0H.0 SFRSYM    DATA     BIT       P20
      00000090H.1 SFRSYM    DATA     BIT       P11
      00000080H.2 SFRSYM    DATA     BIT       P02
      000000F5H   SFRSYM    DATA     BYTE      I2CMSR
      000000A0H.1 SFRSYM    DATA     BIT       P21
      00000090H.2 SFRSYM    DATA     BIT       P12
      00000080H.3 SFRSYM    DATA     BIT       P03
      000000D4H   SFRSYM    DATA     BYTE      ADCMPL
      000000A0H.2 SFRSYM    DATA     BIT       P22
      00000090H.3 SFRSYM    DATA     BIT       P13
      00000080H.4 SFRSYM    DATA     BIT       P04
      000000D8H.0 SFRSYM    DATA     BIT       P50
      000000A0H.3 SFRSYM    DATA     BIT       P23
      00000090H.4 SFRSYM    DATA     BIT       P14
      00000080H.5 SFRSYM    DATA     BIT       P05
      00000089H   SFRSYM    DATA     BYTE      TMOD
      00000088H   SFRSYM    DATA     BYTE      TCON
      000000D8H.1 SFRSYM    DATA     BIT       P51
LX51 LINKER/LOCATER V4.66.93.0                                                        06/27/2023  19:17:35  PAGE 148


      00000090H.5 SFRSYM    DATA     BIT       P15
      00000080H.6 SFRSYM    DATA     BIT       P06
      000000FAH   SFRSYM    DATA     BYTE      PCRCDH
      000000D8H.2 SFRSYM    DATA     BIT       P52
      00000090H.6 SFRSYM    DATA     BIT       P16
      00000080H.7 SFRSYM    DATA     BIT       P07
      000000D8H.3 SFRSYM    DATA     BIT       P53
      00000090H.7 SFRSYM    DATA     BIT       P17
      000000F2H   SFRSYM    DATA     BYTE      I2CSSR
      000000D8H.4 SFRSYM    DATA     BIT       P54
      000000ECH   SFRSYM    DATA     BYTE      SPCR
      000000DDH   SFRSYM    DATA     BYTE      ADRESH
      000000D8H.5 SFRSYM    DATA     BIT       P55
      000000F9H   SFRSYM    DATA     BYTE      PCRCDL
      000000EEH   SFRSYM    DATA     BYTE      SPDR
      000000EFH   SFRSYM    DATA     BYTE      SSCR
      000000D3H   SFRSYM    DATA     BYTE      ADDLYL
      000000DCH   SFRSYM    DATA     BYTE      ADRESL
      00000088H.1 SFRSYM    DATA     BIT       IE0
      00000088H.3 SFRSYM    DATA     BIT       IE1
      0000008FH   SFRSYM    DATA     BYTE      CLKDIV
      000000F0H   SFRSYM    DATA     BYTE      B
      00000091H   SFRSYM    DATA     BYTE      FUNCCR
      0000009AH   SFRSYM    DATA     BYTE      P0TRIS
      000000A1H   SFRSYM    DATA     BYTE      P1TRIS
      000000A2H   SFRSYM    DATA     BYTE      P2TRIS
      000000E0H   SFRSYM    DATA     BYTE      ACC
      000000D6H   SFRSYM    DATA     BYTE      SCKSEL
      000000A8H.4 SFRSYM    DATA     BIT       ES0
      000000A8H.1 SFRSYM    DATA     BIT       ET0
      000000A8H.6 SFRSYM    DATA     BIT       ES1
      000000EDH   SFRSYM    DATA     BYTE      SPSR
      000000A5H   SFRSYM    DATA     BYTE      P5TRIS
      000000A8H.3 SFRSYM    DATA     BIT       ET1
      00000088H.5 SFRSYM    DATA     BIT       TF0
      000000A8H.5 SFRSYM    DATA     BIT       ET2
      00000098H.0 SFRSYM    DATA     BIT       RI0
      00000088H.7 SFRSYM    DATA     BIT       TF1
      0000008CH   SFRSYM    DATA     BYTE      TH0
      000000A8H.0 SFRSYM    DATA     BIT       EX0
      00000098H.1 SFRSYM    DATA     BIT       TI0
      00000088H.0 SFRSYM    DATA     BIT       IT0
      0000008DH   SFRSYM    DATA     BYTE      TH1
      000000A8H.2 SFRSYM    DATA     BIT       EX1
      00000088H.2 SFRSYM    DATA     BIT       IT1
      000000CDH   SFRSYM    DATA     BYTE      TH2
      000000D0H.0 SFRSYM    DATA     BIT       P
      000000DBH   SFRSYM    DATA     BYTE      TH3
      000000E3H   SFRSYM    DATA     BYTE      TH4
      0000008AH   SFRSYM    DATA     BYTE      TL0
      000000F0H.0 SFRSYM    DATA     BIT       B_0
      0000008BH   SFRSYM    DATA     BYTE      TL1
      000000F0H.1 SFRSYM    DATA     BIT       B_1
      00000098H.2 SFRSYM    DATA     BIT       U0RB8
      000000CCH   SFRSYM    DATA     BYTE      TL2
      000000F0H.2 SFRSYM    DATA     BIT       B_2
      000000B8H.4 SFRSYM    DATA     BIT       PS0
      000000DAH   SFRSYM    DATA     BYTE      TL3
      000000BFH   SFRSYM    DATA     BYTE      BUZCON
      000000F0H.3 SFRSYM    DATA     BIT       B_3
      000000B8H.1 SFRSYM    DATA     BIT       PT0
      000000B8H.6 SFRSYM    DATA     BIT       PS1
      00000098H.3 SFRSYM    DATA     BIT       U0TB8
      000000E2H   SFRSYM    DATA     BYTE      TL4
      000000F0H.4 SFRSYM    DATA     BIT       B_4
LX51 LINKER/LOCATER V4.66.93.0                                                        06/27/2023  19:17:35  PAGE 149


      000000D0H.3 SFRSYM    DATA     BIT       RS0
      000000B8H.3 SFRSYM    DATA     BIT       PT1
      000000F0H.5 SFRSYM    DATA     BIT       B_5
      000000D0H.4 SFRSYM    DATA     BIT       RS1
      000000B8H.5 SFRSYM    DATA     BIT       PT2
      00000098H.7 SFRSYM    DATA     BIT       U0SM0
      00000088H.4 SFRSYM    DATA     BIT       TR0
      000000BEH   SFRSYM    DATA     BYTE      BUZDIV
      000000F0H.6 SFRSYM    DATA     BIT       B_6
      000000E0H.0 SFRSYM    DATA     BIT       ACC_0
      00000098H.6 SFRSYM    DATA     BIT       U0SM1
      00000088H.6 SFRSYM    DATA     BIT       TR1
      000000F0H.7 SFRSYM    DATA     BIT       B_7
      000000E0H.1 SFRSYM    DATA     BIT       ACC_1
      000000B8H.0 SFRSYM    DATA     BIT       PX0
      00000098H.5 SFRSYM    DATA     BIT       U0SM2
      000000E0H.2 SFRSYM    DATA     BIT       ACC_2
      000000B8H.2 SFRSYM    DATA     BIT       PX1
      000000E0H.3 SFRSYM    DATA     BIT       ACC_3
      000000E0H.4 SFRSYM    DATA     BIT       ACC_4
      000000E0H.5 SFRSYM    DATA     BIT       ACC_5
      000000E0H.6 SFRSYM    DATA     BIT       ACC_6
      000000E0H.7 SFRSYM    DATA     BIT       ACC_7
      000000BDH   SFRSYM    DATA     BYTE      WUTCRH
      00000099H   SFRSYM    DATA     BYTE      SBUF0
      000000EBH   SFRSYM    DATA     BYTE      SBUF1
      000000BCH   SFRSYM    DATA     BYTE      WUTCRL
      00000098H   SFRSYM    DATA     BYTE      SCON0
      000000EAH   SFRSYM    DATA     BYTE      SCON1
      000000C8H   SFRSYM    DATA     BYTE      T2CON
      00000086H   SFRSYM    DATA     BYTE      DPS
      000000FEH   SFRSYM    DATA     BYTE      MDATA
      000000F6H   SFRSYM    DATA     BYTE      I2CMBUF
      000000F1H   SFRSYM    DATA     BYTE      I2CSADR
      00000098H.4 SFRSYM    DATA     BIT       U0REN
      000000C8H.5 SFRSYM    DATA     BIT       CAPES
      000000FDH   SFRSYM    DATA     BYTE      MADRH
      0000008EH   SFRSYM    DATA     BYTE      CKCON
      000000F3H   SFRSYM    DATA     BYTE      I2CSBUF
      000000FCH   SFRSYM    DATA     BYTE      MADRL
      000000D0H.5 SFRSYM    DATA     BIT       F0
      000000FBH   SFRSYM    DATA     BYTE      MLOCK
      000000D0H   SFRSYM    DATA     BYTE      PSW
      00000097H   SFRSYM    DATA     BYTE      WDCON
      0000003EH   SYMBOL    DATA     WORD      EmergencyRunTmr
      01002D73H   SYMBOL    CODE     ---       _Emergency_MsgFunc_Key_Power

      01002E43H   BLOCK     CODE     ---       LVL=0
      01002E43H   LINE      CODE     ---       #11
      01002E43H   LINE      CODE     ---       #12
      01002E43H   LINE      CODE     ---       #13
      01002E47H   LINE      CODE     ---       #15
      ---         BLOCKEND  ---      ---       LVL=0

      01002D88H   BLOCK     CODE     ---       LVL=0
      01002D88H   LINE      CODE     ---       #18
      01002D88H   LINE      CODE     ---       #19
      01002D88H   LINE      CODE     ---       #20
      01002D8FH   LINE      CODE     ---       #22
      01002D92H   LINE      CODE     ---       #23
      01002D98H   LINE      CODE     ---       #24
      ---         BLOCKEND  ---      ---       LVL=0

      01002926H   BLOCK     CODE     ---       LVL=0
      01002926H   LINE      CODE     ---       #27
LX51 LINKER/LOCATER V4.66.93.0                                                        06/27/2023  19:17:35  PAGE 150


      01002926H   LINE      CODE     ---       #28
      01002926H   LINE      CODE     ---       #29
      0100292DH   LINE      CODE     ---       #30
      01002934H   LINE      CODE     ---       #31
      0100293BH   LINE      CODE     ---       #32
      01002942H   LINE      CODE     ---       #33
      01002949H   LINE      CODE     ---       #34
      01002950H   LINE      CODE     ---       #36
      01002953H   LINE      CODE     ---       #37
      01002959H   LINE      CODE     ---       #38
      ---         BLOCKEND  ---      ---       LVL=0

      01002AA9H   BLOCK     CODE     ---       LVL=0
      01002AA9H   BLOCK     CODE     NEAR LAB  LVL=1
      0000000DH   SYMBOL    DATA     BYTE      i
      ---         BLOCKEND  ---      ---       LVL=1
      01002AA9H   LINE      CODE     ---       #41
      01002AA9H   LINE      CODE     ---       #42
      01002AA9H   LINE      CODE     ---       #43
      01002AC2H   LINE      CODE     ---       #44
      01002AC9H   LINE      CODE     ---       #46
      01002ACEH   LINE      CODE     ---       #47
      01002AD0H   LINE      CODE     ---       #48
      ---         BLOCKEND  ---      ---       LVL=0

      01002456H   BLOCK     CODE     ---       LVL=0
      01002456H   BLOCK     CODE     NEAR LAB  LVL=1
      00000008H   SYMBOL    DATA     BYTE      ToSomeWorkMode
      ---         BLOCKEND  ---      ---       LVL=1
      01002456H   LINE      CODE     ---       #57
      01002456H   LINE      CODE     ---       #58
      01002456H   LINE      CODE     ---       #61
      0100245CH   LINE      CODE     ---       #62
      0100245CH   LINE      CODE     ---       #63
      01002460H   LINE      CODE     ---       #65
      01002462H   LINE      CODE     ---       #66
      01002468H   LINE      CODE     ---       #67
      0100246AH   LINE      CODE     ---       #69
      0100246AH   LINE      CODE     ---       #70
      01002472H   LINE      CODE     ---       #72
      0100247BH   LINE      CODE     ---       #73
      0100247BH   LINE      CODE     ---       #74
      0100247BH   LINE      CODE     ---       #75
      0100247BH   LINE      CODE     ---       #76
      01002489H   LINE      CODE     ---       #77
      01002489H   LINE      CODE     ---       #78
      01002489H   LINE      CODE     ---       #79
      0100248BH   LINE      CODE     ---       #80
      0100248BH   LINE      CODE     ---       #81
      0100248BH   LINE      CODE     ---       #82
      01002494H   LINE      CODE     ---       #83
      01002497H   LINE      CODE     ---       #84
      01002497H   LINE      CODE     ---       #85
      01002497H   LINE      CODE     ---       #86
      01002497H   LINE      CODE     ---       #87
      01002497H   LINE      CODE     ---       #88
      01002497H   LINE      CODE     ---       #89
      01002497H   LINE      CODE     ---       #91
      0100249DH   LINE      CODE     ---       #92
      0100249DH   LINE      CODE     ---       #93
      010024A0H   LINE      CODE     ---       #94
      010024A0H   LINE      CODE     ---       #95
      010024A2H   LINE      CODE     ---       #96
      010024A8H   LINE      CODE     ---       #97
      010024A8H   LINE      CODE     ---       #98
LX51 LINKER/LOCATER V4.66.93.0                                                        06/27/2023  19:17:35  PAGE 151


      010024ABH   LINE      CODE     ---       #99
      010024AEH   LINE      CODE     ---       #100
      010024B4H   LINE      CODE     ---       #101
      010024B4H   LINE      CODE     ---       #102
      010024B4H   LINE      CODE     ---       #103
      010024B7H   LINE      CODE     ---       #104
      010024B7H   LINE      CODE     ---       #105
      010024B7H   LINE      CODE     ---       #106
      010024BAH   LINE      CODE     ---       #107
      010024BAH   LINE      CODE     ---       #108
      010024BAH   LINE      CODE     ---       #109
      010024BAH   LINE      CODE     ---       #110
      010024BAH   LINE      CODE     ---       #111
      ---         BLOCKEND  ---      ---       LVL=0

      01002D73H   BLOCK     CODE     ---       LVL=0
      00000006H   SYMBOL    DATA     WORD      MsgValue
      01002D73H   LINE      CODE     ---       #113
      01002D73H   LINE      CODE     ---       #114
      01002D73H   LINE      CODE     ---       #115
      01002D78H   LINE      CODE     ---       #116
      01002D78H   LINE      CODE     ---       #117
      01002D7FH   LINE      CODE     ---       #119
      01002D82H   LINE      CODE     ---       #120
      01002D85H   LINE      CODE     ---       #121
      01002D85H   LINE      CODE     ---       #123
      01002D87H   LINE      CODE     ---       #124
      ---         BLOCKEND  ---      ---       LVL=0

      01002AF9H   BLOCK     CODE     ---       LVL=0
      00000007H   SYMBOL    DATA     BYTE      Msg
      0000000BH   SYMBOL    DATA     WORD      MsgValue
      01002AFDH   BLOCK     CODE     NEAR LAB  LVL=1
      00000006H   SYMBOL    DATA     BYTE      retCode
      ---         BLOCKEND  ---      ---       LVL=1
      01002AF9H   LINE      CODE     ---       #129
      01002AFDH   LINE      CODE     ---       #130
      01002AFDH   LINE      CODE     ---       #131
      01002AFDH   LINE      CODE     ---       #133
      01002B05H   LINE      CODE     ---       #134
      01002B05H   LINE      CODE     ---       #135
      01002B05H   LINE      CODE     ---       #136
      01002B0EH   LINE      CODE     ---       #137
      01002B10H   LINE      CODE     ---       #138
      01002B10H   LINE      CODE     ---       #139
      01002B19H   LINE      CODE     ---       #140
      01002B1BH   LINE      CODE     ---       #142
      01002B1BH   LINE      CODE     ---       #143
      01002B1DH   LINE      CODE     ---       #144
      01002B1DH   LINE      CODE     ---       #145
      01002B1DH   LINE      CODE     ---       #147
      01002B1FH   LINE      CODE     ---       #148
      ---         BLOCKEND  ---      ---       LVL=0

      ---         MODULE    ---      ---       IDLE
      01002B20H   PUBLIC    CODE     ---       _StationRun_Idle
      01002A51H   PUBLIC    CODE     ---       Idle_Run_Task
      010000D9H   PUBLIC    CODE     ---       Idle_De
      01002B6EH   PUBLIC    CODE     ---       Idle_Con
      000000C8H.0 SFRSYM    DATA     BIT       T2I0
      000000C3H   SFRSYM    DATA     BYTE      CCH1
      00000080H   SFRSYM    DATA     BYTE      P0
      000000C8H.1 SFRSYM    DATA     BIT       T2I1
      000000C5H   SFRSYM    DATA     BYTE      CCH2
      00000090H   SFRSYM    DATA     BYTE      P1
LX51 LINKER/LOCATER V4.66.93.0                                                        06/27/2023  19:17:35  PAGE 152


      000000C7H   SFRSYM    DATA     BYTE      CCH3
      000000ACH   SFRSYM    DATA     BYTE      P0EXTIE
      000000A0H   SFRSYM    DATA     BYTE      P2
      000000B4H   SFRSYM    DATA     BYTE      P0EXTIF
      000000ADH   SFRSYM    DATA     BYTE      P1EXTIE
      000000D0H.6 SFRSYM    DATA     BIT       AC
      000000FFH   SFRSYM    DATA     BYTE      MCTRL
      000000C2H   SFRSYM    DATA     BYTE      CCL1
      000000B5H   SFRSYM    DATA     BYTE      P1EXTIF
      000000AEH   SFRSYM    DATA     BYTE      P2EXTIE
      000000D8H   SFRSYM    DATA     BYTE      P5
      000000C4H   SFRSYM    DATA     BYTE      CCL2
      000000B6H   SFRSYM    DATA     BYTE      P2EXTIF
      000000A8H.7 SFRSYM    DATA     BIT       EA
      000000C6H   SFRSYM    DATA     BYTE      CCL3
      000000AAH   SFRSYM    DATA     BYTE      EIE2
      000000B2H   SFRSYM    DATA     BYTE      EIF2
      0000009CH   SFRSYM    DATA     BYTE      P5EXTIE
      000000A7H   SFRSYM    DATA     BYTE      P5EXTIF
      000000C8H.3 SFRSYM    DATA     BIT       T2R0
      000000C8H.4 SFRSYM    DATA     BIT       T2R1
      00000083H   SFRSYM    DATA     BYTE      DPH0
      000000A8H   SFRSYM    DATA     BYTE      IE
      00000085H   SFRSYM    DATA     BYTE      DPH1
      00000080H.0 SFRSYM    DATA     BIT       P0_0
      000000B9H   SFRSYM    DATA     BYTE      EIP1
      00000090H.0 SFRSYM    DATA     BIT       P1_0
      00000080H.1 SFRSYM    DATA     BIT       P0_1
      000000BAH   SFRSYM    DATA     BYTE      EIP2
      00000082H   SFRSYM    DATA     BYTE      DPL0
      000000A0H.0 SFRSYM    DATA     BIT       P2_0
      00000090H.1 SFRSYM    DATA     BIT       P1_1
      00000080H.2 SFRSYM    DATA     BIT       P0_2
      000000BBH   SFRSYM    DATA     BYTE      EIP3
      00000084H   SFRSYM    DATA     BYTE      DPL1
      000000A0H.1 SFRSYM    DATA     BIT       P2_1
      00000090H.2 SFRSYM    DATA     BIT       P1_2
      00000080H.3 SFRSYM    DATA     BIT       P0_3
      000000A0H.2 SFRSYM    DATA     BIT       P2_2
      00000090H.3 SFRSYM    DATA     BIT       P1_3
      00000080H.4 SFRSYM    DATA     BIT       P0_4
      000000D8H.0 SFRSYM    DATA     BIT       P5_0
      000000C8H.6 SFRSYM    DATA     BIT       I3FR
      000000A0H.3 SFRSYM    DATA     BIT       P2_3
      00000090H.4 SFRSYM    DATA     BIT       P1_4
      00000080H.5 SFRSYM    DATA     BIT       P0_5
      000000CFH   SFRSYM    DATA     BYTE      T2IE
      00000096H   SFRSYM    DATA     BYTE      TA
      000000D8H.1 SFRSYM    DATA     BIT       P5_1
      000000A0H.4 SFRSYM    DATA     BIT       P2_4
      00000090H.5 SFRSYM    DATA     BIT       P1_5
      00000080H.6 SFRSYM    DATA     BIT       P0_6
      000000C9H   SFRSYM    DATA     BYTE      T2IF
      000000D8H.2 SFRSYM    DATA     BIT       P5_2
      000000C8H.2 SFRSYM    DATA     BIT       T2CM
      000000A0H.5 SFRSYM    DATA     BIT       P2_5
      00000090H.6 SFRSYM    DATA     BIT       P1_6
      00000080H.7 SFRSYM    DATA     BIT       P0_7
      000000DFH   SFRSYM    DATA     BYTE      ADCON0
      000000D8H.3 SFRSYM    DATA     BIT       P5_3
      000000A0H.6 SFRSYM    DATA     BIT       P2_6
      00000090H.7 SFRSYM    DATA     BIT       P1_7
      000000DEH   SFRSYM    DATA     BYTE      ADCON1
      000000D8H.4 SFRSYM    DATA     BIT       P5_4
      000000A0H.7 SFRSYM    DATA     BIT       P2_7
LX51 LINKER/LOCATER V4.66.93.0                                                        06/27/2023  19:17:35  PAGE 153


      000000E9H   SFRSYM    DATA     BYTE      ADCON2
      000000B8H   SFRSYM    DATA     BYTE      IP
      000000D8H.5 SFRSYM    DATA     BIT       P5_5
      000000CEH   SFRSYM    DATA     BYTE      CCEN
      000000D8H.6 SFRSYM    DATA     BIT       P5_6
      000000D8H.7 SFRSYM    DATA     BIT       P5_7
      000000D0H.7 SFRSYM    DATA     BIT       CY
      000000D2H   SFRSYM    DATA     BYTE      T34MOD
      000000F4H   SFRSYM    DATA     BYTE      I2CMSA
      000000D7H   SFRSYM    DATA     BYTE      SCKSTAU
      000000F5H   SFRSYM    DATA     BYTE      I2CMCR
      00000081H   SFRSYM    DATA     BYTE      SP
      000000D0H.2 SFRSYM    DATA     BIT       OV
      000000F2H   SFRSYM    DATA     BYTE      I2CSCR
      000000D9H   SFRSYM    DATA     BYTE      ADCCHS
      000000C8H.7 SFRSYM    DATA     BIT       T2PS
      000000D1H   SFRSYM    DATA     BYTE      ADCMPC
      000000CBH   SFRSYM    DATA     BYTE      RLDH
      000000D5H   SFRSYM    DATA     BYTE      ADCMPH
      000000CAH   SFRSYM    DATA     BYTE      RLDL
      00000080H.0 SFRSYM    DATA     BIT       P00
      00000090H.0 SFRSYM    DATA     BIT       P10
      00000080H.1 SFRSYM    DATA     BIT       P01
      000000F7H   SFRSYM    DATA     BYTE      I2CMTP
      00000087H   SFRSYM    DATA     BYTE      PCON
      000000A0H.0 SFRSYM    DATA     BIT       P20
      00000090H.1 SFRSYM    DATA     BIT       P11
      00000080H.2 SFRSYM    DATA     BIT       P02
      000000F5H   SFRSYM    DATA     BYTE      I2CMSR
      000000A0H.1 SFRSYM    DATA     BIT       P21
      00000090H.2 SFRSYM    DATA     BIT       P12
      00000080H.3 SFRSYM    DATA     BIT       P03
      000000D4H   SFRSYM    DATA     BYTE      ADCMPL
      000000A0H.2 SFRSYM    DATA     BIT       P22
      00000090H.3 SFRSYM    DATA     BIT       P13
      00000080H.4 SFRSYM    DATA     BIT       P04
      000000D8H.0 SFRSYM    DATA     BIT       P50
      000000A0H.3 SFRSYM    DATA     BIT       P23
      00000090H.4 SFRSYM    DATA     BIT       P14
      00000080H.5 SFRSYM    DATA     BIT       P05
      00000089H   SFRSYM    DATA     BYTE      TMOD
      00000088H   SFRSYM    DATA     BYTE      TCON
      000000D8H.1 SFRSYM    DATA     BIT       P51
      00000090H.5 SFRSYM    DATA     BIT       P15
      00000080H.6 SFRSYM    DATA     BIT       P06
      000000FAH   SFRSYM    DATA     BYTE      PCRCDH
      000000D8H.2 SFRSYM    DATA     BIT       P52
      00000090H.6 SFRSYM    DATA     BIT       P16
      00000080H.7 SFRSYM    DATA     BIT       P07
      000000D8H.3 SFRSYM    DATA     BIT       P53
      00000090H.7 SFRSYM    DATA     BIT       P17
      000000F2H   SFRSYM    DATA     BYTE      I2CSSR
      000000D8H.4 SFRSYM    DATA     BIT       P54
      000000ECH   SFRSYM    DATA     BYTE      SPCR
      000000DDH   SFRSYM    DATA     BYTE      ADRESH
      000000D8H.5 SFRSYM    DATA     BIT       P55
      000000F9H   SFRSYM    DATA     BYTE      PCRCDL
      000000EEH   SFRSYM    DATA     BYTE      SPDR
      000000EFH   SFRSYM    DATA     BYTE      SSCR
      000000D3H   SFRSYM    DATA     BYTE      ADDLYL
      000000DCH   SFRSYM    DATA     BYTE      ADRESL
      00000088H.1 SFRSYM    DATA     BIT       IE0
      00000088H.3 SFRSYM    DATA     BIT       IE1
      0000008FH   SFRSYM    DATA     BYTE      CLKDIV
      000000F0H   SFRSYM    DATA     BYTE      B
LX51 LINKER/LOCATER V4.66.93.0                                                        06/27/2023  19:17:35  PAGE 154


      00000091H   SFRSYM    DATA     BYTE      FUNCCR
      0000009AH   SFRSYM    DATA     BYTE      P0TRIS
      000000A1H   SFRSYM    DATA     BYTE      P1TRIS
      000000A2H   SFRSYM    DATA     BYTE      P2TRIS
      000000E0H   SFRSYM    DATA     BYTE      ACC
      000000D6H   SFRSYM    DATA     BYTE      SCKSEL
      000000A8H.4 SFRSYM    DATA     BIT       ES0
      000000A8H.1 SFRSYM    DATA     BIT       ET0
      000000A8H.6 SFRSYM    DATA     BIT       ES1
      000000EDH   SFRSYM    DATA     BYTE      SPSR
      000000A5H   SFRSYM    DATA     BYTE      P5TRIS
      000000A8H.3 SFRSYM    DATA     BIT       ET1
      00000088H.5 SFRSYM    DATA     BIT       TF0
      000000A8H.5 SFRSYM    DATA     BIT       ET2
      00000098H.0 SFRSYM    DATA     BIT       RI0
      00000088H.7 SFRSYM    DATA     BIT       TF1
      0000008CH   SFRSYM    DATA     BYTE      TH0
      000000A8H.0 SFRSYM    DATA     BIT       EX0
      00000098H.1 SFRSYM    DATA     BIT       TI0
      00000088H.0 SFRSYM    DATA     BIT       IT0
      0000008DH   SFRSYM    DATA     BYTE      TH1
      000000A8H.2 SFRSYM    DATA     BIT       EX1
      00000088H.2 SFRSYM    DATA     BIT       IT1
      000000CDH   SFRSYM    DATA     BYTE      TH2
      000000D0H.0 SFRSYM    DATA     BIT       P
      000000DBH   SFRSYM    DATA     BYTE      TH3
      000000E3H   SFRSYM    DATA     BYTE      TH4
      0000008AH   SFRSYM    DATA     BYTE      TL0
      000000F0H.0 SFRSYM    DATA     BIT       B_0
      0000008BH   SFRSYM    DATA     BYTE      TL1
      000000F0H.1 SFRSYM    DATA     BIT       B_1
      00000098H.2 SFRSYM    DATA     BIT       U0RB8
      000000CCH   SFRSYM    DATA     BYTE      TL2
      000000F0H.2 SFRSYM    DATA     BIT       B_2
      000000B8H.4 SFRSYM    DATA     BIT       PS0
      000000DAH   SFRSYM    DATA     BYTE      TL3
      000000BFH   SFRSYM    DATA     BYTE      BUZCON
      000000F0H.3 SFRSYM    DATA     BIT       B_3
      000000B8H.1 SFRSYM    DATA     BIT       PT0
      000000B8H.6 SFRSYM    DATA     BIT       PS1
      00000098H.3 SFRSYM    DATA     BIT       U0TB8
      000000E2H   SFRSYM    DATA     BYTE      TL4
      000000F0H.4 SFRSYM    DATA     BIT       B_4
      000000D0H.3 SFRSYM    DATA     BIT       RS0
      000000B8H.3 SFRSYM    DATA     BIT       PT1
      000000F0H.5 SFRSYM    DATA     BIT       B_5
      000000D0H.4 SFRSYM    DATA     BIT       RS1
      000000B8H.5 SFRSYM    DATA     BIT       PT2
      00000098H.7 SFRSYM    DATA     BIT       U0SM0
      00000088H.4 SFRSYM    DATA     BIT       TR0
      000000BEH   SFRSYM    DATA     BYTE      BUZDIV
      000000F0H.6 SFRSYM    DATA     BIT       B_6
      000000E0H.0 SFRSYM    DATA     BIT       ACC_0
      00000098H.6 SFRSYM    DATA     BIT       U0SM1
      00000088H.6 SFRSYM    DATA     BIT       TR1
      000000F0H.7 SFRSYM    DATA     BIT       B_7
      000000E0H.1 SFRSYM    DATA     BIT       ACC_1
      000000B8H.0 SFRSYM    DATA     BIT       PX0
      00000098H.5 SFRSYM    DATA     BIT       U0SM2
      000000E0H.2 SFRSYM    DATA     BIT       ACC_2
      000000B8H.2 SFRSYM    DATA     BIT       PX1
      000000E0H.3 SFRSYM    DATA     BIT       ACC_3
      000000E0H.4 SFRSYM    DATA     BIT       ACC_4
      000000E0H.5 SFRSYM    DATA     BIT       ACC_5
      000000E0H.6 SFRSYM    DATA     BIT       ACC_6
LX51 LINKER/LOCATER V4.66.93.0                                                        06/27/2023  19:17:35  PAGE 155


      000000E0H.7 SFRSYM    DATA     BIT       ACC_7
      000000BDH   SFRSYM    DATA     BYTE      WUTCRH
      00000099H   SFRSYM    DATA     BYTE      SBUF0
      000000EBH   SFRSYM    DATA     BYTE      SBUF1
      000000BCH   SFRSYM    DATA     BYTE      WUTCRL
      00000098H   SFRSYM    DATA     BYTE      SCON0
      000000EAH   SFRSYM    DATA     BYTE      SCON1
      000000C8H   SFRSYM    DATA     BYTE      T2CON
      00000086H   SFRSYM    DATA     BYTE      DPS
      000000FEH   SFRSYM    DATA     BYTE      MDATA
      000000F6H   SFRSYM    DATA     BYTE      I2CMBUF
      000000F1H   SFRSYM    DATA     BYTE      I2CSADR
      00000098H.4 SFRSYM    DATA     BIT       U0REN
      000000C8H.5 SFRSYM    DATA     BIT       CAPES
      000000FDH   SFRSYM    DATA     BYTE      MADRH
      0000008EH   SFRSYM    DATA     BYTE      CKCON
      000000F3H   SFRSYM    DATA     BYTE      I2CSBUF
      000000FCH   SFRSYM    DATA     BYTE      MADRL
      000000D0H.5 SFRSYM    DATA     BIT       F0
      000000FBH   SFRSYM    DATA     BYTE      MLOCK
      000000D0H   SFRSYM    DATA     BYTE      PSW
      00000097H   SFRSYM    DATA     BYTE      WDCON
      010029F6H   SYMBOL    CODE     ---       _Idle_MsgFunc_Key_Power
      0000004AH   SYMBOL    DATA     WORD      IdleRunTmr

      01002B6EH   BLOCK     CODE     ---       LVL=0
      01002B71H   BLOCK     CODE     NEAR LAB  LVL=1
      0000000FH   SYMBOL    DATA     BYTE      i
      ---         BLOCKEND  ---      ---       LVL=1
      01002B6EH   LINE      CODE     ---       #8
      01002B6EH   LINE      CODE     ---       #9
      01002B6EH   LINE      CODE     ---       #10
      01002B71H   LINE      CODE     ---       #11
      01002B8AH   LINE      CODE     ---       #13
      01002B8FH   LINE      CODE     ---       #14
      ---         BLOCKEND  ---      ---       LVL=0

      010000D9H   BLOCK     CODE     ---       LVL=0
      010000D9H   LINE      CODE     ---       #17
      010000D9H   LINE      CODE     ---       #18
      010000D9H   LINE      CODE     ---       #19
      ---         BLOCKEND  ---      ---       LVL=0

      01002A51H   BLOCK     CODE     ---       LVL=0
      01002A51H   LINE      CODE     ---       #21
      01002A51H   LINE      CODE     ---       #22
      01002A51H   LINE      CODE     ---       #23
      01002A5BH   LINE      CODE     ---       #24
      01002A5BH   LINE      CODE     ---       #25
      01002A5DH   LINE      CODE     ---       #27
      01002A5DH   LINE      CODE     ---       #29
      01002A65H   LINE      CODE     ---       #30
      01002A77H   LINE      CODE     ---       #31
      01002A77H   LINE      CODE     ---       #32
      01002A7CH   LINE      CODE     ---       #35
      01002A7CH   LINE      CODE     ---       #36
      ---         BLOCKEND  ---      ---       LVL=0

      010029F6H   BLOCK     CODE     ---       LVL=0
      0000000DH   SYMBOL    DATA     WORD      MsgValue
      010029F6H   LINE      CODE     ---       #40
      010029FAH   LINE      CODE     ---       #41
      010029FAH   LINE      CODE     ---       #42
      010029FFH   LINE      CODE     ---       #43
      010029FFH   LINE      CODE     ---       #44
LX51 LINKER/LOCATER V4.66.93.0                                                        06/27/2023  19:17:35  PAGE 156


      01002A06H   LINE      CODE     ---       #46
      01002A09H   LINE      CODE     ---       #47
      01002A0CH   LINE      CODE     ---       #48
      01002A0EH   LINE      CODE     ---       #49
      01002A1BH   LINE      CODE     ---       #50
      01002A1BH   LINE      CODE     ---       #51
      01002A22H   LINE      CODE     ---       #54
      01002A22H   LINE      CODE     ---       #56
      01002A24H   LINE      CODE     ---       #57
      ---         BLOCKEND  ---      ---       LVL=0

      01002B20H   BLOCK     CODE     ---       LVL=0
      00000007H   SYMBOL    DATA     BYTE      Msg
      0000000BH   SYMBOL    DATA     WORD      MsgValue
      01002B24H   BLOCK     CODE     NEAR LAB  LVL=1
      00000006H   SYMBOL    DATA     BYTE      retCode
      ---         BLOCKEND  ---      ---       LVL=1
      01002B20H   LINE      CODE     ---       #62
      01002B24H   LINE      CODE     ---       #63
      01002B24H   LINE      CODE     ---       #64
      01002B24H   LINE      CODE     ---       #66
      01002B2CH   LINE      CODE     ---       #67
      01002B2CH   LINE      CODE     ---       #68
      01002B2CH   LINE      CODE     ---       #69
      01002B35H   LINE      CODE     ---       #70
      01002B37H   LINE      CODE     ---       #71
      01002B37H   LINE      CODE     ---       #72
      01002B40H   LINE      CODE     ---       #73
      01002B42H   LINE      CODE     ---       #75
      01002B42H   LINE      CODE     ---       #76
      01002B44H   LINE      CODE     ---       #77
      01002B44H   LINE      CODE     ---       #78
      01002B44H   LINE      CODE     ---       #80
      01002B46H   LINE      CODE     ---       #81
      ---         BLOCKEND  ---      ---       LVL=0

      ---         MODULE    ---      ---       INIT
      01002E78H   PUBLIC    CODE     ---       _StationRun_Init
      0100295CH   PUBLIC    CODE     ---       Init_Run_Task
      010000DAH   PUBLIC    CODE     ---       Init_De
      01002A7DH   PUBLIC    CODE     ---       Init_Con
      000000C8H.0 SFRSYM    DATA     BIT       T2I0
      000000C3H   SFRSYM    DATA     BYTE      CCH1
      00000080H   SFRSYM    DATA     BYTE      P0
      000000C8H.1 SFRSYM    DATA     BIT       T2I1
      000000C5H   SFRSYM    DATA     BYTE      CCH2
      00000090H   SFRSYM    DATA     BYTE      P1
      000000C7H   SFRSYM    DATA     BYTE      CCH3
      000000ACH   SFRSYM    DATA     BYTE      P0EXTIE
      000000A0H   SFRSYM    DATA     BYTE      P2
      000000B4H   SFRSYM    DATA     BYTE      P0EXTIF
      000000ADH   SFRSYM    DATA     BYTE      P1EXTIE
      000000D0H.6 SFRSYM    DATA     BIT       AC
      000000FFH   SFRSYM    DATA     BYTE      MCTRL
      000000C2H   SFRSYM    DATA     BYTE      CCL1
      000000B5H   SFRSYM    DATA     BYTE      P1EXTIF
      000000AEH   SFRSYM    DATA     BYTE      P2EXTIE
      000000D8H   SFRSYM    DATA     BYTE      P5
      000000C4H   SFRSYM    DATA     BYTE      CCL2
      000000B6H   SFRSYM    DATA     BYTE      P2EXTIF
      000000A8H.7 SFRSYM    DATA     BIT       EA
      000000C6H   SFRSYM    DATA     BYTE      CCL3
      000000AAH   SFRSYM    DATA     BYTE      EIE2
      000000B2H   SFRSYM    DATA     BYTE      EIF2
      0000009CH   SFRSYM    DATA     BYTE      P5EXTIE
LX51 LINKER/LOCATER V4.66.93.0                                                        06/27/2023  19:17:35  PAGE 157


      000000A7H   SFRSYM    DATA     BYTE      P5EXTIF
      000000C8H.3 SFRSYM    DATA     BIT       T2R0
      000000C8H.4 SFRSYM    DATA     BIT       T2R1
      00000083H   SFRSYM    DATA     BYTE      DPH0
      000000A8H   SFRSYM    DATA     BYTE      IE
      00000085H   SFRSYM    DATA     BYTE      DPH1
      00000080H.0 SFRSYM    DATA     BIT       P0_0
      000000B9H   SFRSYM    DATA     BYTE      EIP1
      00000090H.0 SFRSYM    DATA     BIT       P1_0
      00000080H.1 SFRSYM    DATA     BIT       P0_1
      000000BAH   SFRSYM    DATA     BYTE      EIP2
      00000082H   SFRSYM    DATA     BYTE      DPL0
      000000A0H.0 SFRSYM    DATA     BIT       P2_0
      00000090H.1 SFRSYM    DATA     BIT       P1_1
      00000080H.2 SFRSYM    DATA     BIT       P0_2
      000000BBH   SFRSYM    DATA     BYTE      EIP3
      00000084H   SFRSYM    DATA     BYTE      DPL1
      000000A0H.1 SFRSYM    DATA     BIT       P2_1
      00000090H.2 SFRSYM    DATA     BIT       P1_2
      00000080H.3 SFRSYM    DATA     BIT       P0_3
      000000A0H.2 SFRSYM    DATA     BIT       P2_2
      00000090H.3 SFRSYM    DATA     BIT       P1_3
      00000080H.4 SFRSYM    DATA     BIT       P0_4
      000000D8H.0 SFRSYM    DATA     BIT       P5_0
      000000C8H.6 SFRSYM    DATA     BIT       I3FR
      000000A0H.3 SFRSYM    DATA     BIT       P2_3
      00000090H.4 SFRSYM    DATA     BIT       P1_4
      00000080H.5 SFRSYM    DATA     BIT       P0_5
      000000CFH   SFRSYM    DATA     BYTE      T2IE
      00000096H   SFRSYM    DATA     BYTE      TA
      000000D8H.1 SFRSYM    DATA     BIT       P5_1
      000000A0H.4 SFRSYM    DATA     BIT       P2_4
      00000090H.5 SFRSYM    DATA     BIT       P1_5
      00000080H.6 SFRSYM    DATA     BIT       P0_6
      000000C9H   SFRSYM    DATA     BYTE      T2IF
      000000D8H.2 SFRSYM    DATA     BIT       P5_2
      000000C8H.2 SFRSYM    DATA     BIT       T2CM
      000000A0H.5 SFRSYM    DATA     BIT       P2_5
      00000090H.6 SFRSYM    DATA     BIT       P1_6
      00000080H.7 SFRSYM    DATA     BIT       P0_7
      000000DFH   SFRSYM    DATA     BYTE      ADCON0
      000000D8H.3 SFRSYM    DATA     BIT       P5_3
      000000A0H.6 SFRSYM    DATA     BIT       P2_6
      00000090H.7 SFRSYM    DATA     BIT       P1_7
      000000DEH   SFRSYM    DATA     BYTE      ADCON1
      000000D8H.4 SFRSYM    DATA     BIT       P5_4
      000000A0H.7 SFRSYM    DATA     BIT       P2_7
      000000E9H   SFRSYM    DATA     BYTE      ADCON2
      000000B8H   SFRSYM    DATA     BYTE      IP
      000000D8H.5 SFRSYM    DATA     BIT       P5_5
      000000CEH   SFRSYM    DATA     BYTE      CCEN
      000000D8H.6 SFRSYM    DATA     BIT       P5_6
      000000D8H.7 SFRSYM    DATA     BIT       P5_7
      000000D0H.7 SFRSYM    DATA     BIT       CY
      000000D2H   SFRSYM    DATA     BYTE      T34MOD
      000000F4H   SFRSYM    DATA     BYTE      I2CMSA
      000000D7H   SFRSYM    DATA     BYTE      SCKSTAU
      000000F5H   SFRSYM    DATA     BYTE      I2CMCR
      00000081H   SFRSYM    DATA     BYTE      SP
      000000D0H.2 SFRSYM    DATA     BIT       OV
      000000F2H   SFRSYM    DATA     BYTE      I2CSCR
      000000D9H   SFRSYM    DATA     BYTE      ADCCHS
      000000C8H.7 SFRSYM    DATA     BIT       T2PS
      000000D1H   SFRSYM    DATA     BYTE      ADCMPC
      000000CBH   SFRSYM    DATA     BYTE      RLDH
LX51 LINKER/LOCATER V4.66.93.0                                                        06/27/2023  19:17:35  PAGE 158


      000000D5H   SFRSYM    DATA     BYTE      ADCMPH
      000000CAH   SFRSYM    DATA     BYTE      RLDL
      00000080H.0 SFRSYM    DATA     BIT       P00
      00000090H.0 SFRSYM    DATA     BIT       P10
      00000080H.1 SFRSYM    DATA     BIT       P01
      000000F7H   SFRSYM    DATA     BYTE      I2CMTP
      00000087H   SFRSYM    DATA     BYTE      PCON
      000000A0H.0 SFRSYM    DATA     BIT       P20
      00000090H.1 SFRSYM    DATA     BIT       P11
      00000080H.2 SFRSYM    DATA     BIT       P02
      000000F5H   SFRSYM    DATA     BYTE      I2CMSR
      000000A0H.1 SFRSYM    DATA     BIT       P21
      00000090H.2 SFRSYM    DATA     BIT       P12
      00000080H.3 SFRSYM    DATA     BIT       P03
      000000D4H   SFRSYM    DATA     BYTE      ADCMPL
      000000A0H.2 SFRSYM    DATA     BIT       P22
      00000090H.3 SFRSYM    DATA     BIT       P13
      00000080H.4 SFRSYM    DATA     BIT       P04
      000000D8H.0 SFRSYM    DATA     BIT       P50
      000000A0H.3 SFRSYM    DATA     BIT       P23
      00000090H.4 SFRSYM    DATA     BIT       P14
      00000080H.5 SFRSYM    DATA     BIT       P05
      00000089H   SFRSYM    DATA     BYTE      TMOD
      00000088H   SFRSYM    DATA     BYTE      TCON
      000000D8H.1 SFRSYM    DATA     BIT       P51
      00000090H.5 SFRSYM    DATA     BIT       P15
      00000080H.6 SFRSYM    DATA     BIT       P06
      000000FAH   SFRSYM    DATA     BYTE      PCRCDH
      000000D8H.2 SFRSYM    DATA     BIT       P52
      00000090H.6 SFRSYM    DATA     BIT       P16
      00000080H.7 SFRSYM    DATA     BIT       P07
      000000D8H.3 SFRSYM    DATA     BIT       P53
      00000090H.7 SFRSYM    DATA     BIT       P17
      000000F2H   SFRSYM    DATA     BYTE      I2CSSR
      000000D8H.4 SFRSYM    DATA     BIT       P54
      000000ECH   SFRSYM    DATA     BYTE      SPCR
      000000DDH   SFRSYM    DATA     BYTE      ADRESH
      000000D8H.5 SFRSYM    DATA     BIT       P55
      000000F9H   SFRSYM    DATA     BYTE      PCRCDL
      000000EEH   SFRSYM    DATA     BYTE      SPDR
      000000EFH   SFRSYM    DATA     BYTE      SSCR
      000000D3H   SFRSYM    DATA     BYTE      ADDLYL
      000000DCH   SFRSYM    DATA     BYTE      ADRESL
      00000088H.1 SFRSYM    DATA     BIT       IE0
      00000088H.3 SFRSYM    DATA     BIT       IE1
      0000008FH   SFRSYM    DATA     BYTE      CLKDIV
      000000F0H   SFRSYM    DATA     BYTE      B
      00000091H   SFRSYM    DATA     BYTE      FUNCCR
      0000009AH   SFRSYM    DATA     BYTE      P0TRIS
      000000A1H   SFRSYM    DATA     BYTE      P1TRIS
      000000A2H   SFRSYM    DATA     BYTE      P2TRIS
      000000E0H   SFRSYM    DATA     BYTE      ACC
      000000D6H   SFRSYM    DATA     BYTE      SCKSEL
      000000A8H.4 SFRSYM    DATA     BIT       ES0
      000000A8H.1 SFRSYM    DATA     BIT       ET0
      000000A8H.6 SFRSYM    DATA     BIT       ES1
      000000EDH   SFRSYM    DATA     BYTE      SPSR
      000000A5H   SFRSYM    DATA     BYTE      P5TRIS
      000000A8H.3 SFRSYM    DATA     BIT       ET1
      00000088H.5 SFRSYM    DATA     BIT       TF0
      000000A8H.5 SFRSYM    DATA     BIT       ET2
      00000098H.0 SFRSYM    DATA     BIT       RI0
      00000088H.7 SFRSYM    DATA     BIT       TF1
      0000008CH   SFRSYM    DATA     BYTE      TH0
      000000A8H.0 SFRSYM    DATA     BIT       EX0
LX51 LINKER/LOCATER V4.66.93.0                                                        06/27/2023  19:17:35  PAGE 159


      00000098H.1 SFRSYM    DATA     BIT       TI0
      00000088H.0 SFRSYM    DATA     BIT       IT0
      0000008DH   SFRSYM    DATA     BYTE      TH1
      000000A8H.2 SFRSYM    DATA     BIT       EX1
      00000088H.2 SFRSYM    DATA     BIT       IT1
      000000CDH   SFRSYM    DATA     BYTE      TH2
      000000D0H.0 SFRSYM    DATA     BIT       P
      000000DBH   SFRSYM    DATA     BYTE      TH3
      000000E3H   SFRSYM    DATA     BYTE      TH4
      0000008AH   SFRSYM    DATA     BYTE      TL0
      000000F0H.0 SFRSYM    DATA     BIT       B_0
      0000008BH   SFRSYM    DATA     BYTE      TL1
      000000F0H.1 SFRSYM    DATA     BIT       B_1
      00000098H.2 SFRSYM    DATA     BIT       U0RB8
      000000CCH   SFRSYM    DATA     BYTE      TL2
      000000F0H.2 SFRSYM    DATA     BIT       B_2
      000000B8H.4 SFRSYM    DATA     BIT       PS0
      000000DAH   SFRSYM    DATA     BYTE      TL3
      000000BFH   SFRSYM    DATA     BYTE      BUZCON
      000000F0H.3 SFRSYM    DATA     BIT       B_3
      000000B8H.1 SFRSYM    DATA     BIT       PT0
      000000B8H.6 SFRSYM    DATA     BIT       PS1
      00000098H.3 SFRSYM    DATA     BIT       U0TB8
      000000E2H   SFRSYM    DATA     BYTE      TL4
      000000F0H.4 SFRSYM    DATA     BIT       B_4
      000000D0H.3 SFRSYM    DATA     BIT       RS0
      000000B8H.3 SFRSYM    DATA     BIT       PT1
      000000F0H.5 SFRSYM    DATA     BIT       B_5
      000000D0H.4 SFRSYM    DATA     BIT       RS1
      000000B8H.5 SFRSYM    DATA     BIT       PT2
      00000098H.7 SFRSYM    DATA     BIT       U0SM0
      00000088H.4 SFRSYM    DATA     BIT       TR0
      000000BEH   SFRSYM    DATA     BYTE      BUZDIV
      000000F0H.6 SFRSYM    DATA     BIT       B_6
      000000E0H.0 SFRSYM    DATA     BIT       ACC_0
      00000098H.6 SFRSYM    DATA     BIT       U0SM1
      00000088H.6 SFRSYM    DATA     BIT       TR1
      000000F0H.7 SFRSYM    DATA     BIT       B_7
      000000E0H.1 SFRSYM    DATA     BIT       ACC_1
      000000B8H.0 SFRSYM    DATA     BIT       PX0
      00000098H.5 SFRSYM    DATA     BIT       U0SM2
      000000E0H.2 SFRSYM    DATA     BIT       ACC_2
      000000B8H.2 SFRSYM    DATA     BIT       PX1
      000000E0H.3 SFRSYM    DATA     BIT       ACC_3
      000000E0H.4 SFRSYM    DATA     BIT       ACC_4
      000000E0H.5 SFRSYM    DATA     BIT       ACC_5
      000000E0H.6 SFRSYM    DATA     BIT       ACC_6
      000000E0H.7 SFRSYM    DATA     BIT       ACC_7
      000000BDH   SFRSYM    DATA     BYTE      WUTCRH
      00000099H   SFRSYM    DATA     BYTE      SBUF0
      000000EBH   SFRSYM    DATA     BYTE      SBUF1
      000000BCH   SFRSYM    DATA     BYTE      WUTCRL
      00000098H   SFRSYM    DATA     BYTE      SCON0
      000000EAH   SFRSYM    DATA     BYTE      SCON1
      000000C8H   SFRSYM    DATA     BYTE      T2CON
      00000086H   SFRSYM    DATA     BYTE      DPS
      000000FEH   SFRSYM    DATA     BYTE      MDATA
      000000F6H   SFRSYM    DATA     BYTE      I2CMBUF
      000000F1H   SFRSYM    DATA     BYTE      I2CSADR
      00000098H.4 SFRSYM    DATA     BIT       U0REN
      000000C8H.5 SFRSYM    DATA     BIT       CAPES
      000000FDH   SFRSYM    DATA     BYTE      MADRH
      0000008EH   SFRSYM    DATA     BYTE      CKCON
      000000F3H   SFRSYM    DATA     BYTE      I2CSBUF
      000000FCH   SFRSYM    DATA     BYTE      MADRL
LX51 LINKER/LOCATER V4.66.93.0                                                        06/27/2023  19:17:35  PAGE 160


      000000D0H.5 SFRSYM    DATA     BIT       F0
      000000FBH   SFRSYM    DATA     BYTE      MLOCK
      000000D0H   SFRSYM    DATA     BYTE      PSW
      00000097H   SFRSYM    DATA     BYTE      WDCON
      01002E2FH   SYMBOL    CODE     ---       WDT_Config
      02000145H   SYMBOL    XDATA    BYTE      InitRunTimer

      01002E2FH   BLOCK     CODE     ---       LVL=0
      01002E2FH   LINE      CODE     ---       #9
      01002E2FH   LINE      CODE     ---       #10
      01002E2FH   LINE      CODE     ---       #12
      01002E34H   LINE      CODE     ---       #14
      01002E37H   LINE      CODE     ---       #16
      ---         BLOCKEND  ---      ---       LVL=0

      01002A7DH   BLOCK     CODE     ---       LVL=0
      01002A7DH   LINE      CODE     ---       #24
      01002A7DH   LINE      CODE     ---       #25
      01002A7DH   LINE      CODE     ---       #26
      01002A80H   LINE      CODE     ---       #28
      01002A83H   LINE      CODE     ---       #29
      01002A86H   LINE      CODE     ---       #31
      01002A89H   LINE      CODE     ---       #32
      01002A8CH   LINE      CODE     ---       #33
      01002A8FH   LINE      CODE     ---       #34
      01002A92H   LINE      CODE     ---       #35
      01002A95H   LINE      CODE     ---       #37
      01002A98H   LINE      CODE     ---       #39
      01002A9BH   LINE      CODE     ---       #41
      01002AA0H   LINE      CODE     ---       #42
      01002AA5H   LINE      CODE     ---       #43
      ---         BLOCKEND  ---      ---       LVL=0

      010000DAH   BLOCK     CODE     ---       LVL=0
      010000DAH   LINE      CODE     ---       #49
      010000DAH   LINE      CODE     ---       #50
      010000DAH   LINE      CODE     ---       #52
      ---         BLOCKEND  ---      ---       LVL=0

      0100295CH   BLOCK     CODE     ---       LVL=0
      01002960H   BLOCK     CODE     NEAR LAB  LVL=1
      00000008H   SYMBOL    DATA     BYTE      i
      ---         BLOCKEND  ---      ---       LVL=1
      0100295CH   LINE      CODE     ---       #57
      0100295CH   LINE      CODE     ---       #58
      0100295CH   LINE      CODE     ---       #59
      01002960H   LINE      CODE     ---       #60
      01002960H   LINE      CODE     ---       #61
      01002978H   LINE      CODE     ---       #63
      0100297CH   LINE      CODE     ---       #65
      0100298BH   LINE      CODE     ---       #66
      0100298BH   LINE      CODE     ---       #67
      0100298EH   LINE      CODE     ---       #68
      01002991H   LINE      CODE     ---       #69
      01002991H   LINE      CODE     ---       #70
      01002991H   LINE      CODE     ---       #71
      ---         BLOCKEND  ---      ---       LVL=0

      01002E78H   BLOCK     CODE     ---       LVL=0
      00000007H   SYMBOL    DATA     BYTE      Msg
      0000000BH   SYMBOL    DATA     WORD      MsgValue
      01002E7CH   BLOCK     CODE     NEAR LAB  LVL=1
      00000006H   SYMBOL    DATA     BYTE      retCode
      ---         BLOCKEND  ---      ---       LVL=1
      01002E78H   LINE      CODE     ---       #76
LX51 LINKER/LOCATER V4.66.93.0                                                        06/27/2023  19:17:35  PAGE 161


      01002E7CH   LINE      CODE     ---       #77
      01002E7CH   LINE      CODE     ---       #78
      01002E7CH   LINE      CODE     ---       #79
      01002E7CH   LINE      CODE     ---       #81
      01002E7CH   LINE      CODE     ---       #82
      01002E7CH   LINE      CODE     ---       #83
      01002E7CH   LINE      CODE     ---       #84
      01002E7DH   LINE      CODE     ---       #85
      01002E7DH   LINE      CODE     ---       #86
      01002E7DH   LINE      CODE     ---       #88
      01002E7EH   LINE      CODE     ---       #89
      ---         BLOCKEND  ---      ---       LVL=0

      ---         MODULE    ---      ---       WORK
      02000139H   PUBLIC    XDATA    ---       Working
      00000022H.5 PUBLIC    BIT      BIT       bIsWorkingStop
      01002B47H   PUBLIC    CODE     ---       _StationRun_Working
      010011ECH   PUBLIC    CODE     ---       Working_PumpHeat_Run_Task
      0100000EH   PUBLIC    CODE     ---       Working_Run_Task
      01002CBDH   PUBLIC    CODE     ---       Working_De
      010026A7H   PUBLIC    CODE     ---       Working_Con
      000000C8H.0 SFRSYM    DATA     BIT       T2I0
      000000C3H   SFRSYM    DATA     BYTE      CCH1
      00000080H   SFRSYM    DATA     BYTE      P0
      000000C8H.1 SFRSYM    DATA     BIT       T2I1
      000000C5H   SFRSYM    DATA     BYTE      CCH2
      00000090H   SFRSYM    DATA     BYTE      P1
      000000C7H   SFRSYM    DATA     BYTE      CCH3
      000000ACH   SFRSYM    DATA     BYTE      P0EXTIE
      000000A0H   SFRSYM    DATA     BYTE      P2
      000000B4H   SFRSYM    DATA     BYTE      P0EXTIF
      000000ADH   SFRSYM    DATA     BYTE      P1EXTIE
      000000D0H.6 SFRSYM    DATA     BIT       AC
      000000FFH   SFRSYM    DATA     BYTE      MCTRL
      000000C2H   SFRSYM    DATA     BYTE      CCL1
      000000B5H   SFRSYM    DATA     BYTE      P1EXTIF
      000000AEH   SFRSYM    DATA     BYTE      P2EXTIE
      000000D8H   SFRSYM    DATA     BYTE      P5
      000000C4H   SFRSYM    DATA     BYTE      CCL2
      000000B6H   SFRSYM    DATA     BYTE      P2EXTIF
      000000A8H.7 SFRSYM    DATA     BIT       EA
      000000C6H   SFRSYM    DATA     BYTE      CCL3
      000000AAH   SFRSYM    DATA     BYTE      EIE2
      000000B2H   SFRSYM    DATA     BYTE      EIF2
      0000009CH   SFRSYM    DATA     BYTE      P5EXTIE
      000000A7H   SFRSYM    DATA     BYTE      P5EXTIF
      000000C8H.3 SFRSYM    DATA     BIT       T2R0
      000000C8H.4 SFRSYM    DATA     BIT       T2R1
      00000083H   SFRSYM    DATA     BYTE      DPH0
      000000A8H   SFRSYM    DATA     BYTE      IE
      00000085H   SFRSYM    DATA     BYTE      DPH1
      00000080H.0 SFRSYM    DATA     BIT       P0_0
      000000B9H   SFRSYM    DATA     BYTE      EIP1
      00000090H.0 SFRSYM    DATA     BIT       P1_0
      00000080H.1 SFRSYM    DATA     BIT       P0_1
      000000BAH   SFRSYM    DATA     BYTE      EIP2
      00000082H   SFRSYM    DATA     BYTE      DPL0
      000000A0H.0 SFRSYM    DATA     BIT       P2_0
      00000090H.1 SFRSYM    DATA     BIT       P1_1
      00000080H.2 SFRSYM    DATA     BIT       P0_2
      000000BBH   SFRSYM    DATA     BYTE      EIP3
      00000084H   SFRSYM    DATA     BYTE      DPL1
      000000A0H.1 SFRSYM    DATA     BIT       P2_1
      00000090H.2 SFRSYM    DATA     BIT       P1_2
      00000080H.3 SFRSYM    DATA     BIT       P0_3
LX51 LINKER/LOCATER V4.66.93.0                                                        06/27/2023  19:17:35  PAGE 162


      000000A0H.2 SFRSYM    DATA     BIT       P2_2
      00000090H.3 SFRSYM    DATA     BIT       P1_3
      00000080H.4 SFRSYM    DATA     BIT       P0_4
      000000D8H.0 SFRSYM    DATA     BIT       P5_0
      000000C8H.6 SFRSYM    DATA     BIT       I3FR
      000000A0H.3 SFRSYM    DATA     BIT       P2_3
      00000090H.4 SFRSYM    DATA     BIT       P1_4
      00000080H.5 SFRSYM    DATA     BIT       P0_5
      000000CFH   SFRSYM    DATA     BYTE      T2IE
      00000096H   SFRSYM    DATA     BYTE      TA
      000000D8H.1 SFRSYM    DATA     BIT       P5_1
      000000A0H.4 SFRSYM    DATA     BIT       P2_4
      00000090H.5 SFRSYM    DATA     BIT       P1_5
      00000080H.6 SFRSYM    DATA     BIT       P0_6
      000000C9H   SFRSYM    DATA     BYTE      T2IF
      000000D8H.2 SFRSYM    DATA     BIT       P5_2
      000000C8H.2 SFRSYM    DATA     BIT       T2CM
      000000A0H.5 SFRSYM    DATA     BIT       P2_5
      00000090H.6 SFRSYM    DATA     BIT       P1_6
      00000080H.7 SFRSYM    DATA     BIT       P0_7
      000000DFH   SFRSYM    DATA     BYTE      ADCON0
      000000D8H.3 SFRSYM    DATA     BIT       P5_3
      000000A0H.6 SFRSYM    DATA     BIT       P2_6
      00000090H.7 SFRSYM    DATA     BIT       P1_7
      000000DEH   SFRSYM    DATA     BYTE      ADCON1
      000000D8H.4 SFRSYM    DATA     BIT       P5_4
      000000A0H.7 SFRSYM    DATA     BIT       P2_7
      000000E9H   SFRSYM    DATA     BYTE      ADCON2
      000000B8H   SFRSYM    DATA     BYTE      IP
      000000D8H.5 SFRSYM    DATA     BIT       P5_5
      000000CEH   SFRSYM    DATA     BYTE      CCEN
      000000D8H.6 SFRSYM    DATA     BIT       P5_6
      000000D8H.7 SFRSYM    DATA     BIT       P5_7
      000000D0H.7 SFRSYM    DATA     BIT       CY
      000000D2H   SFRSYM    DATA     BYTE      T34MOD
      000000F4H   SFRSYM    DATA     BYTE      I2CMSA
      000000D7H   SFRSYM    DATA     BYTE      SCKSTAU
      000000F5H   SFRSYM    DATA     BYTE      I2CMCR
      00000081H   SFRSYM    DATA     BYTE      SP
      000000D0H.2 SFRSYM    DATA     BIT       OV
      000000F2H   SFRSYM    DATA     BYTE      I2CSCR
      000000D9H   SFRSYM    DATA     BYTE      ADCCHS
      000000C8H.7 SFRSYM    DATA     BIT       T2PS
      000000D1H   SFRSYM    DATA     BYTE      ADCMPC
      000000CBH   SFRSYM    DATA     BYTE      RLDH
      000000D5H   SFRSYM    DATA     BYTE      ADCMPH
      000000CAH   SFRSYM    DATA     BYTE      RLDL
      00000080H.0 SFRSYM    DATA     BIT       P00
      00000090H.0 SFRSYM    DATA     BIT       P10
      00000080H.1 SFRSYM    DATA     BIT       P01
      000000F7H   SFRSYM    DATA     BYTE      I2CMTP
      00000087H   SFRSYM    DATA     BYTE      PCON
      000000A0H.0 SFRSYM    DATA     BIT       P20
      00000090H.1 SFRSYM    DATA     BIT       P11
      00000080H.2 SFRSYM    DATA     BIT       P02
      000000F5H   SFRSYM    DATA     BYTE      I2CMSR
      000000A0H.1 SFRSYM    DATA     BIT       P21
      00000090H.2 SFRSYM    DATA     BIT       P12
      00000080H.3 SFRSYM    DATA     BIT       P03
      000000D4H   SFRSYM    DATA     BYTE      ADCMPL
      000000A0H.2 SFRSYM    DATA     BIT       P22
      00000090H.3 SFRSYM    DATA     BIT       P13
      00000080H.4 SFRSYM    DATA     BIT       P04
      000000D8H.0 SFRSYM    DATA     BIT       P50
      000000A0H.3 SFRSYM    DATA     BIT       P23
LX51 LINKER/LOCATER V4.66.93.0                                                        06/27/2023  19:17:35  PAGE 163


      00000090H.4 SFRSYM    DATA     BIT       P14
      00000080H.5 SFRSYM    DATA     BIT       P05
      00000089H   SFRSYM    DATA     BYTE      TMOD
      00000088H   SFRSYM    DATA     BYTE      TCON
      000000D8H.1 SFRSYM    DATA     BIT       P51
      00000090H.5 SFRSYM    DATA     BIT       P15
      00000080H.6 SFRSYM    DATA     BIT       P06
      000000FAH   SFRSYM    DATA     BYTE      PCRCDH
      000000D8H.2 SFRSYM    DATA     BIT       P52
      00000090H.6 SFRSYM    DATA     BIT       P16
      00000080H.7 SFRSYM    DATA     BIT       P07
      000000D8H.3 SFRSYM    DATA     BIT       P53
      00000090H.7 SFRSYM    DATA     BIT       P17
      000000F2H   SFRSYM    DATA     BYTE      I2CSSR
      000000D8H.4 SFRSYM    DATA     BIT       P54
      000000ECH   SFRSYM    DATA     BYTE      SPCR
      000000DDH   SFRSYM    DATA     BYTE      ADRESH
      000000D8H.5 SFRSYM    DATA     BIT       P55
      000000F9H   SFRSYM    DATA     BYTE      PCRCDL
      000000EEH   SFRSYM    DATA     BYTE      SPDR
      000000EFH   SFRSYM    DATA     BYTE      SSCR
      000000D3H   SFRSYM    DATA     BYTE      ADDLYL
      000000DCH   SFRSYM    DATA     BYTE      ADRESL
      00000088H.1 SFRSYM    DATA     BIT       IE0
      00000088H.3 SFRSYM    DATA     BIT       IE1
      0000008FH   SFRSYM    DATA     BYTE      CLKDIV
      000000F0H   SFRSYM    DATA     BYTE      B
      00000091H   SFRSYM    DATA     BYTE      FUNCCR
      0000009AH   SFRSYM    DATA     BYTE      P0TRIS
      000000A1H   SFRSYM    DATA     BYTE      P1TRIS
      000000A2H   SFRSYM    DATA     BYTE      P2TRIS
      000000E0H   SFRSYM    DATA     BYTE      ACC
      000000D6H   SFRSYM    DATA     BYTE      SCKSEL
      000000A8H.4 SFRSYM    DATA     BIT       ES0
      000000A8H.1 SFRSYM    DATA     BIT       ET0
      000000A8H.6 SFRSYM    DATA     BIT       ES1
      000000EDH   SFRSYM    DATA     BYTE      SPSR
      000000A5H   SFRSYM    DATA     BYTE      P5TRIS
      000000A8H.3 SFRSYM    DATA     BIT       ET1
      00000088H.5 SFRSYM    DATA     BIT       TF0
      000000A8H.5 SFRSYM    DATA     BIT       ET2
      00000098H.0 SFRSYM    DATA     BIT       RI0
      00000088H.7 SFRSYM    DATA     BIT       TF1
      0000008CH   SFRSYM    DATA     BYTE      TH0
      000000A8H.0 SFRSYM    DATA     BIT       EX0
      00000098H.1 SFRSYM    DATA     BIT       TI0
      00000088H.0 SFRSYM    DATA     BIT       IT0
      0000008DH   SFRSYM    DATA     BYTE      TH1
      000000A8H.2 SFRSYM    DATA     BIT       EX1
      00000088H.2 SFRSYM    DATA     BIT       IT1
      000000CDH   SFRSYM    DATA     BYTE      TH2
      000000D0H.0 SFRSYM    DATA     BIT       P
      000000DBH   SFRSYM    DATA     BYTE      TH3
      000000E3H   SFRSYM    DATA     BYTE      TH4
      0000008AH   SFRSYM    DATA     BYTE      TL0
      000000F0H.0 SFRSYM    DATA     BIT       B_0
      0000008BH   SFRSYM    DATA     BYTE      TL1
      000000F0H.1 SFRSYM    DATA     BIT       B_1
      00000098H.2 SFRSYM    DATA     BIT       U0RB8
      000000CCH   SFRSYM    DATA     BYTE      TL2
      000000F0H.2 SFRSYM    DATA     BIT       B_2
      000000B8H.4 SFRSYM    DATA     BIT       PS0
      000000DAH   SFRSYM    DATA     BYTE      TL3
      000000BFH   SFRSYM    DATA     BYTE      BUZCON
      000000F0H.3 SFRSYM    DATA     BIT       B_3
LX51 LINKER/LOCATER V4.66.93.0                                                        06/27/2023  19:17:35  PAGE 164


      000000B8H.1 SFRSYM    DATA     BIT       PT0
      000000B8H.6 SFRSYM    DATA     BIT       PS1
      00000098H.3 SFRSYM    DATA     BIT       U0TB8
      000000E2H   SFRSYM    DATA     BYTE      TL4
      000000F0H.4 SFRSYM    DATA     BIT       B_4
      000000D0H.3 SFRSYM    DATA     BIT       RS0
      000000B8H.3 SFRSYM    DATA     BIT       PT1
      000000F0H.5 SFRSYM    DATA     BIT       B_5
      000000D0H.4 SFRSYM    DATA     BIT       RS1
      000000B8H.5 SFRSYM    DATA     BIT       PT2
      00000098H.7 SFRSYM    DATA     BIT       U0SM0
      00000088H.4 SFRSYM    DATA     BIT       TR0
      000000BEH   SFRSYM    DATA     BYTE      BUZDIV
      000000F0H.6 SFRSYM    DATA     BIT       B_6
      000000E0H.0 SFRSYM    DATA     BIT       ACC_0
      00000098H.6 SFRSYM    DATA     BIT       U0SM1
      00000088H.6 SFRSYM    DATA     BIT       TR1
      000000F0H.7 SFRSYM    DATA     BIT       B_7
      000000E0H.1 SFRSYM    DATA     BIT       ACC_1
      000000B8H.0 SFRSYM    DATA     BIT       PX0
      00000098H.5 SFRSYM    DATA     BIT       U0SM2
      000000E0H.2 SFRSYM    DATA     BIT       ACC_2
      000000B8H.2 SFRSYM    DATA     BIT       PX1
      000000E0H.3 SFRSYM    DATA     BIT       ACC_3
      000000E0H.4 SFRSYM    DATA     BIT       ACC_4
      000000E0H.5 SFRSYM    DATA     BIT       ACC_5
      000000E0H.6 SFRSYM    DATA     BIT       ACC_6
      000000E0H.7 SFRSYM    DATA     BIT       ACC_7
      000000BDH   SFRSYM    DATA     BYTE      WUTCRH
      00000099H   SFRSYM    DATA     BYTE      SBUF0
      000000EBH   SFRSYM    DATA     BYTE      SBUF1
      000000BCH   SFRSYM    DATA     BYTE      WUTCRL
      00000098H   SFRSYM    DATA     BYTE      SCON0
      000000EAH   SFRSYM    DATA     BYTE      SCON1
      000000C8H   SFRSYM    DATA     BYTE      T2CON
      00000086H   SFRSYM    DATA     BYTE      DPS
      000000FEH   SFRSYM    DATA     BYTE      MDATA
      000000F6H   SFRSYM    DATA     BYTE      I2CMBUF
      000000F1H   SFRSYM    DATA     BYTE      I2CSADR
      00000098H.4 SFRSYM    DATA     BIT       U0REN
      000000C8H.5 SFRSYM    DATA     BIT       CAPES
      000000FDH   SFRSYM    DATA     BYTE      MADRH
      0000008EH   SFRSYM    DATA     BYTE      CKCON
      000000F3H   SFRSYM    DATA     BYTE      I2CSBUF
      000000FCH   SFRSYM    DATA     BYTE      MADRL
      000000D0H.5 SFRSYM    DATA     BIT       F0
      000000FBH   SFRSYM    DATA     BYTE      MLOCK
      000000D0H   SFRSYM    DATA     BYTE      PSW
      00000097H   SFRSYM    DATA     BYTE      WDCON
      010029C5H   SYMBOL    CODE     ---       _Working_MsgFunc_Key_Menu
      010025C3H   SYMBOL    CODE     ---       Working_HeatTemp_Adjust
      0100277CH   SYMBOL    CODE     ---       _GetWorkingTempTimePara
      0000003AH   SYMBOL    DATA     DWORD     WorkingRunTmr
      01003036H   SYMBOL    CONST    ---       WorkingPara_Tab
      0100162DH   SYMBOL    CODE     ---       Working_ShowStatusDoing
      01002517H   SYMBOL    CODE     ---       _Working_MsgFunc_Key_Power

      0100277CH   BLOCK     CODE     ---       LVL=0
      00000007H   SYMBOL    DATA     BYTE      type
      00000005H   SYMBOL    DATA     BYTE      cook
      0100277CH   LINE      CODE     ---       #31
      0100277CH   LINE      CODE     ---       #32
      0100277CH   LINE      CODE     ---       #33
      01002797H   LINE      CODE     ---       #34
      ---         BLOCKEND  ---      ---       LVL=0
LX51 LINKER/LOCATER V4.66.93.0                                                        06/27/2023  19:17:35  PAGE 165



      010026A7H   BLOCK     CODE     ---       LVL=0
      010026A7H   LINE      CODE     ---       #38
      010026A7H   LINE      CODE     ---       #39
      010026A7H   LINE      CODE     ---       #40
      010026AEH   LINE      CODE     ---       #42
      010026B4H   LINE      CODE     ---       #43
      010026CBH   LINE      CODE     ---       #44
      010026D1H   LINE      CODE     ---       #46
      010026DBH   LINE      CODE     ---       #47
      010026DFH   LINE      CODE     ---       #49
      010026E8H   LINE      CODE     ---       #50
      010026EAH   LINE      CODE     ---       #51
      ---         BLOCKEND  ---      ---       LVL=0

      01002CBDH   BLOCK     CODE     ---       LVL=0
      01002CBDH   LINE      CODE     ---       #54
      01002CBDH   LINE      CODE     ---       #55
      01002CBDH   LINE      CODE     ---       #57
      01002CBFH   LINE      CODE     ---       #58
      01002CD0H   LINE      CODE     ---       #59
      01002CD5H   LINE      CODE     ---       #60
      01002CD9H   LINE      CODE     ---       #61
      ---         BLOCKEND  ---      ---       LVL=0

      0100000EH   BLOCK     CODE     ---       LVL=0
      0100000EH   LINE      CODE     ---       #63
      0100000EH   LINE      CODE     ---       #64
      0100000EH   LINE      CODE     ---       #65
      01000018H   LINE      CODE     ---       #66
      01000018H   LINE      CODE     ---       #67
      01000022H   LINE      CODE     ---       #69
      01000022H   LINE      CODE     ---       #71
      01000037H   LINE      CODE     ---       #72
      01000064H   LINE      CODE     ---       #74
      01000064H   LINE      CODE     ---       #76
      01000067H   LINE      CODE     ---       #77
      0100006AH   LINE      CODE     ---       #79
      0100006AH   LINE      CODE     ---       #81
      01000078H   LINE      CODE     ---       #82
      01000078H   LINE      CODE     ---       #83
      0100007BH   LINE      CODE     ---       #85
      0100007BH   LINE      CODE     ---       #86
      0100007EH   LINE      CODE     ---       #87
      0100007EH   LINE      CODE     ---       #88
      01000081H   LINE      CODE     ---       #90
      01000081H   LINE      CODE     ---       #91
      ---         BLOCKEND  ---      ---       LVL=0

      0100162DH   BLOCK     CODE     ---       LVL=0
      0100162DH   LINE      CODE     ---       #95
      0100162DH   LINE      CODE     ---       #96
      0100162DH   LINE      CODE     ---       #97
      01001634H   LINE      CODE     ---       #99
      01001643H   LINE      CODE     ---       #100
      01001643H   LINE      CODE     ---       #101
      01001643H   LINE      CODE     ---       #102
      01001643H   LINE      CODE     ---       #103
      01001643H   LINE      CODE     ---       #104
      01001643H   LINE      CODE     ---       #105
      01001643H   LINE      CODE     ---       #106
      01001643H   LINE      CODE     ---       #107
      0100164BH   LINE      CODE     ---       #108
      0100164FH   LINE      CODE     ---       #110
      01001656H   LINE      CODE     ---       #111
LX51 LINKER/LOCATER V4.66.93.0                                                        06/27/2023  19:17:35  PAGE 166


      0100165EH   LINE      CODE     ---       #112
      01001662H   LINE      CODE     ---       #114
      01001669H   LINE      CODE     ---       #115
      01001671H   LINE      CODE     ---       #116
      01001675H   LINE      CODE     ---       #118
      0100167CH   LINE      CODE     ---       #119
      01001684H   LINE      CODE     ---       #120
      01001688H   LINE      CODE     ---       #122
      0100168FH   LINE      CODE     ---       #123
      01001697H   LINE      CODE     ---       #124
      0100169CH   LINE      CODE     ---       #126
      0100169EH   LINE      CODE     ---       #127
      0100169EH   LINE      CODE     ---       #128
      010016A1H   LINE      CODE     ---       #130
      010016A1H   LINE      CODE     ---       #131
      010016A1H   LINE      CODE     ---       #132
      010016A9H   LINE      CODE     ---       #133
      010016ADH   LINE      CODE     ---       #135
      010016B4H   LINE      CODE     ---       #136
      010016BCH   LINE      CODE     ---       #137
      010016C0H   LINE      CODE     ---       #139
      010016C7H   LINE      CODE     ---       #140
      010016CFH   LINE      CODE     ---       #141
      010016D3H   LINE      CODE     ---       #143
      010016DAH   LINE      CODE     ---       #144
      010016E2H   LINE      CODE     ---       #145
      010016E6H   LINE      CODE     ---       #147
      010016EDH   LINE      CODE     ---       #148
      010016F5H   LINE      CODE     ---       #149
      010016F9H   LINE      CODE     ---       #151
      010016FBH   LINE      CODE     ---       #152
      010016FBH   LINE      CODE     ---       #153
      010016FDH   LINE      CODE     ---       #155
      010016FDH   LINE      CODE     ---       #156
      010016FDH   LINE      CODE     ---       #157
      010016FDH   LINE      CODE     ---       #158
      010016FDH   LINE      CODE     ---       #159
      01001705H   LINE      CODE     ---       #160
      01001709H   LINE      CODE     ---       #162
      01001710H   LINE      CODE     ---       #163
      01001718H   LINE      CODE     ---       #164
      0100171CH   LINE      CODE     ---       #166
      01001723H   LINE      CODE     ---       #167
      0100172BH   LINE      CODE     ---       #168
      0100172FH   LINE      CODE     ---       #170
      01001736H   LINE      CODE     ---       #171
      0100173EH   LINE      CODE     ---       #172
      01001742H   LINE      CODE     ---       #174
      01001749H   LINE      CODE     ---       #175
      01001751H   LINE      CODE     ---       #176
      01001755H   LINE      CODE     ---       #178
      0100175CH   LINE      CODE     ---       #179
      0100175CH   LINE      CODE     ---       #180
      0100175CH   LINE      CODE     ---       #181
      0100175CH   LINE      CODE     ---       #182
      ---         BLOCKEND  ---      ---       LVL=0

      010025C3H   BLOCK     CODE     ---       LVL=0
      010025C3H   BLOCK     CODE     NEAR LAB  LVL=1
      00000005H   SYMBOL    DATA     BYTE      temp
      00000006H   SYMBOL    DATA     BYTE      tempMin
      00000007H   SYMBOL    DATA     BYTE      tempMax
      ---         BLOCKEND  ---      ---       LVL=1
      010025C3H   LINE      CODE     ---       #184
      010025C3H   LINE      CODE     ---       #185
LX51 LINKER/LOCATER V4.66.93.0                                                        06/27/2023  19:17:35  PAGE 167


      010025C3H   LINE      CODE     ---       #188
      010025C9H   LINE      CODE     ---       #189
      010025C9H   LINE      CODE     ---       #190
      010025CEH   LINE      CODE     ---       #192
      010025CEH   LINE      CODE     ---       #194
      010025D5H   LINE      CODE     ---       #195
      010025D5H   LINE      CODE     ---       #196
      010025DAH   LINE      CODE     ---       #199
      010025DDH   LINE      CODE     ---       #200
      010025DDH   LINE      CODE     ---       #201
      010025E1H   LINE      CODE     ---       #202
      010025E1H   LINE      CODE     ---       #203
      010025E5H   LINE      CODE     ---       #204
      010025EDH   LINE      CODE     ---       #205
      010025EDH   LINE      CODE     ---       #206
      010025EDH   LINE      CODE     ---       #207
      010025EDH   LINE      CODE     ---       #208
      010025EDH   LINE      CODE     ---       #209
      010025EDH   LINE      CODE     ---       #210
      010025EFH   LINE      CODE     ---       #212
      010025EFH   LINE      CODE     ---       #213
      010025F4H   LINE      CODE     ---       #214
      010025F4H   LINE      CODE     ---       #215
      010025F8H   LINE      CODE     ---       #216
      01002600H   LINE      CODE     ---       #217
      01002603H   LINE      CODE     ---       #218
      01002604H   LINE      CODE     ---       #220
      01002604H   LINE      CODE     ---       #221
      0100260CH   LINE      CODE     ---       #222
      0100260CH   LINE      CODE     ---       #223
      01002610H   LINE      CODE     ---       #224
      01002613H   LINE      CODE     ---       #225
      01002613H   LINE      CODE     ---       #226
      01002613H   LINE      CODE     ---       #227
      01002613H   LINE      CODE     ---       #228
      ---         BLOCKEND  ---      ---       LVL=0

      010011ECH   BLOCK     CODE     ---       LVL=0
      010011ECH   LINE      CODE     ---       #230
      010011ECH   LINE      CODE     ---       #231
      010011ECH   LINE      CODE     ---       #232
      010011F9H   LINE      CODE     ---       #236
      010011FCH   LINE      CODE     ---       #238
      0100121DH   LINE      CODE     ---       #239
      0100121DH   LINE      CODE     ---       #240
      0100121DH   LINE      CODE     ---       #241
      0100121DH   LINE      CODE     ---       #242
      01001236H   LINE      CODE     ---       #243
      0100123DH   LINE      CODE     ---       #252
      0100123DH   LINE      CODE     ---       #253
      0100123DH   LINE      CODE     ---       #254
      01001240H   LINE      CODE     ---       #255
      01001246H   LINE      CODE     ---       #256
      0100124BH   LINE      CODE     ---       #257
      0100124BH   LINE      CODE     ---       #258
      0100124DH   LINE      CODE     ---       #260
      0100124DH   LINE      CODE     ---       #261
      0100124DH   LINE      CODE     ---       #262
      01001266H   LINE      CODE     ---       #263
      01001266H   LINE      CODE     ---       #264
      0100126CH   LINE      CODE     ---       #265
      01001271H   LINE      CODE     ---       #266
      01001273H   LINE      CODE     ---       #268
      01001273H   LINE      CODE     ---       #269
      01001273H   LINE      CODE     ---       #270
LX51 LINKER/LOCATER V4.66.93.0                                                        06/27/2023  19:17:35  PAGE 168


      01001273H   LINE      CODE     ---       #271
      01001273H   LINE      CODE     ---       #272
      01001273H   LINE      CODE     ---       #273
      01001275H   LINE      CODE     ---       #275
      01001275H   LINE      CODE     ---       #276
      01001275H   LINE      CODE     ---       #277
      0100128EH   LINE      CODE     ---       #278
      0100128EH   LINE      CODE     ---       #279
      01001294H   LINE      CODE     ---       #280
      0100129FH   LINE      CODE     ---       #281
      0100129FH   LINE      CODE     ---       #283
      0100129FH   LINE      CODE     ---       #284
      0100129FH   LINE      CODE     ---       #285
      0100129FH   LINE      CODE     ---       #286
      0100129FH   LINE      CODE     ---       #287
      0100129FH   LINE      CODE     ---       #288
      010012A1H   LINE      CODE     ---       #290
      010012A1H   LINE      CODE     ---       #291
      010012A1H   LINE      CODE     ---       #292
      010012BAH   LINE      CODE     ---       #293
      010012BAH   LINE      CODE     ---       #294
      010012BEH   LINE      CODE     ---       #296
      010012C2H   LINE      CODE     ---       #297
      010012CAH   LINE      CODE     ---       #298
      010012D0H   LINE      CODE     ---       #299
      010012D1H   LINE      CODE     ---       #301
      010012D1H   LINE      CODE     ---       #302
      010012F3H   LINE      CODE     ---       #303
      010012F6H   LINE      CODE     ---       #304
      010012F6H   LINE      CODE     ---       #305
      010012F6H   LINE      CODE     ---       #306
      010012F6H   LINE      CODE     ---       #308
      010012F6H   LINE      CODE     ---       #309
      010012F6H   LINE      CODE     ---       #310
      0100130FH   LINE      CODE     ---       #311
      0100130FH   LINE      CODE     ---       #312
      01001311H   LINE      CODE     ---       #313
      01001315H   LINE      CODE     ---       #314
      01001316H   LINE      CODE     ---       #316
      01001316H   LINE      CODE     ---       #317
      01001341H   LINE      CODE     ---       #318
      01001346H   LINE      CODE     ---       #320
      01001368H   LINE      CODE     ---       #321
      01001368H   LINE      CODE     ---       #322
      01001368H   LINE      CODE     ---       #323
      01001368H   LINE      CODE     ---       #324
      0100136AH   LINE      CODE     ---       #326
      0100136AH   LINE      CODE     ---       #327
      0100136AH   LINE      CODE     ---       #328
      0100136AH   LINE      CODE     ---       #329
      0100136AH   LINE      CODE     ---       #330
      0100136EH   LINE      CODE     ---       #331
      0100136EH   LINE      CODE     ---       #332
      0100136EH   LINE      CODE     ---       #333
      0100136EH   LINE      CODE     ---       #334
      ---         BLOCKEND  ---      ---       LVL=0

      01002517H   BLOCK     CODE     ---       LVL=0
      0000000DH   SYMBOL    DATA     WORD      MsgValue
      01002517H   LINE      CODE     ---       #339
      0100251BH   LINE      CODE     ---       #340
      0100251BH   LINE      CODE     ---       #341
      01002524H   LINE      CODE     ---       #343
      01002529H   LINE      CODE     ---       #344
      01002529H   LINE      CODE     ---       #345
LX51 LINKER/LOCATER V4.66.93.0                                                        06/27/2023  19:17:35  PAGE 169


      01002530H   LINE      CODE     ---       #347
      01002537H   LINE      CODE     ---       #348
      01002537H   LINE      CODE     ---       #349
      01002537H   LINE      CODE     ---       #350
      01002537H   LINE      CODE     ---       #351
      0100253DH   LINE      CODE     ---       #352
      01002545H   LINE      CODE     ---       #353
      01002545H   LINE      CODE     ---       #354
      01002547H   LINE      CODE     ---       #356
      01002547H   LINE      CODE     ---       #357
      01002547H   LINE      CODE     ---       #358
      01002547H   LINE      CODE     ---       #359
      01002547H   LINE      CODE     ---       #360
      01002547H   LINE      CODE     ---       #361
      01002547H   LINE      CODE     ---       #362
      01002547H   LINE      CODE     ---       #363
      01002547H   LINE      CODE     ---       #364
      01002547H   LINE      CODE     ---       #365
      0100254BH   LINE      CODE     ---       #366
      0100254DH   LINE      CODE     ---       #367
      01002553H   LINE      CODE     ---       #368
      01002553H   LINE      CODE     ---       #369
      01002555H   LINE      CODE     ---       #370
      01002555H   LINE      CODE     ---       #371
      01002555H   LINE      CODE     ---       #372
      01002562H   LINE      CODE     ---       #373
      01002562H   LINE      CODE     ---       #374
      01002569H   LINE      CODE     ---       #376
      0100256CH   LINE      CODE     ---       #377
      0100256FH   LINE      CODE     ---       #378
      0100256FH   LINE      CODE     ---       #380
      01002571H   LINE      CODE     ---       #381
      ---         BLOCKEND  ---      ---       LVL=0

      010029C5H   BLOCK     CODE     ---       LVL=0
      00000002H   SYMBOL    DATA     WORD      MsgValue
      010029C5H   LINE      CODE     ---       #384
      010029C5H   LINE      CODE     ---       #385
      010029C5H   LINE      CODE     ---       #386
      010029CEH   LINE      CODE     ---       #388
      010029D3H   LINE      CODE     ---       #389
      010029D3H   LINE      CODE     ---       #390
      010029DAH   LINE      CODE     ---       #392
      010029E2H   LINE      CODE     ---       #393
      010029E2H   LINE      CODE     ---       #394
      010029E6H   LINE      CODE     ---       #395
      010029F0H   LINE      CODE     ---       #396
      010029F3H   LINE      CODE     ---       #397
      010029F3H   LINE      CODE     ---       #398
      010029F3H   LINE      CODE     ---       #400
      010029F5H   LINE      CODE     ---       #401
      ---         BLOCKEND  ---      ---       LVL=0

      01002B47H   BLOCK     CODE     ---       LVL=0
      00000007H   SYMBOL    DATA     BYTE      Msg
      0000000BH   SYMBOL    DATA     WORD      MsgValue
      01002B4BH   BLOCK     CODE     NEAR LAB  LVL=1
      00000006H   SYMBOL    DATA     BYTE      retCode
      ---         BLOCKEND  ---      ---       LVL=1
      01002B47H   LINE      CODE     ---       #406
      01002B4BH   LINE      CODE     ---       #407
      01002B4BH   LINE      CODE     ---       #408
      01002B4BH   LINE      CODE     ---       #410
      01002B53H   LINE      CODE     ---       #411
      01002B53H   LINE      CODE     ---       #412
LX51 LINKER/LOCATER V4.66.93.0                                                        06/27/2023  19:17:35  PAGE 170


      01002B53H   LINE      CODE     ---       #413
      01002B5CH   LINE      CODE     ---       #414
      01002B5EH   LINE      CODE     ---       #415
      01002B5EH   LINE      CODE     ---       #416
      01002B67H   LINE      CODE     ---       #417
      01002B69H   LINE      CODE     ---       #419
      01002B69H   LINE      CODE     ---       #420
      01002B6BH   LINE      CODE     ---       #421
      01002B6BH   LINE      CODE     ---       #422
      01002B6BH   LINE      CODE     ---       #424
      01002B6DH   LINE      CODE     ---       #425
      ---         BLOCKEND  ---      ---       LVL=0

      ---         MODULE    ---      ---       STATION
      00000043H   PUBLIC    DATA     BYTE      FuncNum1st
      00000042H   PUBLIC    DATA     BYTE      FuncNum3rd
      00000041H   PUBLIC    DATA     BYTE      FuncNum2nd
      01000086H   PUBLIC    CODE     ---       _StationRun
      01002E86H   PUBLIC    CODE     ---       _NullRoutine
      01002E7FH   PUBLIC    CODE     ---       ResumeWorkMode
      01002E4CH   PUBLIC    CODE     ---       _SetWorkMode
      000000C8H.0 SFRSYM    DATA     BIT       T2I0
      000000C3H   SFRSYM    DATA     BYTE      CCH1
      00000080H   SFRSYM    DATA     BYTE      P0
      000000C8H.1 SFRSYM    DATA     BIT       T2I1
      000000C5H   SFRSYM    DATA     BYTE      CCH2
      00000090H   SFRSYM    DATA     BYTE      P1
      000000C7H   SFRSYM    DATA     BYTE      CCH3
      000000ACH   SFRSYM    DATA     BYTE      P0EXTIE
      000000A0H   SFRSYM    DATA     BYTE      P2
      000000B4H   SFRSYM    DATA     BYTE      P0EXTIF
      000000ADH   SFRSYM    DATA     BYTE      P1EXTIE
      000000D0H.6 SFRSYM    DATA     BIT       AC
      000000FFH   SFRSYM    DATA     BYTE      MCTRL
      000000C2H   SFRSYM    DATA     BYTE      CCL1
      000000B5H   SFRSYM    DATA     BYTE      P1EXTIF
      000000AEH   SFRSYM    DATA     BYTE      P2EXTIE
      000000D8H   SFRSYM    DATA     BYTE      P5
      000000C4H   SFRSYM    DATA     BYTE      CCL2
      000000B6H   SFRSYM    DATA     BYTE      P2EXTIF
      000000A8H.7 SFRSYM    DATA     BIT       EA
      000000C6H   SFRSYM    DATA     BYTE      CCL3
      000000AAH   SFRSYM    DATA     BYTE      EIE2
      000000B2H   SFRSYM    DATA     BYTE      EIF2
      0000009CH   SFRSYM    DATA     BYTE      P5EXTIE
      000000A7H   SFRSYM    DATA     BYTE      P5EXTIF
      000000C8H.3 SFRSYM    DATA     BIT       T2R0
      000000C8H.4 SFRSYM    DATA     BIT       T2R1
      00000083H   SFRSYM    DATA     BYTE      DPH0
      000000A8H   SFRSYM    DATA     BYTE      IE
      00000085H   SFRSYM    DATA     BYTE      DPH1
      00000080H.0 SFRSYM    DATA     BIT       P0_0
      000000B9H   SFRSYM    DATA     BYTE      EIP1
      00000090H.0 SFRSYM    DATA     BIT       P1_0
      00000080H.1 SFRSYM    DATA     BIT       P0_1
      000000BAH   SFRSYM    DATA     BYTE      EIP2
      00000082H   SFRSYM    DATA     BYTE      DPL0
      000000A0H.0 SFRSYM    DATA     BIT       P2_0
      00000090H.1 SFRSYM    DATA     BIT       P1_1
      00000080H.2 SFRSYM    DATA     BIT       P0_2
      000000BBH   SFRSYM    DATA     BYTE      EIP3
      00000084H   SFRSYM    DATA     BYTE      DPL1
      000000A0H.1 SFRSYM    DATA     BIT       P2_1
      00000090H.2 SFRSYM    DATA     BIT       P1_2
      00000080H.3 SFRSYM    DATA     BIT       P0_3
LX51 LINKER/LOCATER V4.66.93.0                                                        06/27/2023  19:17:35  PAGE 171


      000000A0H.2 SFRSYM    DATA     BIT       P2_2
      00000090H.3 SFRSYM    DATA     BIT       P1_3
      00000080H.4 SFRSYM    DATA     BIT       P0_4
      000000D8H.0 SFRSYM    DATA     BIT       P5_0
      000000C8H.6 SFRSYM    DATA     BIT       I3FR
      000000A0H.3 SFRSYM    DATA     BIT       P2_3
      00000090H.4 SFRSYM    DATA     BIT       P1_4
      00000080H.5 SFRSYM    DATA     BIT       P0_5
      000000CFH   SFRSYM    DATA     BYTE      T2IE
      00000096H   SFRSYM    DATA     BYTE      TA
      000000D8H.1 SFRSYM    DATA     BIT       P5_1
      000000A0H.4 SFRSYM    DATA     BIT       P2_4
      00000090H.5 SFRSYM    DATA     BIT       P1_5
      00000080H.6 SFRSYM    DATA     BIT       P0_6
      000000C9H   SFRSYM    DATA     BYTE      T2IF
      000000D8H.2 SFRSYM    DATA     BIT       P5_2
      000000C8H.2 SFRSYM    DATA     BIT       T2CM
      000000A0H.5 SFRSYM    DATA     BIT       P2_5
      00000090H.6 SFRSYM    DATA     BIT       P1_6
      00000080H.7 SFRSYM    DATA     BIT       P0_7
      000000DFH   SFRSYM    DATA     BYTE      ADCON0
      000000D8H.3 SFRSYM    DATA     BIT       P5_3
      000000A0H.6 SFRSYM    DATA     BIT       P2_6
      00000090H.7 SFRSYM    DATA     BIT       P1_7
      000000DEH   SFRSYM    DATA     BYTE      ADCON1
      000000D8H.4 SFRSYM    DATA     BIT       P5_4
      000000A0H.7 SFRSYM    DATA     BIT       P2_7
      000000E9H   SFRSYM    DATA     BYTE      ADCON2
      000000B8H   SFRSYM    DATA     BYTE      IP
      000000D8H.5 SFRSYM    DATA     BIT       P5_5
      000000CEH   SFRSYM    DATA     BYTE      CCEN
      000000D8H.6 SFRSYM    DATA     BIT       P5_6
      000000D8H.7 SFRSYM    DATA     BIT       P5_7
      000000D0H.7 SFRSYM    DATA     BIT       CY
      000000D2H   SFRSYM    DATA     BYTE      T34MOD
      000000F4H   SFRSYM    DATA     BYTE      I2CMSA
      000000D7H   SFRSYM    DATA     BYTE      SCKSTAU
      000000F5H   SFRSYM    DATA     BYTE      I2CMCR
      00000081H   SFRSYM    DATA     BYTE      SP
      000000D0H.2 SFRSYM    DATA     BIT       OV
      000000F2H   SFRSYM    DATA     BYTE      I2CSCR
      000000D9H   SFRSYM    DATA     BYTE      ADCCHS
      000000C8H.7 SFRSYM    DATA     BIT       T2PS
      000000D1H   SFRSYM    DATA     BYTE      ADCMPC
      000000CBH   SFRSYM    DATA     BYTE      RLDH
      000000D5H   SFRSYM    DATA     BYTE      ADCMPH
      000000CAH   SFRSYM    DATA     BYTE      RLDL
      00000080H.0 SFRSYM    DATA     BIT       P00
      00000090H.0 SFRSYM    DATA     BIT       P10
      00000080H.1 SFRSYM    DATA     BIT       P01
      000000F7H   SFRSYM    DATA     BYTE      I2CMTP
      00000087H   SFRSYM    DATA     BYTE      PCON
      000000A0H.0 SFRSYM    DATA     BIT       P20
      00000090H.1 SFRSYM    DATA     BIT       P11
      00000080H.2 SFRSYM    DATA     BIT       P02
      000000F5H   SFRSYM    DATA     BYTE      I2CMSR
      000000A0H.1 SFRSYM    DATA     BIT       P21
      00000090H.2 SFRSYM    DATA     BIT       P12
      00000080H.3 SFRSYM    DATA     BIT       P03
      000000D4H   SFRSYM    DATA     BYTE      ADCMPL
      000000A0H.2 SFRSYM    DATA     BIT       P22
      00000090H.3 SFRSYM    DATA     BIT       P13
      00000080H.4 SFRSYM    DATA     BIT       P04
      000000D8H.0 SFRSYM    DATA     BIT       P50
      000000A0H.3 SFRSYM    DATA     BIT       P23
LX51 LINKER/LOCATER V4.66.93.0                                                        06/27/2023  19:17:35  PAGE 172


      00000090H.4 SFRSYM    DATA     BIT       P14
      00000080H.5 SFRSYM    DATA     BIT       P05
      00000089H   SFRSYM    DATA     BYTE      TMOD
      00000088H   SFRSYM    DATA     BYTE      TCON
      000000D8H.1 SFRSYM    DATA     BIT       P51
      00000090H.5 SFRSYM    DATA     BIT       P15
      00000080H.6 SFRSYM    DATA     BIT       P06
      000000FAH   SFRSYM    DATA     BYTE      PCRCDH
      000000D8H.2 SFRSYM    DATA     BIT       P52
      00000090H.6 SFRSYM    DATA     BIT       P16
      00000080H.7 SFRSYM    DATA     BIT       P07
      000000D8H.3 SFRSYM    DATA     BIT       P53
      00000090H.7 SFRSYM    DATA     BIT       P17
      000000F2H   SFRSYM    DATA     BYTE      I2CSSR
      000000D8H.4 SFRSYM    DATA     BIT       P54
      000000ECH   SFRSYM    DATA     BYTE      SPCR
      000000DDH   SFRSYM    DATA     BYTE      ADRESH
      000000D8H.5 SFRSYM    DATA     BIT       P55
      000000F9H   SFRSYM    DATA     BYTE      PCRCDL
      000000EEH   SFRSYM    DATA     BYTE      SPDR
      000000EFH   SFRSYM    DATA     BYTE      SSCR
      000000D3H   SFRSYM    DATA     BYTE      ADDLYL
      000000DCH   SFRSYM    DATA     BYTE      ADRESL
      00000088H.1 SFRSYM    DATA     BIT       IE0
      00000088H.3 SFRSYM    DATA     BIT       IE1
      0000008FH   SFRSYM    DATA     BYTE      CLKDIV
      000000F0H   SFRSYM    DATA     BYTE      B
      00000091H   SFRSYM    DATA     BYTE      FUNCCR
      0000009AH   SFRSYM    DATA     BYTE      P0TRIS
      000000A1H   SFRSYM    DATA     BYTE      P1TRIS
      000000A2H   SFRSYM    DATA     BYTE      P2TRIS
      000000E0H   SFRSYM    DATA     BYTE      ACC
      000000D6H   SFRSYM    DATA     BYTE      SCKSEL
      000000A8H.4 SFRSYM    DATA     BIT       ES0
      000000A8H.1 SFRSYM    DATA     BIT       ET0
      000000A8H.6 SFRSYM    DATA     BIT       ES1
      000000EDH   SFRSYM    DATA     BYTE      SPSR
      000000A5H   SFRSYM    DATA     BYTE      P5TRIS
      000000A8H.3 SFRSYM    DATA     BIT       ET1
      00000088H.5 SFRSYM    DATA     BIT       TF0
      000000A8H.5 SFRSYM    DATA     BIT       ET2
      00000098H.0 SFRSYM    DATA     BIT       RI0
      00000088H.7 SFRSYM    DATA     BIT       TF1
      0000008CH   SFRSYM    DATA     BYTE      TH0
      000000A8H.0 SFRSYM    DATA     BIT       EX0
      00000098H.1 SFRSYM    DATA     BIT       TI0
      00000088H.0 SFRSYM    DATA     BIT       IT0
      0000008DH   SFRSYM    DATA     BYTE      TH1
      000000A8H.2 SFRSYM    DATA     BIT       EX1
      00000088H.2 SFRSYM    DATA     BIT       IT1
      000000CDH   SFRSYM    DATA     BYTE      TH2
      000000D0H.0 SFRSYM    DATA     BIT       P
      000000DBH   SFRSYM    DATA     BYTE      TH3
      000000E3H   SFRSYM    DATA     BYTE      TH4
      0000008AH   SFRSYM    DATA     BYTE      TL0
      000000F0H.0 SFRSYM    DATA     BIT       B_0
      0000008BH   SFRSYM    DATA     BYTE      TL1
      000000F0H.1 SFRSYM    DATA     BIT       B_1
      00000098H.2 SFRSYM    DATA     BIT       U0RB8
      000000CCH   SFRSYM    DATA     BYTE      TL2
      000000F0H.2 SFRSYM    DATA     BIT       B_2
      000000B8H.4 SFRSYM    DATA     BIT       PS0
      000000DAH   SFRSYM    DATA     BYTE      TL3
      000000BFH   SFRSYM    DATA     BYTE      BUZCON
      000000F0H.3 SFRSYM    DATA     BIT       B_3
LX51 LINKER/LOCATER V4.66.93.0                                                        06/27/2023  19:17:35  PAGE 173


      000000B8H.1 SFRSYM    DATA     BIT       PT0
      000000B8H.6 SFRSYM    DATA     BIT       PS1
      00000098H.3 SFRSYM    DATA     BIT       U0TB8
      000000E2H   SFRSYM    DATA     BYTE      TL4
      000000F0H.4 SFRSYM    DATA     BIT       B_4
      000000D0H.3 SFRSYM    DATA     BIT       RS0
      000000B8H.3 SFRSYM    DATA     BIT       PT1
      000000F0H.5 SFRSYM    DATA     BIT       B_5
      000000D0H.4 SFRSYM    DATA     BIT       RS1
      000000B8H.5 SFRSYM    DATA     BIT       PT2
      00000098H.7 SFRSYM    DATA     BIT       U0SM0
      00000088H.4 SFRSYM    DATA     BIT       TR0
      000000BEH   SFRSYM    DATA     BYTE      BUZDIV
      000000F0H.6 SFRSYM    DATA     BIT       B_6
      000000E0H.0 SFRSYM    DATA     BIT       ACC_0
      00000098H.6 SFRSYM    DATA     BIT       U0SM1
      00000088H.6 SFRSYM    DATA     BIT       TR1
      000000F0H.7 SFRSYM    DATA     BIT       B_7
      000000E0H.1 SFRSYM    DATA     BIT       ACC_1
      000000B8H.0 SFRSYM    DATA     BIT       PX0
      00000098H.5 SFRSYM    DATA     BIT       U0SM2
      000000E0H.2 SFRSYM    DATA     BIT       ACC_2
      000000B8H.2 SFRSYM    DATA     BIT       PX1
      000000E0H.3 SFRSYM    DATA     BIT       ACC_3
      000000E0H.4 SFRSYM    DATA     BIT       ACC_4
      000000E0H.5 SFRSYM    DATA     BIT       ACC_5
      000000E0H.6 SFRSYM    DATA     BIT       ACC_6
      000000E0H.7 SFRSYM    DATA     BIT       ACC_7
      000000BDH   SFRSYM    DATA     BYTE      WUTCRH
      00000099H   SFRSYM    DATA     BYTE      SBUF0
      000000EBH   SFRSYM    DATA     BYTE      SBUF1
      000000BCH   SFRSYM    DATA     BYTE      WUTCRL
      00000098H   SFRSYM    DATA     BYTE      SCON0
      000000EAH   SFRSYM    DATA     BYTE      SCON1
      000000C8H   SFRSYM    DATA     BYTE      T2CON
      00000086H   SFRSYM    DATA     BYTE      DPS
      000000FEH   SFRSYM    DATA     BYTE      MDATA
      000000F6H   SFRSYM    DATA     BYTE      I2CMBUF
      000000F1H   SFRSYM    DATA     BYTE      I2CSADR
      00000098H.4 SFRSYM    DATA     BIT       U0REN
      000000C8H.5 SFRSYM    DATA     BIT       CAPES
      000000FDH   SFRSYM    DATA     BYTE      MADRH
      0000008EH   SFRSYM    DATA     BYTE      CKCON
      000000F3H   SFRSYM    DATA     BYTE      I2CSBUF
      000000FCH   SFRSYM    DATA     BYTE      MADRL
      000000D0H.5 SFRSYM    DATA     BIT       F0
      000000FBH   SFRSYM    DATA     BYTE      MLOCK
      000000D0H   SFRSYM    DATA     BYTE      PSW
      00000097H   SFRSYM    DATA     BYTE      WDCON

      01002E4CH   BLOCK     CODE     ---       LVL=0
      00000007H   SYMBOL    DATA     BYTE      mode
      01002E4CH   LINE      CODE     ---       #13
      01002E4CH   LINE      CODE     ---       #14
      01002E4CH   LINE      CODE     ---       #15
      01002E4FH   LINE      CODE     ---       #16
      01002E52H   LINE      CODE     ---       #17
      01002E54H   LINE      CODE     ---       #18
      ---         BLOCKEND  ---      ---       LVL=0

      01002E7FH   BLOCK     CODE     ---       LVL=0
      01002E7FH   LINE      CODE     ---       #23
      01002E7FH   LINE      CODE     ---       #24
      01002E7FH   LINE      CODE     ---       #25
      01002E82H   LINE      CODE     ---       #26
LX51 LINKER/LOCATER V4.66.93.0                                                        06/27/2023  19:17:35  PAGE 174


      01002E85H   LINE      CODE     ---       #27
      ---         BLOCKEND  ---      ---       LVL=0

      01002E86H   BLOCK     CODE     ---       LVL=0
      0000000DH   SYMBOL    DATA     WORD      value
      01002E86H   LINE      CODE     ---       #33
      01002E8AH   LINE      CODE     ---       #34
      01002E8AH   LINE      CODE     ---       #35
      01002E8AH   LINE      CODE     ---       #36
      01002E8CH   LINE      CODE     ---       #37
      ---         BLOCKEND  ---      ---       LVL=0

      01000086H   BLOCK     CODE     ---       LVL=0
      00000008H   SYMBOL    DATA     BYTE      Msg
      00000009H   SYMBOL    DATA     WORD      MsgValue
      0100008CH   BLOCK     CODE     NEAR LAB  LVL=1
      00000007H   SYMBOL    DATA     BYTE      retCode
      ---         BLOCKEND  ---      ---       LVL=1
      01000086H   LINE      CODE     ---       #41
      0100008CH   LINE      CODE     ---       #42
      0100008CH   LINE      CODE     ---       #43
      0100008CH   LINE      CODE     ---       #45
      0100009BH   LINE      CODE     ---       #46
      0100009BH   LINE      CODE     ---       #47
      0100009BH   LINE      CODE     ---       #48
      010000A4H   LINE      CODE     ---       #49
      010000A6H   LINE      CODE     ---       #50
      010000A6H   LINE      CODE     ---       #51
      010000AFH   LINE      CODE     ---       #52
      010000B1H   LINE      CODE     ---       #53
      010000B1H   LINE      CODE     ---       #54
      010000BAH   LINE      CODE     ---       #55
      010000BCH   LINE      CODE     ---       #56
      010000BCH   LINE      CODE     ---       #57
      010000C5H   LINE      CODE     ---       #58
      010000C7H   LINE      CODE     ---       #60
      010000C7H   LINE      CODE     ---       #61
      010000CAH   LINE      CODE     ---       #62
      010000CAH   LINE      CODE     ---       #65
      010000CFH   LINE      CODE     ---       #66
      010000CFH   LINE      CODE     ---       #67
      010000D8H   LINE      CODE     ---       #68
      010000D8H   LINE      CODE     ---       #70
      010000D8H   LINE      CODE     ---       #71
      ---         BLOCKEND  ---      ---       LVL=0

      ---         MODULE    ---      ---       SUBPROG
      01002875H   PUBLIC    CODE     ---       _sub_getchecksum_u16
      00000010H   PUBLIC    DATA     BYTE      ?_sub_memset?BYTE
      01002AD1H   PUBLIC    CODE     ---       _sub_memset
      000000C8H.0 SFRSYM    DATA     BIT       T2I0
      000000C3H   SFRSYM    DATA     BYTE      CCH1
      00000080H   SFRSYM    DATA     BYTE      P0
      000000C8H.1 SFRSYM    DATA     BIT       T2I1
      000000C5H   SFRSYM    DATA     BYTE      CCH2
      00000090H   SFRSYM    DATA     BYTE      P1
      000000C7H   SFRSYM    DATA     BYTE      CCH3
      000000ACH   SFRSYM    DATA     BYTE      P0EXTIE
      000000A0H   SFRSYM    DATA     BYTE      P2
      000000B4H   SFRSYM    DATA     BYTE      P0EXTIF
      000000ADH   SFRSYM    DATA     BYTE      P1EXTIE
      000000D0H.6 SFRSYM    DATA     BIT       AC
      000000FFH   SFRSYM    DATA     BYTE      MCTRL
      000000C2H   SFRSYM    DATA     BYTE      CCL1
      000000B5H   SFRSYM    DATA     BYTE      P1EXTIF
LX51 LINKER/LOCATER V4.66.93.0                                                        06/27/2023  19:17:35  PAGE 175


      000000AEH   SFRSYM    DATA     BYTE      P2EXTIE
      000000D8H   SFRSYM    DATA     BYTE      P5
      000000C4H   SFRSYM    DATA     BYTE      CCL2
      000000B6H   SFRSYM    DATA     BYTE      P2EXTIF
      000000A8H.7 SFRSYM    DATA     BIT       EA
      000000C6H   SFRSYM    DATA     BYTE      CCL3
      000000AAH   SFRSYM    DATA     BYTE      EIE2
      000000B2H   SFRSYM    DATA     BYTE      EIF2
      0000009CH   SFRSYM    DATA     BYTE      P5EXTIE
      000000A7H   SFRSYM    DATA     BYTE      P5EXTIF
      000000C8H.3 SFRSYM    DATA     BIT       T2R0
      000000C8H.4 SFRSYM    DATA     BIT       T2R1
      00000083H   SFRSYM    DATA     BYTE      DPH0
      000000A8H   SFRSYM    DATA     BYTE      IE
      00000085H   SFRSYM    DATA     BYTE      DPH1
      00000080H.0 SFRSYM    DATA     BIT       P0_0
      000000B9H   SFRSYM    DATA     BYTE      EIP1
      00000090H.0 SFRSYM    DATA     BIT       P1_0
      00000080H.1 SFRSYM    DATA     BIT       P0_1
      000000BAH   SFRSYM    DATA     BYTE      EIP2
      00000082H   SFRSYM    DATA     BYTE      DPL0
      000000A0H.0 SFRSYM    DATA     BIT       P2_0
      00000090H.1 SFRSYM    DATA     BIT       P1_1
      00000080H.2 SFRSYM    DATA     BIT       P0_2
      000000BBH   SFRSYM    DATA     BYTE      EIP3
      00000084H   SFRSYM    DATA     BYTE      DPL1
      000000A0H.1 SFRSYM    DATA     BIT       P2_1
      00000090H.2 SFRSYM    DATA     BIT       P1_2
      00000080H.3 SFRSYM    DATA     BIT       P0_3
      000000A0H.2 SFRSYM    DATA     BIT       P2_2
      00000090H.3 SFRSYM    DATA     BIT       P1_3
      00000080H.4 SFRSYM    DATA     BIT       P0_4
      000000D8H.0 SFRSYM    DATA     BIT       P5_0
      000000C8H.6 SFRSYM    DATA     BIT       I3FR
      000000A0H.3 SFRSYM    DATA     BIT       P2_3
      00000090H.4 SFRSYM    DATA     BIT       P1_4
      00000080H.5 SFRSYM    DATA     BIT       P0_5
      000000CFH   SFRSYM    DATA     BYTE      T2IE
      00000096H   SFRSYM    DATA     BYTE      TA
      000000D8H.1 SFRSYM    DATA     BIT       P5_1
      000000A0H.4 SFRSYM    DATA     BIT       P2_4
      00000090H.5 SFRSYM    DATA     BIT       P1_5
      00000080H.6 SFRSYM    DATA     BIT       P0_6
      000000C9H   SFRSYM    DATA     BYTE      T2IF
      000000D8H.2 SFRSYM    DATA     BIT       P5_2
      000000C8H.2 SFRSYM    DATA     BIT       T2CM
      000000A0H.5 SFRSYM    DATA     BIT       P2_5
      00000090H.6 SFRSYM    DATA     BIT       P1_6
      00000080H.7 SFRSYM    DATA     BIT       P0_7
      000000DFH   SFRSYM    DATA     BYTE      ADCON0
      000000D8H.3 SFRSYM    DATA     BIT       P5_3
      000000A0H.6 SFRSYM    DATA     BIT       P2_6
      00000090H.7 SFRSYM    DATA     BIT       P1_7
      000000DEH   SFRSYM    DATA     BYTE      ADCON1
      000000D8H.4 SFRSYM    DATA     BIT       P5_4
      000000A0H.7 SFRSYM    DATA     BIT       P2_7
      000000E9H   SFRSYM    DATA     BYTE      ADCON2
      000000B8H   SFRSYM    DATA     BYTE      IP
      000000D8H.5 SFRSYM    DATA     BIT       P5_5
      000000CEH   SFRSYM    DATA     BYTE      CCEN
      000000D8H.6 SFRSYM    DATA     BIT       P5_6
      000000D8H.7 SFRSYM    DATA     BIT       P5_7
      000000D0H.7 SFRSYM    DATA     BIT       CY
      000000D2H   SFRSYM    DATA     BYTE      T34MOD
      000000F4H   SFRSYM    DATA     BYTE      I2CMSA
LX51 LINKER/LOCATER V4.66.93.0                                                        06/27/2023  19:17:35  PAGE 176


      000000D7H   SFRSYM    DATA     BYTE      SCKSTAU
      000000F5H   SFRSYM    DATA     BYTE      I2CMCR
      00000081H   SFRSYM    DATA     BYTE      SP
      000000D0H.2 SFRSYM    DATA     BIT       OV
      000000F2H   SFRSYM    DATA     BYTE      I2CSCR
      000000D9H   SFRSYM    DATA     BYTE      ADCCHS
      000000C8H.7 SFRSYM    DATA     BIT       T2PS
      000000D1H   SFRSYM    DATA     BYTE      ADCMPC
      000000CBH   SFRSYM    DATA     BYTE      RLDH
      000000D5H   SFRSYM    DATA     BYTE      ADCMPH
      000000CAH   SFRSYM    DATA     BYTE      RLDL
      00000080H.0 SFRSYM    DATA     BIT       P00
      00000090H.0 SFRSYM    DATA     BIT       P10
      00000080H.1 SFRSYM    DATA     BIT       P01
      000000F7H   SFRSYM    DATA     BYTE      I2CMTP
      00000087H   SFRSYM    DATA     BYTE      PCON
      000000A0H.0 SFRSYM    DATA     BIT       P20
      00000090H.1 SFRSYM    DATA     BIT       P11
      00000080H.2 SFRSYM    DATA     BIT       P02
      000000F5H   SFRSYM    DATA     BYTE      I2CMSR
      000000A0H.1 SFRSYM    DATA     BIT       P21
      00000090H.2 SFRSYM    DATA     BIT       P12
      00000080H.3 SFRSYM    DATA     BIT       P03
      000000D4H   SFRSYM    DATA     BYTE      ADCMPL
      000000A0H.2 SFRSYM    DATA     BIT       P22
      00000090H.3 SFRSYM    DATA     BIT       P13
      00000080H.4 SFRSYM    DATA     BIT       P04
      000000D8H.0 SFRSYM    DATA     BIT       P50
      000000A0H.3 SFRSYM    DATA     BIT       P23
      00000090H.4 SFRSYM    DATA     BIT       P14
      00000080H.5 SFRSYM    DATA     BIT       P05
      00000089H   SFRSYM    DATA     BYTE      TMOD
      00000088H   SFRSYM    DATA     BYTE      TCON
      000000D8H.1 SFRSYM    DATA     BIT       P51
      00000090H.5 SFRSYM    DATA     BIT       P15
      00000080H.6 SFRSYM    DATA     BIT       P06
      000000FAH   SFRSYM    DATA     BYTE      PCRCDH
      000000D8H.2 SFRSYM    DATA     BIT       P52
      00000090H.6 SFRSYM    DATA     BIT       P16
      00000080H.7 SFRSYM    DATA     BIT       P07
      000000D8H.3 SFRSYM    DATA     BIT       P53
      00000090H.7 SFRSYM    DATA     BIT       P17
      000000F2H   SFRSYM    DATA     BYTE      I2CSSR
      000000D8H.4 SFRSYM    DATA     BIT       P54
      000000ECH   SFRSYM    DATA     BYTE      SPCR
      000000DDH   SFRSYM    DATA     BYTE      ADRESH
      000000D8H.5 SFRSYM    DATA     BIT       P55
      000000F9H   SFRSYM    DATA     BYTE      PCRCDL
      000000EEH   SFRSYM    DATA     BYTE      SPDR
      000000EFH   SFRSYM    DATA     BYTE      SSCR
      000000D3H   SFRSYM    DATA     BYTE      ADDLYL
      000000DCH   SFRSYM    DATA     BYTE      ADRESL
      00000088H.1 SFRSYM    DATA     BIT       IE0
      00000088H.3 SFRSYM    DATA     BIT       IE1
      0000008FH   SFRSYM    DATA     BYTE      CLKDIV
      000000F0H   SFRSYM    DATA     BYTE      B
      00000091H   SFRSYM    DATA     BYTE      FUNCCR
      0000009AH   SFRSYM    DATA     BYTE      P0TRIS
      000000A1H   SFRSYM    DATA     BYTE      P1TRIS
      000000A2H   SFRSYM    DATA     BYTE      P2TRIS
      000000E0H   SFRSYM    DATA     BYTE      ACC
      000000D6H   SFRSYM    DATA     BYTE      SCKSEL
      000000A8H.4 SFRSYM    DATA     BIT       ES0
      000000A8H.1 SFRSYM    DATA     BIT       ET0
      000000A8H.6 SFRSYM    DATA     BIT       ES1
LX51 LINKER/LOCATER V4.66.93.0                                                        06/27/2023  19:17:35  PAGE 177


      000000EDH   SFRSYM    DATA     BYTE      SPSR
      000000A5H   SFRSYM    DATA     BYTE      P5TRIS
      000000A8H.3 SFRSYM    DATA     BIT       ET1
      00000088H.5 SFRSYM    DATA     BIT       TF0
      000000A8H.5 SFRSYM    DATA     BIT       ET2
      00000098H.0 SFRSYM    DATA     BIT       RI0
      00000088H.7 SFRSYM    DATA     BIT       TF1
      0000008CH   SFRSYM    DATA     BYTE      TH0
      000000A8H.0 SFRSYM    DATA     BIT       EX0
      00000098H.1 SFRSYM    DATA     BIT       TI0
      00000088H.0 SFRSYM    DATA     BIT       IT0
      0000008DH   SFRSYM    DATA     BYTE      TH1
      000000A8H.2 SFRSYM    DATA     BIT       EX1
      00000088H.2 SFRSYM    DATA     BIT       IT1
      000000CDH   SFRSYM    DATA     BYTE      TH2
      000000D0H.0 SFRSYM    DATA     BIT       P
      000000DBH   SFRSYM    DATA     BYTE      TH3
      000000E3H   SFRSYM    DATA     BYTE      TH4
      0000008AH   SFRSYM    DATA     BYTE      TL0
      000000F0H.0 SFRSYM    DATA     BIT       B_0
      0000008BH   SFRSYM    DATA     BYTE      TL1
      000000F0H.1 SFRSYM    DATA     BIT       B_1
      00000098H.2 SFRSYM    DATA     BIT       U0RB8
      000000CCH   SFRSYM    DATA     BYTE      TL2
      000000F0H.2 SFRSYM    DATA     BIT       B_2
      000000B8H.4 SFRSYM    DATA     BIT       PS0
      000000DAH   SFRSYM    DATA     BYTE      TL3
      000000BFH   SFRSYM    DATA     BYTE      BUZCON
      000000F0H.3 SFRSYM    DATA     BIT       B_3
      000000B8H.1 SFRSYM    DATA     BIT       PT0
      000000B8H.6 SFRSYM    DATA     BIT       PS1
      00000098H.3 SFRSYM    DATA     BIT       U0TB8
      000000E2H   SFRSYM    DATA     BYTE      TL4
      000000F0H.4 SFRSYM    DATA     BIT       B_4
      000000D0H.3 SFRSYM    DATA     BIT       RS0
      000000B8H.3 SFRSYM    DATA     BIT       PT1
      000000F0H.5 SFRSYM    DATA     BIT       B_5
      000000D0H.4 SFRSYM    DATA     BIT       RS1
      000000B8H.5 SFRSYM    DATA     BIT       PT2
      00000098H.7 SFRSYM    DATA     BIT       U0SM0
      00000088H.4 SFRSYM    DATA     BIT       TR0
      000000BEH   SFRSYM    DATA     BYTE      BUZDIV
      000000F0H.6 SFRSYM    DATA     BIT       B_6
      000000E0H.0 SFRSYM    DATA     BIT       ACC_0
      00000098H.6 SFRSYM    DATA     BIT       U0SM1
      00000088H.6 SFRSYM    DATA     BIT       TR1
      000000F0H.7 SFRSYM    DATA     BIT       B_7
      000000E0H.1 SFRSYM    DATA     BIT       ACC_1
      000000B8H.0 SFRSYM    DATA     BIT       PX0
      00000098H.5 SFRSYM    DATA     BIT       U0SM2
      000000E0H.2 SFRSYM    DATA     BIT       ACC_2
      000000B8H.2 SFRSYM    DATA     BIT       PX1
      000000E0H.3 SFRSYM    DATA     BIT       ACC_3
      000000E0H.4 SFRSYM    DATA     BIT       ACC_4
      000000E0H.5 SFRSYM    DATA     BIT       ACC_5
      000000E0H.6 SFRSYM    DATA     BIT       ACC_6
      000000E0H.7 SFRSYM    DATA     BIT       ACC_7
      000000BDH   SFRSYM    DATA     BYTE      WUTCRH
      00000099H   SFRSYM    DATA     BYTE      SBUF0
      000000EBH   SFRSYM    DATA     BYTE      SBUF1
      000000BCH   SFRSYM    DATA     BYTE      WUTCRL
      00000098H   SFRSYM    DATA     BYTE      SCON0
      000000EAH   SFRSYM    DATA     BYTE      SCON1
      000000C8H   SFRSYM    DATA     BYTE      T2CON
      00000086H   SFRSYM    DATA     BYTE      DPS
LX51 LINKER/LOCATER V4.66.93.0                                                        06/27/2023  19:17:35  PAGE 178


      000000FEH   SFRSYM    DATA     BYTE      MDATA
      000000F6H   SFRSYM    DATA     BYTE      I2CMBUF
      000000F1H   SFRSYM    DATA     BYTE      I2CSADR
      00000098H.4 SFRSYM    DATA     BIT       U0REN
      000000C8H.5 SFRSYM    DATA     BIT       CAPES
      000000FDH   SFRSYM    DATA     BYTE      MADRH
      0000008EH   SFRSYM    DATA     BYTE      CKCON
      000000F3H   SFRSYM    DATA     BYTE      I2CSBUF
      000000FCH   SFRSYM    DATA     BYTE      MADRL
      000000D0H.5 SFRSYM    DATA     BIT       F0
      000000FBH   SFRSYM    DATA     BYTE      MLOCK
      000000D0H   SFRSYM    DATA     BYTE      PSW
      00000097H   SFRSYM    DATA     BYTE      WDCON

      01002AD1H   BLOCK     CODE     ---       LVL=0
      00000010H   SYMBOL    DATA     ---       buf
      00000005H   SYMBOL    DATA     BYTE      ch
      00000014H   SYMBOL    DATA     WORD      len
      01002AD7H   BLOCK     CODE     NEAR LAB  LVL=1
      00000006H   SYMBOL    DATA     WORD      i
      ---         BLOCKEND  ---      ---       LVL=1
      01002AD1H   LINE      CODE     ---       #6
      01002AD7H   LINE      CODE     ---       #7
      01002AD7H   LINE      CODE     ---       #9
      01002AE3H   LINE      CODE     ---       #10
      01002AF8H   LINE      CODE     ---       #11
      ---         BLOCKEND  ---      ---       LVL=0
      00000006H   SYMBOL    DATA     WORD      i
      00000006H   SYMBOL    DATA     WORD      i

      01002875H   BLOCK     CODE     ---       LVL=0
      00000010H   SYMBOL    DATA     ---       buf
      00000013H   SYMBOL    DATA     WORD      len
      0100287FH   BLOCK     CODE     NEAR LAB  LVL=1
      00000006H   SYMBOL    DATA     WORD      i
      00000015H   SYMBOL    DATA     WORD      sum
      ---         BLOCKEND  ---      ---       LVL=1
      01002875H   LINE      CODE     ---       #46
      0100287FH   LINE      CODE     ---       #47
      0100287FH   LINE      CODE     ---       #51
      01002884H   LINE      CODE     ---       #52
      0100288FH   LINE      CODE     ---       #53
      010028ACH   LINE      CODE     ---       #55
      010028B0H   LINE      CODE     ---       #56
      ---         BLOCKEND  ---      ---       LVL=0
      00000004H   SYMBOL    DATA     WORD      iData
      00000002H   SYMBOL    DATA     WORD      tmpL
      00000006H   SYMBOL    DATA     WORD      tmpH
      00000007H   SYMBOL    DATA     BYTE      nResult
      00000007H   SYMBOL    DATA     BYTE      len
      00000007H   SYMBOL    DATA     BYTE      len
      00000006H   SYMBOL    DATA     BYTE      i
      00000007H   SYMBOL    DATA     BYTE      len
      00000007H   SYMBOL    DATA     BYTE      len
      00000006H   SYMBOL    DATA     BYTE      len1
      00000006H   SYMBOL    DATA     INT       len
      00000001H   SYMBOL    DATA     ---       str
      00000005H   SYMBOL    DATA     CHAR      ch

      ---         MODULE    ---      ---       BUZZER_DRV
      00000022H.6 PUBLIC    BIT      BIT       bBuzzerOn
      0100136FH   PUBLIC    CODE     ---       Buzzer_Run_Task
      01001D69H   PUBLIC    CODE     ---       _SetBuzzerRunTime
      01002C25H   PUBLIC    CODE     ---       Buzzer_Init
      01002DDEH   PUBLIC    CODE     ---       BUZZER_Config
LX51 LINKER/LOCATER V4.66.93.0                                                        06/27/2023  19:17:35  PAGE 179


      000000C8H.0 SFRSYM    DATA     BIT       T2I0
      000000C3H   SFRSYM    DATA     BYTE      CCH1
      00000080H   SFRSYM    DATA     BYTE      P0
      000000C8H.1 SFRSYM    DATA     BIT       T2I1
      000000C5H   SFRSYM    DATA     BYTE      CCH2
      00000090H   SFRSYM    DATA     BYTE      P1
      000000C7H   SFRSYM    DATA     BYTE      CCH3
      000000ACH   SFRSYM    DATA     BYTE      P0EXTIE
      000000A0H   SFRSYM    DATA     BYTE      P2
      000000B4H   SFRSYM    DATA     BYTE      P0EXTIF
      000000ADH   SFRSYM    DATA     BYTE      P1EXTIE
      000000D0H.6 SFRSYM    DATA     BIT       AC
      000000FFH   SFRSYM    DATA     BYTE      MCTRL
      000000C2H   SFRSYM    DATA     BYTE      CCL1
      000000B5H   SFRSYM    DATA     BYTE      P1EXTIF
      000000AEH   SFRSYM    DATA     BYTE      P2EXTIE
      000000D8H   SFRSYM    DATA     BYTE      P5
      000000C4H   SFRSYM    DATA     BYTE      CCL2
      000000B6H   SFRSYM    DATA     BYTE      P2EXTIF
      000000A8H.7 SFRSYM    DATA     BIT       EA
      000000C6H   SFRSYM    DATA     BYTE      CCL3
      000000AAH   SFRSYM    DATA     BYTE      EIE2
      000000B2H   SFRSYM    DATA     BYTE      EIF2
      0000009CH   SFRSYM    DATA     BYTE      P5EXTIE
      000000A7H   SFRSYM    DATA     BYTE      P5EXTIF
      000000C8H.3 SFRSYM    DATA     BIT       T2R0
      000000C8H.4 SFRSYM    DATA     BIT       T2R1
      00000083H   SFRSYM    DATA     BYTE      DPH0
      000000A8H   SFRSYM    DATA     BYTE      IE
      00000085H   SFRSYM    DATA     BYTE      DPH1
      00000080H.0 SFRSYM    DATA     BIT       P0_0
      000000B9H   SFRSYM    DATA     BYTE      EIP1
      00000090H.0 SFRSYM    DATA     BIT       P1_0
      00000080H.1 SFRSYM    DATA     BIT       P0_1
      000000BAH   SFRSYM    DATA     BYTE      EIP2
      00000082H   SFRSYM    DATA     BYTE      DPL0
      000000A0H.0 SFRSYM    DATA     BIT       P2_0
      00000090H.1 SFRSYM    DATA     BIT       P1_1
      00000080H.2 SFRSYM    DATA     BIT       P0_2
      000000BBH   SFRSYM    DATA     BYTE      EIP3
      00000084H   SFRSYM    DATA     BYTE      DPL1
      000000A0H.1 SFRSYM    DATA     BIT       P2_1
      00000090H.2 SFRSYM    DATA     BIT       P1_2
      00000080H.3 SFRSYM    DATA     BIT       P0_3
      000000A0H.2 SFRSYM    DATA     BIT       P2_2
      00000090H.3 SFRSYM    DATA     BIT       P1_3
      00000080H.4 SFRSYM    DATA     BIT       P0_4
      000000D8H.0 SFRSYM    DATA     BIT       P5_0
      000000C8H.6 SFRSYM    DATA     BIT       I3FR
      000000A0H.3 SFRSYM    DATA     BIT       P2_3
      00000090H.4 SFRSYM    DATA     BIT       P1_4
      00000080H.5 SFRSYM    DATA     BIT       P0_5
      000000CFH   SFRSYM    DATA     BYTE      T2IE
      00000096H   SFRSYM    DATA     BYTE      TA
      000000D8H.1 SFRSYM    DATA     BIT       P5_1
      000000A0H.4 SFRSYM    DATA     BIT       P2_4
      00000090H.5 SFRSYM    DATA     BIT       P1_5
      00000080H.6 SFRSYM    DATA     BIT       P0_6
      000000C9H   SFRSYM    DATA     BYTE      T2IF
      000000D8H.2 SFRSYM    DATA     BIT       P5_2
      000000C8H.2 SFRSYM    DATA     BIT       T2CM
      000000A0H.5 SFRSYM    DATA     BIT       P2_5
      00000090H.6 SFRSYM    DATA     BIT       P1_6
      00000080H.7 SFRSYM    DATA     BIT       P0_7
      000000DFH   SFRSYM    DATA     BYTE      ADCON0
LX51 LINKER/LOCATER V4.66.93.0                                                        06/27/2023  19:17:35  PAGE 180


      000000D8H.3 SFRSYM    DATA     BIT       P5_3
      000000A0H.6 SFRSYM    DATA     BIT       P2_6
      00000090H.7 SFRSYM    DATA     BIT       P1_7
      000000DEH   SFRSYM    DATA     BYTE      ADCON1
      000000D8H.4 SFRSYM    DATA     BIT       P5_4
      000000A0H.7 SFRSYM    DATA     BIT       P2_7
      000000E9H   SFRSYM    DATA     BYTE      ADCON2
      000000B8H   SFRSYM    DATA     BYTE      IP
      000000D8H.5 SFRSYM    DATA     BIT       P5_5
      000000CEH   SFRSYM    DATA     BYTE      CCEN
      000000D8H.6 SFRSYM    DATA     BIT       P5_6
      000000D8H.7 SFRSYM    DATA     BIT       P5_7
      000000D0H.7 SFRSYM    DATA     BIT       CY
      000000D2H   SFRSYM    DATA     BYTE      T34MOD
      000000F4H   SFRSYM    DATA     BYTE      I2CMSA
      000000D7H   SFRSYM    DATA     BYTE      SCKSTAU
      000000F5H   SFRSYM    DATA     BYTE      I2CMCR
      00000081H   SFRSYM    DATA     BYTE      SP
      000000D0H.2 SFRSYM    DATA     BIT       OV
      000000F2H   SFRSYM    DATA     BYTE      I2CSCR
      000000D9H   SFRSYM    DATA     BYTE      ADCCHS
      000000C8H.7 SFRSYM    DATA     BIT       T2PS
      000000D1H   SFRSYM    DATA     BYTE      ADCMPC
      000000CBH   SFRSYM    DATA     BYTE      RLDH
      000000D5H   SFRSYM    DATA     BYTE      ADCMPH
      000000CAH   SFRSYM    DATA     BYTE      RLDL
      00000080H.0 SFRSYM    DATA     BIT       P00
      00000090H.0 SFRSYM    DATA     BIT       P10
      00000080H.1 SFRSYM    DATA     BIT       P01
      000000F7H   SFRSYM    DATA     BYTE      I2CMTP
      00000087H   SFRSYM    DATA     BYTE      PCON
      000000A0H.0 SFRSYM    DATA     BIT       P20
      00000090H.1 SFRSYM    DATA     BIT       P11
      00000080H.2 SFRSYM    DATA     BIT       P02
      000000F5H   SFRSYM    DATA     BYTE      I2CMSR
      000000A0H.1 SFRSYM    DATA     BIT       P21
      00000090H.2 SFRSYM    DATA     BIT       P12
      00000080H.3 SFRSYM    DATA     BIT       P03
      000000D4H   SFRSYM    DATA     BYTE      ADCMPL
      000000A0H.2 SFRSYM    DATA     BIT       P22
      00000090H.3 SFRSYM    DATA     BIT       P13
      00000080H.4 SFRSYM    DATA     BIT       P04
      000000D8H.0 SFRSYM    DATA     BIT       P50
      000000A0H.3 SFRSYM    DATA     BIT       P23
      00000090H.4 SFRSYM    DATA     BIT       P14
      00000080H.5 SFRSYM    DATA     BIT       P05
      00000089H   SFRSYM    DATA     BYTE      TMOD
      00000088H   SFRSYM    DATA     BYTE      TCON
      000000D8H.1 SFRSYM    DATA     BIT       P51
      00000090H.5 SFRSYM    DATA     BIT       P15
      00000080H.6 SFRSYM    DATA     BIT       P06
      000000FAH   SFRSYM    DATA     BYTE      PCRCDH
      000000D8H.2 SFRSYM    DATA     BIT       P52
      00000090H.6 SFRSYM    DATA     BIT       P16
      00000080H.7 SFRSYM    DATA     BIT       P07
      000000D8H.3 SFRSYM    DATA     BIT       P53
      00000090H.7 SFRSYM    DATA     BIT       P17
      000000F2H   SFRSYM    DATA     BYTE      I2CSSR
      000000D8H.4 SFRSYM    DATA     BIT       P54
      000000ECH   SFRSYM    DATA     BYTE      SPCR
      000000DDH   SFRSYM    DATA     BYTE      ADRESH
      000000D8H.5 SFRSYM    DATA     BIT       P55
      000000F9H   SFRSYM    DATA     BYTE      PCRCDL
      000000EEH   SFRSYM    DATA     BYTE      SPDR
      000000EFH   SFRSYM    DATA     BYTE      SSCR
LX51 LINKER/LOCATER V4.66.93.0                                                        06/27/2023  19:17:35  PAGE 181


      000000D3H   SFRSYM    DATA     BYTE      ADDLYL
      000000DCH   SFRSYM    DATA     BYTE      ADRESL
      00000088H.1 SFRSYM    DATA     BIT       IE0
      00000088H.3 SFRSYM    DATA     BIT       IE1
      0000008FH   SFRSYM    DATA     BYTE      CLKDIV
      000000F0H   SFRSYM    DATA     BYTE      B
      00000091H   SFRSYM    DATA     BYTE      FUNCCR
      0000009AH   SFRSYM    DATA     BYTE      P0TRIS
      000000A1H   SFRSYM    DATA     BYTE      P1TRIS
      000000A2H   SFRSYM    DATA     BYTE      P2TRIS
      000000E0H   SFRSYM    DATA     BYTE      ACC
      000000D6H   SFRSYM    DATA     BYTE      SCKSEL
      000000A8H.4 SFRSYM    DATA     BIT       ES0
      000000A8H.1 SFRSYM    DATA     BIT       ET0
      000000A8H.6 SFRSYM    DATA     BIT       ES1
      000000EDH   SFRSYM    DATA     BYTE      SPSR
      000000A5H   SFRSYM    DATA     BYTE      P5TRIS
      000000A8H.3 SFRSYM    DATA     BIT       ET1
      00000088H.5 SFRSYM    DATA     BIT       TF0
      000000A8H.5 SFRSYM    DATA     BIT       ET2
      00000098H.0 SFRSYM    DATA     BIT       RI0
      00000088H.7 SFRSYM    DATA     BIT       TF1
      0000008CH   SFRSYM    DATA     BYTE      TH0
      000000A8H.0 SFRSYM    DATA     BIT       EX0
      00000098H.1 SFRSYM    DATA     BIT       TI0
      00000088H.0 SFRSYM    DATA     BIT       IT0
      0000008DH   SFRSYM    DATA     BYTE      TH1
      000000A8H.2 SFRSYM    DATA     BIT       EX1
      00000088H.2 SFRSYM    DATA     BIT       IT1
      000000CDH   SFRSYM    DATA     BYTE      TH2
      000000D0H.0 SFRSYM    DATA     BIT       P
      000000DBH   SFRSYM    DATA     BYTE      TH3
      000000E3H   SFRSYM    DATA     BYTE      TH4
      0000008AH   SFRSYM    DATA     BYTE      TL0
      000000F0H.0 SFRSYM    DATA     BIT       B_0
      0000008BH   SFRSYM    DATA     BYTE      TL1
      000000F0H.1 SFRSYM    DATA     BIT       B_1
      00000098H.2 SFRSYM    DATA     BIT       U0RB8
      000000CCH   SFRSYM    DATA     BYTE      TL2
      000000F0H.2 SFRSYM    DATA     BIT       B_2
      000000B8H.4 SFRSYM    DATA     BIT       PS0
      000000DAH   SFRSYM    DATA     BYTE      TL3
      000000BFH   SFRSYM    DATA     BYTE      BUZCON
      000000F0H.3 SFRSYM    DATA     BIT       B_3
      000000B8H.1 SFRSYM    DATA     BIT       PT0
      000000B8H.6 SFRSYM    DATA     BIT       PS1
      00000098H.3 SFRSYM    DATA     BIT       U0TB8
      000000E2H   SFRSYM    DATA     BYTE      TL4
      000000F0H.4 SFRSYM    DATA     BIT       B_4
      000000D0H.3 SFRSYM    DATA     BIT       RS0
      000000B8H.3 SFRSYM    DATA     BIT       PT1
      000000F0H.5 SFRSYM    DATA     BIT       B_5
      000000D0H.4 SFRSYM    DATA     BIT       RS1
      000000B8H.5 SFRSYM    DATA     BIT       PT2
      00000098H.7 SFRSYM    DATA     BIT       U0SM0
      00000088H.4 SFRSYM    DATA     BIT       TR0
      000000BEH   SFRSYM    DATA     BYTE      BUZDIV
      000000F0H.6 SFRSYM    DATA     BIT       B_6
      000000E0H.0 SFRSYM    DATA     BIT       ACC_0
      00000098H.6 SFRSYM    DATA     BIT       U0SM1
      00000088H.6 SFRSYM    DATA     BIT       TR1
      000000F0H.7 SFRSYM    DATA     BIT       B_7
      000000E0H.1 SFRSYM    DATA     BIT       ACC_1
      000000B8H.0 SFRSYM    DATA     BIT       PX0
      00000098H.5 SFRSYM    DATA     BIT       U0SM2
LX51 LINKER/LOCATER V4.66.93.0                                                        06/27/2023  19:17:35  PAGE 182


      000000E0H.2 SFRSYM    DATA     BIT       ACC_2
      000000B8H.2 SFRSYM    DATA     BIT       PX1
      000000E0H.3 SFRSYM    DATA     BIT       ACC_3
      000000E0H.4 SFRSYM    DATA     BIT       ACC_4
      000000E0H.5 SFRSYM    DATA     BIT       ACC_5
      000000E0H.6 SFRSYM    DATA     BIT       ACC_6
      000000E0H.7 SFRSYM    DATA     BIT       ACC_7
      000000BDH   SFRSYM    DATA     BYTE      WUTCRH
      00000099H   SFRSYM    DATA     BYTE      SBUF0
      000000EBH   SFRSYM    DATA     BYTE      SBUF1
      000000BCH   SFRSYM    DATA     BYTE      WUTCRL
      00000098H   SFRSYM    DATA     BYTE      SCON0
      000000EAH   SFRSYM    DATA     BYTE      SCON1
      000000C8H   SFRSYM    DATA     BYTE      T2CON
      00000086H   SFRSYM    DATA     BYTE      DPS
      000000FEH   SFRSYM    DATA     BYTE      MDATA
      000000F6H   SFRSYM    DATA     BYTE      I2CMBUF
      000000F1H   SFRSYM    DATA     BYTE      I2CSADR
      00000098H.4 SFRSYM    DATA     BIT       U0REN
      000000C8H.5 SFRSYM    DATA     BIT       CAPES
      000000FDH   SFRSYM    DATA     BYTE      MADRH
      0000008EH   SFRSYM    DATA     BYTE      CKCON
      000000F3H   SFRSYM    DATA     BYTE      I2CSBUF
      000000FCH   SFRSYM    DATA     BYTE      MADRL
      000000D0H.5 SFRSYM    DATA     BIT       F0
      000000FBH   SFRSYM    DATA     BYTE      MLOCK
      000000D0H   SFRSYM    DATA     BYTE      PSW
      00000097H   SFRSYM    DATA     BYTE      WDCON
      0000004CH   SYMBOL    DATA     BYTE      bzDoneCnt
      02000140H   SYMBOL    XDATA    BYTE      bzToneType
      02000141H   SYMBOL    XDATA    WORD      bzOnTime
      02000143H   SYMBOL    XDATA    WORD      bzCtrlOnTime
      010030C8H   SYMBOL    CONST    ---       BzToneTab

      01002DDEH   BLOCK     CODE     ---       LVL=0
      01002DDEH   LINE      CODE     ---       #20
      01002DDEH   LINE      CODE     ---       #21
      01002DDEH   LINE      CODE     ---       #23
      01002DE5H   LINE      CODE     ---       #25
      01002DEBH   LINE      CODE     ---       #27
      ---         BLOCKEND  ---      ---       LVL=0

      01002C25H   BLOCK     CODE     ---       LVL=0
      01002C25H   LINE      CODE     ---       #32
      01002C25H   LINE      CODE     ---       #33
      01002C25H   LINE      CODE     ---       #34
      01002C2AH   LINE      CODE     ---       #35
      01002C2DH   LINE      CODE     ---       #37
      01002C30H   LINE      CODE     ---       #38
      01002C37H   LINE      CODE     ---       #40
      01002C3CH   LINE      CODE     ---       #41
      01002C40H   LINE      CODE     ---       #42
      01002C44H   LINE      CODE     ---       #43
      ---         BLOCKEND  ---      ---       LVL=0

      01001D69H   BLOCK     CODE     ---       LVL=0
      0000000FH   SYMBOL    DATA     BYTE      bzTone
      01001D6BH   BLOCK     CODE     NEAR LAB  LVL=1
      00000010H   SYMBOL    DATA     BYTE      i
      ---         BLOCKEND  ---      ---       LVL=1
      01001D69H   LINE      CODE     ---       #59
      01001D6BH   LINE      CODE     ---       #60
      01001D6BH   LINE      CODE     ---       #63
      01001D83H   LINE      CODE     ---       #64
      01001D83H   LINE      CODE     ---       #65
LX51 LINKER/LOCATER V4.66.93.0                                                        06/27/2023  19:17:35  PAGE 183


      01001D91H   LINE      CODE     ---       #66
      01001D91H   LINE      CODE     ---       #67
      01001DA6H   LINE      CODE     ---       #68
      01001DA6H   LINE      CODE     ---       #69
      01001DA8H   LINE      CODE     ---       #70
      01001DAEH   LINE      CODE     ---       #71
      01001DCBH   LINE      CODE     ---       #72
      01001DE8H   LINE      CODE     ---       #73
      01001DEFH   LINE      CODE     ---       #74
      01001DF6H   LINE      CODE     ---       #76
      01001DF6H   LINE      CODE     ---       #77
      01001DFAH   LINE      CODE     ---       #78
      01001DFAH   LINE      CODE     ---       #80
      01001DFFH   LINE      CODE     ---       #81
      01001E06H   LINE      CODE     ---       #82
      ---         BLOCKEND  ---      ---       LVL=0

      0100136FH   BLOCK     CODE     ---       LVL=0
      0100136FH   LINE      CODE     ---       #87
      0100136FH   LINE      CODE     ---       #88
      0100136FH   LINE      CODE     ---       #89
      01001386H   LINE      CODE     ---       #90
      01001386H   LINE      CODE     ---       #91
      01001399H   LINE      CODE     ---       #92
      01001399H   LINE      CODE     ---       #93
      0100139BH   LINE      CODE     ---       #95
      0100139EH   LINE      CODE     ---       #96
      010013A6H   LINE      CODE     ---       #97
      010013ADH   LINE      CODE     ---       #98
      010013B4H   LINE      CODE     ---       #99
      010013B8H   LINE      CODE     ---       #100
      010013BBH   LINE      CODE     ---       #102
      010013BBH   LINE      CODE     ---       #103
      010013BEH   LINE      CODE     ---       #104
      010013C2H   LINE      CODE     ---       #105
      010013C6H   LINE      CODE     ---       #106
      010013CAH   LINE      CODE     ---       #107
      010013CEH   LINE      CODE     ---       #108
      010013D1H   LINE      CODE     ---       #110
      010013D1H   LINE      CODE     ---       #112
      010013E0H   LINE      CODE     ---       #113
      010013E0H   LINE      CODE     ---       #114
      010013EBH   LINE      CODE     ---       #115
      010013EBH   LINE      CODE     ---       #116
      010013EDH   LINE      CODE     ---       #117
      010013EDH   LINE      CODE     ---       #118
      010013EDH   LINE      CODE     ---       #120
      010013FFH   LINE      CODE     ---       #121
      010013FFH   LINE      CODE     ---       #122
      0100140BH   LINE      CODE     ---       #123
      01001413H   LINE      CODE     ---       #124
      01001413H   LINE      CODE     ---       #125
      01001422H   LINE      CODE     ---       #126
      01001426H   LINE      CODE     ---       #127
      01001435H   LINE      CODE     ---       #128
      01001439H   LINE      CODE     ---       #130
      0100143BH   LINE      CODE     ---       #131
      0100143DH   LINE      CODE     ---       #132
      01001445H   LINE      CODE     ---       #133
      01001445H   LINE      CODE     ---       #134
      01001454H   LINE      CODE     ---       #135
      01001458H   LINE      CODE     ---       #136
      01001467H   LINE      CODE     ---       #137
      0100146BH   LINE      CODE     ---       #139
      01001472H   LINE      CODE     ---       #140
LX51 LINKER/LOCATER V4.66.93.0                                                        06/27/2023  19:17:35  PAGE 184


      01001472H   LINE      CODE     ---       #141
      0100147AH   LINE      CODE     ---       #142
      0100147AH   LINE      CODE     ---       #143
      01001489H   LINE      CODE     ---       #144
      0100148BH   LINE      CODE     ---       #145
      0100149AH   LINE      CODE     ---       #146
      0100149CH   LINE      CODE     ---       #147
      010014ABH   LINE      CODE     ---       #148
      010014ADH   LINE      CODE     ---       #149
      010014BCH   LINE      CODE     ---       #150
      010014BFH   LINE      CODE     ---       #151
      010014CEH   LINE      CODE     ---       #152
      010014D1H   LINE      CODE     ---       #154
      010014D4H   LINE      CODE     ---       #155
      010014D4H   LINE      CODE     ---       #156
      010014D4H   LINE      CODE     ---       #157
      010014D4H   LINE      CODE     ---       #160
      010014D4H   LINE      CODE     ---       #161
      010014D4H   LINE      CODE     ---       #163
      010014D4H   LINE      CODE     ---       #165
      010014D4H   LINE      CODE     ---       #166
      ---         BLOCKEND  ---      ---       LVL=0

      ---         MODULE    ---      ---       CHECKTOUCHKEY_80F73XX_EMC_V1_01
      00000021H.3 PUBLIC    BIT      BIT       gf_kerr
      02000132H   PUBLIC    XDATA    DWORD     KeyFlag
      010030E1H   PUBLIC    CONST    ---       __CMS_CurStep_Table
      010028B1H   PUBLIC    CODE     ---       CCTOUCH_IRQHandler
      01001FDAH   PUBLIC    CODE     ---       __CMS_GetTouchKeyValue
      01001CC0H   PUBLIC    CODE     ---       __CMS_CheckTouchKey
      0100175DH   PUBLIC    CODE     ---       __CMS_KeyStart
      0100236DH   PUBLIC    CODE     ---       __CMS_KeyModeSet
      010026EFH   PUBLIC    CODE     ---       __CMS_CheckValidTime
      01001C15H   PUBLIC    CODE     ---       __CMS_KeyDatIIR
      0100186AH   PUBLIC    CODE     ---       __CMS_Key_UNNOL_Check
      01000ECDH   PUBLIC    CODE     ---       __CMS_CurAdjust
      0100083AH   PUBLIC    CODE     ---       ___CMS_CurAdjustdl
      01000D00H   PUBLIC    CODE     ---       __CMS_CheckKeyOldValue
      010000DEH   PUBLIC    CODE     ---       __CMS_CheckOnceResult
      01001060H   PUBLIC    CODE     ---       __CMS_Noise_check
      01002C45H   PUBLIC    CODE     ---       __CMS_KeyStopClear
      01001EA4H   PUBLIC    CODE     ---       ___CMS_KeyClearOne
      010027FCH   PUBLIC    CODE     ---       ___CMS_KeyHaveDown
      010028ECH   PUBLIC    CODE     ---       ___CMS_KeyOpen
      01002B94H   PUBLIC    CODE     ---       ___CMS_KeyIsIn

      01002B94H   BLOCK     CODE     ---       LVL=0
      ---         BLOCKEND  ---      ---       LVL=0

      010028ECH   BLOCK     CODE     ---       LVL=0
      ---         BLOCKEND  ---      ---       LVL=0

      010027FCH   BLOCK     CODE     ---       LVL=0
      ---         BLOCKEND  ---      ---       LVL=0

      01001EA4H   BLOCK     CODE     ---       LVL=0
      ---         BLOCKEND  ---      ---       LVL=0

      01002C45H   BLOCK     CODE     ---       LVL=0
      01002C45H   BLOCK     CODE     NEAR LAB  LVL=1
      00000006H   SYMBOL    DATA     VOID      i
      ---         BLOCKEND  ---      ---       LVL=1
      ---         BLOCKEND  ---      ---       LVL=0

      01001060H   BLOCK     CODE     ---       LVL=0
LX51 LINKER/LOCATER V4.66.93.0                                                        06/27/2023  19:17:35  PAGE 185


      01001060H   BLOCK     CODE     NEAR LAB  LVL=1
      0200011EH   SYMBOL    XDATA    VOID      NoiseOneCnt
      0200011FH   SYMBOL    XDATA    VOID      NONOneCnt
      02000120H   SYMBOL    XDATA    VOID      NoiseAllCnt
      02000121H   SYMBOL    XDATA    VOID      NONAllCnt
      02000122H   SYMBOL    XDATA    VOID      NoiseFlagOld
      02000126H   SYMBOL    XDATA    VOID      NoiseNC
      00000009H   SYMBOL    DATA     VOID      NoiseFlag
      00000003H   SYMBOL    DATA     VOID      cnt
      00000002H   SYMBOL    DATA     VOID      noisec
      0000000DH   SYMBOL    DATA     VOID      noisef
      0000000EH   SYMBOL    DATA     VOID      KeyValue1
      00000006H   SYMBOL    DATA     VOID      KeyValue0
      ---         BLOCKEND  ---      ---       LVL=1
      ---         BLOCKEND  ---      ---       LVL=0

      010000DEH   BLOCK     CODE     ---       LVL=0
      010000DEH   BLOCK     CODE     NEAR LAB  LVL=1
      00000009H   SYMBOL    DATA     VOID      KeyDownF
      0000000AH   SYMBOL    DATA     VOID      cnt
      0000000BH   SYMBOL    DATA     VOID      templ
      00000006H   SYMBOL    DATA     VOID      KeyDown
      0000000CH   SYMBOL    DATA     VOID      KeyValue
      0000000EH   SYMBOL    DATA     VOID      KeyBase
      00000010H   SYMBOL    DATA     VOID      KeyHaveF
      00000011H   SYMBOL    DATA     VOID      KHaveHC
      00000012H   SYMBOL    DATA     VOID      KHaveLC
      00000007H   SYMBOL    DATA     VOID      KHaveHTemp
      00000006H   SYMBOL    DATA     VOID      KHaveLTemp
      00000013H   SYMBOL    DATA     VOID      KeyShakeTemp
      00000014H   SYMBOL    DATA     VOID      KeyDownTemp
      00000016H   SYMBOL    DATA     VOID      KeyDownMaxL
      00000018H   SYMBOL    DATA     VOID      KeyOnceFlag
      00000019H   SYMBOL    DATA     VOID      KeyHaveTempL
      0000001AH   SYMBOL    DATA     VOID      KeyHaveTempH
      ---         BLOCKEND  ---      ---       LVL=1
      ---         BLOCKEND  ---      ---       LVL=0

      01000D00H   BLOCK     CODE     ---       LVL=0
      01000D00H   BLOCK     CODE     NEAR LAB  LVL=1
      00000009H   SYMBOL    DATA     VOID      cnt
      00000006H   SYMBOL    DATA     VOID      KeyTemp1
      00000004H   SYMBOL    DATA     VOID      KeyTemp0
      0000000AH   SYMBOL    DATA     VOID      KeyOneTemp
      0000000CH   SYMBOL    DATA     VOID      KeyOldTemp
      0000000EH   SYMBOL    DATA     VOID      KeyOVTemp
      00000010H   SYMBOL    DATA     VOID      KeyBase
      00000012H   SYMBOL    DATA     VOID      VolValueOne
      00000013H   SYMBOL    DATA     VOID      KeyBaseLV
      00000014H   SYMBOL    DATA     VOID      KeyOldTemp0
      00000016H   SYMBOL    DATA     VOID      KeyOldTemp1
      ---         BLOCKEND  ---      ---       LVL=1
      ---         BLOCKEND  ---      ---       LVL=0

      0100083AH   BLOCK     CODE     ---       LVL=0
      01000840H   BLOCK     CODE     NEAR LAB  LVL=1
      0000000DH   SYMBOL    DATA     VOID      cnt
      0000000EH   SYMBOL    DATA     VOID      KeySumTemp
      00000010H   SYMBOL    DATA     VOID      TKDatTemp
      00000012H   SYMBOL    DATA     VOID      templong
      ---         BLOCKEND  ---      ---       LVL=1
      ---         BLOCKEND  ---      ---       LVL=0

      01000ECDH   BLOCK     CODE     ---       LVL=0
      01000ECDH   BLOCK     CODE     NEAR LAB  LVL=1
LX51 LINKER/LOCATER V4.66.93.0                                                        06/27/2023  19:17:35  PAGE 186


      00000009H   SYMBOL    DATA     VOID      cnt
      ---         BLOCKEND  ---      ---       LVL=1
      ---         BLOCKEND  ---      ---       LVL=0

      0100186AH   BLOCK     CODE     ---       LVL=0
      0100186AH   BLOCK     CODE     NEAR LAB  LVL=1
      02000128H   SYMBOL    XDATA    VOID      UnNolSec
      02000129H   SYMBOL    XDATA    VOID      UnNolTime
      00000020H.7 SYMBOL    BIT      VOID      UnNolOver
      00000007H   SYMBOL    DATA     VOID      UnNolFlag
      00000006H   SYMBOL    DATA     VOID      cnt
      ---         BLOCKEND  ---      ---       LVL=1
      ---         BLOCKEND  ---      ---       LVL=0

      01001C15H   BLOCK     CODE     ---       LVL=0
      01001C15H   BLOCK     CODE     NEAR LAB  LVL=1
      00000003H   SYMBOL    DATA     VOID      cnt
      00000009H   SYMBOL    DATA     VOID      TKDatTemp1
      0000000BH   SYMBOL    DATA     VOID      TKDatTemp0
      00000004H   SYMBOL    DATA     VOID      TKOldTemp
      ---         BLOCKEND  ---      ---       LVL=1
      ---         BLOCKEND  ---      ---       LVL=0

      010026EFH   BLOCK     CODE     ---       LVL=0
      010026EFH   BLOCK     CODE     NEAR LAB  LVL=1
      0200012AH   SYMBOL    XDATA    VOID      validtime
      ---         BLOCKEND  ---      ---       LVL=1
      ---         BLOCKEND  ---      ---       LVL=0

      0100236DH   BLOCK     CODE     ---       LVL=0
      ---         BLOCKEND  ---      ---       LVL=0

      0100175DH   BLOCK     CODE     ---       LVL=0
      0100175DH   BLOCK     CODE     NEAR LAB  LVL=1
      00000007H   SYMBOL    DATA     VOID      m_CurStepTemp
      ---         BLOCKEND  ---      ---       LVL=1
      ---         BLOCKEND  ---      ---       LVL=0

      01001CC0H   BLOCK     CODE     ---       LVL=0
      01001CC0H   BLOCK     CODE     NEAR LAB  LVL=1
      00000008H   SYMBOL    DATA     VOID      cnt
      0200012CH   SYMBOL    XDATA    VOID      s_CheckKeyLim
      ---         BLOCKEND  ---      ---       LVL=1
      ---         BLOCKEND  ---      ---       LVL=0

      01001FDAH   BLOCK     CODE     ---       LVL=0
      ---         BLOCKEND  ---      ---       LVL=0

      010028B1H   BLOCK     CODE     ---       LVL=0
      ---         BLOCKEND  ---      ---       LVL=0

      ---         MODULE    ---      ---       ?C_INIT
      01001F95H   PUBLIC    CODE     ---       ?C_START

      ---         MODULE    ---      ---       ?C?CLDPTR
      010004D0H   PUBLIC    CODE     ---       ?C?CLDPTR

      ---         MODULE    ---      ---       ?C?CLDOPTR
      010004E9H   PUBLIC    CODE     ---       ?C?CLDOPTR

      ---         MODULE    ---      ---       ?C?CILDOPTR
      01000516H   PUBLIC    CODE     ---       ?C?CILDOPTR

      ---         MODULE    ---      ---       ?C?CSTPTR
      01000549H   PUBLIC    CODE     ---       ?C?CSTPTR
LX51 LINKER/LOCATER V4.66.93.0                                                        06/27/2023  19:17:35  PAGE 187



      ---         MODULE    ---      ---       ?C?CSTOPTR
      0100055BH   PUBLIC    CODE     ---       ?C?CSTOPTR

      ---         MODULE    ---      ---       ?C?UIDIV
      0100057DH   PUBLIC    CODE     ---       ?C?UIDIV

      ---         MODULE    ---      ---       ?C?SIDIV
      010005D2H   PUBLIC    CODE     ---       ?C?SIDIV

      ---         MODULE    ---      ---       ?C?IILDX
      01000608H   PUBLIC    CODE     ---       ?C?IILDX

      ---         MODULE    ---      ---       ?C?ILDOPTR
      0100061EH   PUBLIC    CODE     ---       ?C?ILDOPTR

      ---         MODULE    ---      ---       ?C?LMUL
      01000656H   PUBLIC    CODE     ---       ?C?LMUL

      ---         MODULE    ---      ---       ?C?ULDIV
      010006E1H   PUBLIC    CODE     ---       ?C?ULDIV

      ---         MODULE    ---      ---       ?C?LNOT
      01000773H   PUBLIC    CODE     ---       ?C?LNOT

      ---         MODULE    ---      ---       ?C?ULCMP
      01000780H   PUBLIC    CODE     ---       ?C?ULCMP

      ---         MODULE    ---      ---       ?C?LSHL
      01000791H   PUBLIC    CODE     ---       ?C?LSHL

      ---         MODULE    ---      ---       ?C?LLDCODE
      010007A4H   PUBLIC    CODE     ---       ?C?LLDCODE

      ---         MODULE    ---      ---       ?C?LLDCODE0
      010007B4H   PUBLIC    CODE     ---       ?C?LLDCODE0

      ---         MODULE    ---      ---       ?C?LSTXDATA
      010007C4H   PUBLIC    CODE     ---       ?C?LSTXDATA

      ---         MODULE    ---      ---       ?C?LSTKXDATA
      010007D0H   PUBLIC    CODE     ---       ?C?LSTKXDATA

      ---         MODULE    ---      ---       ?C?OFFXADD
      01000801H   PUBLIC    CODE     ---       ?C?OFFXADD

      ---         MODULE    ---      ---       ?C?LIMUL
      0100080DH   PUBLIC    CODE     ---       ?C?LIMUL

Program Size: data=86.7 xdata=326 const=577 code=11942
LX51 RUN COMPLETE.  0 WARNING(S),  0 ERROR(S)
